
build/output.elf:     file format elf32-littlearm


Disassembly of section .init:

00008000 <_start>:
    8000:	e59ff018 	ldr	pc, [pc, #24]	; 8020 <reset_handler>
    8004:	e59ff018 	ldr	pc, [pc, #24]	; 8024 <undefined_handler>
    8008:	e59ff018 	ldr	pc, [pc, #24]	; 8028 <swi_handler>
    800c:	e59ff018 	ldr	pc, [pc, #24]	; 802c <prefetch_handler>
    8010:	e59ff018 	ldr	pc, [pc, #24]	; 8030 <data_handler>
    8014:	e59ff018 	ldr	pc, [pc, #24]	; 8034 <unused_handler>
    8018:	e59ff018 	ldr	pc, [pc, #24]	; 8038 <irq_handler>
    801c:	e59ff018 	ldr	pc, [pc, #24]	; 803c <fiq_handler>

00008020 <reset_handler>:
    8020:	00008040 	.word	0x00008040

00008024 <undefined_handler>:
    8024:	00008084 	.word	0x00008084

00008028 <swi_handler>:
    8028:	000083fc 	.word	0x000083fc

0000802c <prefetch_handler>:
    802c:	00008084 	.word	0x00008084

00008030 <data_handler>:
    8030:	00008084 	.word	0x00008084

00008034 <unused_handler>:
    8034:	00008084 	.word	0x00008084

00008038 <irq_handler>:
    8038:	00008460 	.word	0x00008460

0000803c <fiq_handler>:
    803c:	00008084 	.word	0x00008084

00008040 <reset>:
    8040:	e3a00902 	mov	r0, #32768	; 0x8000
    8044:	e3a01000 	mov	r1, #0
    8048:	e8b003fc 	ldm	r0!, {r2, r3, r4, r5, r6, r7, r8, r9}
    804c:	e8a103fc 	stmia	r1!, {r2, r3, r4, r5, r6, r7, r8, r9}
    8050:	e8b003fc 	ldm	r0!, {r2, r3, r4, r5, r6, r7, r8, r9}
    8054:	e8a103fc 	stmia	r1!, {r2, r3, r4, r5, r6, r7, r8, r9}
    8058:	e3a000d2 	mov	r0, #210	; 0xd2
    805c:	e121f000 	msr	CPSR_c, r0
    8060:	e3a0d902 	mov	sp, #32768	; 0x8000
    8064:	e3a000d3 	mov	r0, #211	; 0xd3
    8068:	e121f000 	msr	CPSR_c, r0
    806c:	e3a0d802 	mov	sp, #131072	; 0x20000
    8070:	e3a000df 	mov	r0, #223	; 0xdf
    8074:	e121f000 	msr	CPSR_c, r0
    8078:	e3a0d701 	mov	sp, #262144	; 0x40000
    807c:	e24dd004 	sub	sp, sp, #4
    8080:	eb000000 	bl	8088 <main>

00008084 <hang>:
    8084:	eafffffe 	b	8084 <hang>

00008088 <main>:
    8088:	eb000874 	bl	a260 <init>

0000808c <PUT32>:
    808c:	e5801000 	str	r1, [r0]
    8090:	e12fff1e 	bx	lr

00008094 <GET32>:
    8094:	e5900000 	ldr	r0, [r0]
    8098:	e12fff1e 	bx	lr

0000809c <dummy>:
    809c:	e12fff1e 	bx	lr

Disassembly of section .text:

000080a0 <save_context>:
    80a0:	e92d1ff0 	push	{r4, r5, r6, r7, r8, r9, sl, fp, ip}
    80a4:	e3a01001 	mov	r1, #1
    80a8:	e3a02002 	mov	r2, #2
    80ac:	e3a03003 	mov	r3, #3
    80b0:	e3a04004 	mov	r4, #4
    80b4:	e3a05005 	mov	r5, #5
    80b8:	e3a06006 	mov	r6, #6
    80bc:	e3a07007 	mov	r7, #7
    80c0:	e3a08008 	mov	r8, #8
    80c4:	e3a09009 	mov	r9, #9
    80c8:	e3a0a00a 	mov	sl, #10
    80cc:	e3a0b00b 	mov	fp, #11
    80d0:	e3a0c00c 	mov	ip, #12
    80d4:	e52d1004 	push	{r1}		; (str r1, [sp, #-4]!)
    80d8:	e10f1000 	mrs	r1, CPSR
    80dc:	e8a00002 	stmia	r0!, {r1}
    80e0:	e49d1004 	pop	{r1}		; (ldr r1, [sp], #4)
    80e4:	e8a02000 	stmia	r0!, {sp}
    80e8:	e8a04000 	stmia	r0!, {lr}
    80ec:	e8a04000 	stmia	r0!, {lr}
    80f0:	e8a01fff 	stmia	r0!, {r0, r1, r2, r3, r4, r5, r6, r7, r8, r9, sl, fp, ip}
    80f4:	e8bd1ff0 	pop	{r4, r5, r6, r7, r8, r9, sl, fp, ip}
    80f8:	e1a0f00e 	mov	pc, lr

000080fc <save_and_switch_context>:
    80fc:	e52d1004 	push	{r1}		; (str r1, [sp, #-4]!)
    8100:	e10f1000 	mrs	r1, CPSR
    8104:	e8a00002 	stmia	r0!, {r1}
    8108:	e49d1004 	pop	{r1}		; (ldr r1, [sp], #4)
    810c:	e8a02000 	stmia	r0!, {sp}
    8110:	e8a04000 	stmia	r0!, {lr}
    8114:	e8a04000 	stmia	r0!, {lr}
    8118:	e8a01fff 	stmia	r0!, {r0, r1, r2, r3, r4, r5, r6, r7, r8, r9, sl, fp, ip}
    811c:	e3a040d2 	mov	r4, #210	; 0xd2
    8120:	e121f004 	msr	CPSR_c, r4
    8124:	e52d1004 	push	{r1}		; (str r1, [sp, #-4]!)
    8128:	e1a00002 	mov	r0, r2
    812c:	e1a01003 	mov	r1, r3
    8130:	eb0028e1 	bl	124bc <thread_schedule_tail>
    8134:	e49d1004 	pop	{r1}		; (ldr r1, [sp], #4)
    8138:	e8b10001 	ldm	r1!, {r0}
    813c:	e169f000 	msr	SPSR_fc, r0
    8140:	e8b1400c 	ldm	r1!, {r2, r3, lr}
    8144:	e3a000df 	mov	r0, #223	; 0xdf
    8148:	e121f000 	msr	CPSR_c, r0
    814c:	e1a0d002 	mov	sp, r2
    8150:	e1a0e003 	mov	lr, r3
    8154:	e3a000d2 	mov	r0, #210	; 0xd2
    8158:	e121f000 	msr	CPSR_c, r0
    815c:	e8b10001 	ldm	r1!, {r0}
    8160:	e52d0004 	push	{r0}		; (str r0, [sp, #-4]!)
    8164:	e1a00001 	mov	r0, r1
    8168:	e8b01ffe 	ldm	r0!, {r1, r2, r3, r4, r5, r6, r7, r8, r9, sl, fp, ip}
    816c:	e49d0004 	pop	{r0}		; (ldr r0, [sp], #4)
    8170:	e1b0f00e 	movs	pc, lr

00008174 <SetForeColour>:
    8174:	e3500801 	cmp	r0, #65536	; 0x10000
    8178:	81a0f00e 	movhi	pc, lr
    817c:	01a0f00e 	moveq	pc, lr
    8180:	e59f1158 	ldr	r1, [pc, #344]	; 82e0 <charPixelLoopEnd$+0x1c>
    8184:	e1c100b0 	strh	r0, [r1]
    8188:	e1a0f00e 	mov	pc, lr

0000818c <GetForeColour>:
    818c:	e59f014c 	ldr	r0, [pc, #332]	; 82e0 <charPixelLoopEnd$+0x1c>
    8190:	e1d000b0 	ldrh	r0, [r0]
    8194:	e1a0f00e 	mov	pc, lr

00008198 <SetGraphicsAddress>:
    8198:	e59f1144 	ldr	r1, [pc, #324]	; 82e4 <charPixelLoopEnd$+0x20>
    819c:	e5810000 	str	r0, [r1]
    81a0:	e1a0f00e 	mov	pc, lr

000081a4 <GetGraphicsAddress>:
    81a4:	e59f0138 	ldr	r0, [pc, #312]	; 82e4 <charPixelLoopEnd$+0x20>
    81a8:	e5900000 	ldr	r0, [r0]
    81ac:	e1a0f00e 	mov	pc, lr

000081b0 <DrawPixel>:
    81b0:	e59f212c 	ldr	r2, [pc, #300]	; 82e4 <charPixelLoopEnd$+0x20>
    81b4:	e5922000 	ldr	r2, [r2]
    81b8:	e5923004 	ldr	r3, [r2, #4]
    81bc:	e2433001 	sub	r3, r3, #1
    81c0:	e1510003 	cmp	r1, r3
    81c4:	81a0f00e 	movhi	pc, lr
    81c8:	e5923000 	ldr	r3, [r2]
    81cc:	e2433001 	sub	r3, r3, #1
    81d0:	e1500003 	cmp	r0, r3
    81d4:	81a0f00e 	movhi	pc, lr
    81d8:	e5922020 	ldr	r2, [r2, #32]
    81dc:	e2833001 	add	r3, r3, #1
    81e0:	e0200391 	mla	r0, r1, r3, r0
    81e4:	e0822080 	add	r2, r2, r0, lsl #1
    81e8:	e59f30f0 	ldr	r3, [pc, #240]	; 82e0 <charPixelLoopEnd$+0x1c>
    81ec:	e1d330b0 	ldrh	r3, [r3]
    81f0:	e1c230b0 	strh	r3, [r2]
    81f4:	e1a0f00e 	mov	pc, lr

000081f8 <DrawLine>:
    81f8:	e92d5ff0 	push	{r4, r5, r6, r7, r8, r9, sl, fp, ip, lr}
    81fc:	e1a09000 	mov	r9, r0
    8200:	e1a0a002 	mov	sl, r2
    8204:	e1a0b001 	mov	fp, r1
    8208:	e1a0c003 	mov	ip, r3
    820c:	e159000a 	cmp	r9, sl
    8210:	c049400a 	subgt	r4, r9, sl
    8214:	c3e06000 	mvngt	r6, #0
    8218:	d04a4009 	suble	r4, sl, r9
    821c:	d3a06001 	movle	r6, #1
    8220:	e15b000c 	cmp	fp, ip
    8224:	c04c500b 	subgt	r5, ip, fp
    8228:	c3e07000 	mvngt	r7, #0
    822c:	d04b500c 	suble	r5, fp, ip
    8230:	d3a07001 	movle	r7, #1
    8234:	e0848005 	add	r8, r4, r5
    8238:	e08aa006 	add	sl, sl, r6
    823c:	e08cc007 	add	ip, ip, r7

00008240 <pixelLoop$>:
    8240:	e139000a 	teq	r9, sl
    8244:	113b000c 	teqne	fp, ip
    8248:	08bd9ff0 	popeq	{r4, r5, r6, r7, r8, r9, sl, fp, ip, pc}
    824c:	e1a00009 	mov	r0, r9
    8250:	e1a0100b 	mov	r1, fp
    8254:	ebffffd5 	bl	81b0 <DrawPixel>
    8258:	e1550088 	cmp	r5, r8, lsl #1
    825c:	d0888005 	addle	r8, r8, r5
    8260:	d0899006 	addle	r9, r9, r6
    8264:	e1540088 	cmp	r4, r8, lsl #1
    8268:	a0888004 	addge	r8, r8, r4
    826c:	a08bb007 	addge	fp, fp, r7
    8270:	eafffff2 	b	8240 <pixelLoop$>

00008274 <DrawCharacter>:
    8274:	e350007f 	cmp	r0, #127	; 0x7f
    8278:	83a00000 	movhi	r0, #0
    827c:	83a01000 	movhi	r1, #0
    8280:	81a0f00e 	movhi	pc, lr
    8284:	e1a04001 	mov	r4, r1
    8288:	e1a05002 	mov	r5, r2
    828c:	e92d41f0 	push	{r4, r5, r6, r7, r8, lr}
    8290:	e59f6050 	ldr	r6, [pc, #80]	; 82e8 <charPixelLoopEnd$+0x24>
    8294:	e0866200 	add	r6, r6, r0, lsl #4

00008298 <lineLoop$>:
    8298:	e5d67000 	ldrb	r7, [r6]
    829c:	e3a08008 	mov	r8, #8

000082a0 <charPixelLoop$>:
    82a0:	e2588001 	subs	r8, r8, #1
    82a4:	ba000006 	blt	82c4 <charPixelLoopEnd$>
    82a8:	e1a07087 	lsl	r7, r7, #1
    82ac:	e3170c01 	tst	r7, #256	; 0x100
    82b0:	0afffffa 	beq	82a0 <charPixelLoop$>
    82b4:	e0840008 	add	r0, r4, r8
    82b8:	e1a01005 	mov	r1, r5
    82bc:	ebffffbb 	bl	81b0 <DrawPixel>
    82c0:	eafffff6 	b	82a0 <charPixelLoop$>

000082c4 <charPixelLoopEnd$>:
    82c4:	e2855001 	add	r5, r5, #1
    82c8:	e2866001 	add	r6, r6, #1
    82cc:	e316000f 	tst	r6, #15
    82d0:	1afffff0 	bne	8298 <lineLoop$>
    82d4:	e3a00008 	mov	r0, #8
    82d8:	e3a01010 	mov	r1, #16
    82dc:	e8bd81f0 	pop	{r4, r5, r6, r7, r8, pc}
    82e0:	00017000 	.word	0x00017000
    82e4:	00017004 	.word	0x00017004
    82e8:	00017010 	.word	0x00017010

000082ec <InitialiseFrameBuffer>:
    82ec:	e3500a01 	cmp	r0, #4096	; 0x1000
    82f0:	93510a01 	cmpls	r1, #4096	; 0x1000
    82f4:	93520020 	cmpls	r2, #32
    82f8:	83a00000 	movhi	r0, #0
    82fc:	81a0f00e 	movhi	pc, lr
    8300:	e92d4010 	push	{r4, lr}
    8304:	e59f403c 	ldr	r4, [pc, #60]	; 8348 <InitialiseFrameBuffer+0x5c>
    8308:	e5840000 	str	r0, [r4]
    830c:	e5841004 	str	r1, [r4, #4]
    8310:	e5840008 	str	r0, [r4, #8]
    8314:	e584100c 	str	r1, [r4, #12]
    8318:	e5842014 	str	r2, [r4, #20]
    831c:	e1a00004 	mov	r0, r4
    8320:	e2800101 	add	r0, r0, #1073741824	; 0x40000000
    8324:	e3a01001 	mov	r1, #1
    8328:	eb000088 	bl	8550 <MailboxWrite>
    832c:	e3a00001 	mov	r0, #1
    8330:	eb000079 	bl	851c <MailboxRead>
    8334:	e3300000 	teq	r0, #0
    8338:	13a00000 	movne	r0, #0
    833c:	18bd8010 	popne	{r4, pc}
    8340:	e1a00004 	mov	r0, r4
    8344:	e8bd8010 	pop	{r4, pc}
    8348:	00018000 	.word	0x00018000

0000834c <GetGpioAddress>:
    834c:	e59f008c 	ldr	r0, [pc, #140]	; 83e0 <SetGpio+0x3c>
    8350:	e1a0f00e 	mov	pc, lr

00008354 <SetGpioFunction>:
    8354:	e3500035 	cmp	r0, #53	; 0x35
    8358:	93510007 	cmpls	r1, #7
    835c:	81a0f00e 	movhi	pc, lr
    8360:	e52de004 	push	{lr}		; (str lr, [sp, #-4]!)
    8364:	e1a02000 	mov	r2, r0
    8368:	ebfffff7 	bl	834c <GetGpioAddress>

0000836c <functionLoop$>:
    836c:	e3520009 	cmp	r2, #9
    8370:	8242200a 	subhi	r2, r2, #10
    8374:	82800004 	addhi	r0, r0, #4
    8378:	8afffffb 	bhi	836c <functionLoop$>
    837c:	e0822082 	add	r2, r2, r2, lsl #1
    8380:	e1a01211 	lsl	r1, r1, r2
    8384:	e3a03007 	mov	r3, #7
    8388:	e1a03213 	lsl	r3, r3, r2
    838c:	e1e03003 	mvn	r3, r3
    8390:	e5902000 	ldr	r2, [r0]
    8394:	e0022003 	and	r2, r2, r3
    8398:	e1811002 	orr	r1, r1, r2
    839c:	e5801000 	str	r1, [r0]
    83a0:	e49df004 	pop	{pc}		; (ldr pc, [sp], #4)

000083a4 <SetGpio>:
    83a4:	e3500035 	cmp	r0, #53	; 0x35
    83a8:	81a0f00e 	movhi	pc, lr
    83ac:	e52de004 	push	{lr}		; (str lr, [sp, #-4]!)
    83b0:	e1a02000 	mov	r2, r0
    83b4:	ebffffe4 	bl	834c <GetGpioAddress>
    83b8:	e1a032a2 	lsr	r3, r2, #5
    83bc:	e1a03103 	lsl	r3, r3, #2
    83c0:	e0800003 	add	r0, r0, r3
    83c4:	e202201f 	and	r2, r2, #31
    83c8:	e3a03001 	mov	r3, #1
    83cc:	e1a03213 	lsl	r3, r3, r2
    83d0:	e3310000 	teq	r1, #0
    83d4:	05803028 	streq	r3, [r0, #40]	; 0x28
    83d8:	1580301c 	strne	r3, [r0, #28]
    83dc:	e49df004 	pop	{pc}		; (ldr pc, [sp], #4)
    83e0:	20200000 	.word	0x20200000

000083e4 <print_executing_interrupt>:
    83e4:	e52de004 	push	{lr}		; (str lr, [sp, #-4]!)
    83e8:	e59f0120 	ldr	r0, [pc, #288]	; 8510 <get_current_sp+0x8>
    83ec:	eb001768 	bl	e194 <printf>
    83f0:	e49df004 	pop	{pc}		; (ldr pc, [sp], #4)

000083f4 <generate_swi_interrupt>:
    83f4:	ef000011 	svc	0x00000011
    83f8:	e1a0f00e 	mov	pc, lr

000083fc <swi_handler_int>:
    83fc:	e92d1fff 	push	{r0, r1, r2, r3, r4, r5, r6, r7, r8, r9, sl, fp, ip}
    8400:	e3a000df 	mov	r0, #223	; 0xdf
    8404:	e121f000 	msr	CPSR_c, r0
    8408:	e1a0100d 	mov	r1, sp
    840c:	e1a0200e 	mov	r2, lr
    8410:	e3a000d3 	mov	r0, #211	; 0xd3
    8414:	e121f000 	msr	CPSR_c, r0
    8418:	e92d4006 	push	{r1, r2, lr}
    841c:	e14f0000 	mrs	r0, SPSR
    8420:	e92d0001 	stmfd	sp!, {r0}
    8424:	e1a0000d 	mov	r0, sp
    8428:	e51e1004 	ldr	r1, [lr, #-4]
    842c:	e3c114ff 	bic	r1, r1, #-16777216	; 0xff000000
    8430:	eb001086 	bl	c650 <interrupts_dispatch_swi>
    8434:	e8bd0001 	ldmfd	sp!, {r0}
    8438:	e169f000 	msr	SPSR_fc, r0
    843c:	e8bd4006 	pop	{r1, r2, lr}
    8440:	e3a000df 	mov	r0, #223	; 0xdf
    8444:	e121f000 	msr	CPSR_c, r0
    8448:	e1a0d001 	mov	sp, r1
    844c:	e1a0e002 	mov	lr, r2
    8450:	e3a000d3 	mov	r0, #211	; 0xd3
    8454:	e121f000 	msr	CPSR_c, r0
    8458:	e8bd1fff 	pop	{r0, r1, r2, r3, r4, r5, r6, r7, r8, r9, sl, fp, ip}
    845c:	e1b0f00e 	movs	pc, lr

00008460 <irq_handler_int>:
    8460:	e24ee004 	sub	lr, lr, #4
    8464:	e92d1fff 	push	{r0, r1, r2, r3, r4, r5, r6, r7, r8, r9, sl, fp, ip}
    8468:	e3a000df 	mov	r0, #223	; 0xdf
    846c:	e121f000 	msr	CPSR_c, r0
    8470:	e1a0100d 	mov	r1, sp
    8474:	e1a0200e 	mov	r2, lr
    8478:	e3a000d2 	mov	r0, #210	; 0xd2
    847c:	e121f000 	msr	CPSR_c, r0
    8480:	e92d4006 	push	{r1, r2, lr}
    8484:	e14f0000 	mrs	r0, SPSR
    8488:	e92d0001 	stmfd	sp!, {r0}
    848c:	e1a0000d 	mov	r0, sp
    8490:	eb000fdc 	bl	c408 <interrupts_dispatch_irq>
    8494:	e8bd0001 	ldmfd	sp!, {r0}
    8498:	e169f000 	msr	SPSR_fc, r0
    849c:	e8bd4006 	pop	{r1, r2, lr}
    84a0:	e3a000df 	mov	r0, #223	; 0xdf
    84a4:	e121f000 	msr	CPSR_c, r0
    84a8:	e1a0d001 	mov	sp, r1
    84ac:	e1a0e002 	mov	lr, r2
    84b0:	e3a000d2 	mov	r0, #210	; 0xd2
    84b4:	e121f000 	msr	CPSR_c, r0
    84b8:	e8bd1fff 	pop	{r0, r1, r2, r3, r4, r5, r6, r7, r8, r9, sl, fp, ip}
    84bc:	e1b0f00e 	movs	pc, lr

000084c0 <get_cpsr_value>:
    84c0:	e10f0000 	mrs	r0, CPSR
    84c4:	e1a0f00e 	mov	pc, lr

000084c8 <enable_irq_interruptions>:
    84c8:	e10f1000 	mrs	r1, CPSR
    84cc:	e3c11080 	bic	r1, r1, #128	; 0x80
    84d0:	e121f001 	msr	CPSR_c, r1
    84d4:	e1a0f00e 	mov	pc, lr

000084d8 <disable_irq_interruptions>:
    84d8:	e10f1000 	mrs	r1, CPSR
    84dc:	e3811080 	orr	r1, r1, #128	; 0x80
    84e0:	e129f001 	msr	CPSR_fc, r1
    84e4:	e1a0f00e 	mov	pc, lr

000084e8 <enable_fiq_interruptions>:
    84e8:	e10f1000 	mrs	r1, CPSR
    84ec:	e3c11040 	bic	r1, r1, #64	; 0x40
    84f0:	e121f001 	msr	CPSR_c, r1
    84f4:	e1a0f00e 	mov	pc, lr

000084f8 <disable_fiq_interruptions>:
    84f8:	e10f1000 	mrs	r1, CPSR
    84fc:	e3811040 	orr	r1, r1, #64	; 0x40
    8500:	e129f001 	msr	CPSR_fc, r1
    8504:	e1a0f00e 	mov	pc, lr

00008508 <get_current_sp>:
    8508:	e1a0000d 	mov	r0, sp
    850c:	e1a0f00e 	mov	pc, lr
    8510:	00019000 	.word	0x00019000

00008514 <GetMailboxBase>:
    8514:	e59f0060 	ldr	r0, [pc, #96]	; 857c <wait2$+0x14>
    8518:	e1a0f00e 	mov	pc, lr

0000851c <MailboxRead>:
    851c:	e200300f 	and	r3, r0, #15
    8520:	e1a0200e 	mov	r2, lr
    8524:	ebfffffa 	bl	8514 <GetMailboxBase>
    8528:	e1a0e002 	mov	lr, r2

0000852c <rightmail$>:
    852c:	e5902018 	ldr	r2, [r0, #24]
    8530:	e3120101 	tst	r2, #1073741824	; 0x40000000
    8534:	1afffffc 	bne	852c <rightmail$>
    8538:	e5901000 	ldr	r1, [r0]
    853c:	e201200f 	and	r2, r1, #15
    8540:	e1320003 	teq	r2, r3
    8544:	1afffff8 	bne	852c <rightmail$>
    8548:	e3c1000f 	bic	r0, r1, #15
    854c:	e1a0f00e 	mov	pc, lr

00008550 <MailboxWrite>:
    8550:	e201200f 	and	r2, r1, #15
    8554:	e3c0100f 	bic	r1, r0, #15
    8558:	e1811002 	orr	r1, r1, r2
    855c:	e1a0200e 	mov	r2, lr
    8560:	ebffffeb 	bl	8514 <GetMailboxBase>
    8564:	e1a0e002 	mov	lr, r2

00008568 <wait2$>:
    8568:	e5902018 	ldr	r2, [r0, #24]
    856c:	e3120102 	tst	r2, #-2147483648	; 0x80000000
    8570:	1afffffc 	bne	8568 <wait2$>
    8574:	e5801020 	str	r1, [r0, #32]
    8578:	e1a0f00e 	mov	pc, lr
    857c:	2000b880 	.word	0x2000b880

00008580 <memory_fastest_copy>:
    8580:	e92d5ff0 	push	{r4, r5, r6, r7, r8, r9, sl, fp, ip, lr}

00008584 <memory_fastest_copy_while_10_words$>:
    8584:	e3520028 	cmp	r2, #40	; 0x28
    8588:	9a000003 	bls	859c <memory_fastest_copy_exit_10_words$>
    858c:	e2522028 	subs	r2, r2, #40	; 0x28
    8590:	e8b01ff8 	ldm	r0!, {r3, r4, r5, r6, r7, r8, r9, sl, fp, ip}
    8594:	e8a11ff8 	stmia	r1!, {r3, r4, r5, r6, r7, r8, r9, sl, fp, ip}
    8598:	eafffff9 	b	8584 <memory_fastest_copy_while_10_words$>

0000859c <memory_fastest_copy_exit_10_words$>:
    859c:	e3520004 	cmp	r2, #4
    85a0:	9a000003 	bls	85b4 <memory_fastest_copy_exit_1_word$>
    85a4:	e2522004 	subs	r2, r2, #4
    85a8:	e8b00008 	ldm	r0!, {r3}
    85ac:	e8a10008 	stmia	r1!, {r3}
    85b0:	eafffff9 	b	859c <memory_fastest_copy_exit_10_words$>

000085b4 <memory_fastest_copy_exit_1_word$>:
    85b4:	e3520001 	cmp	r2, #1
    85b8:	9a000003 	bls	85cc <memory_fastest_copy_exit_1_byte$>
    85bc:	e2522001 	subs	r2, r2, #1
    85c0:	e4d03001 	ldrb	r3, [r0], #1
    85c4:	e4c13001 	strb	r3, [r1], #1
    85c8:	eafffff9 	b	85b4 <memory_fastest_copy_exit_1_word$>

000085cc <memory_fastest_copy_exit_1_byte$>:
    85cc:	e8bd9ff0 	pop	{r4, r5, r6, r7, r8, r9, sl, fp, ip, pc}

000085d0 <memory_fast_copy>:
    85d0:	e92d5ff0 	push	{r4, r5, r6, r7, r8, r9, sl, fp, ip, lr}

000085d4 <memory_fast_copy_while$>:
    85d4:	e2522028 	subs	r2, r2, #40	; 0x28
    85d8:	9a000002 	bls	85e8 <memory_fast_copy_exit$>
    85dc:	e8b01ff8 	ldm	r0!, {r3, r4, r5, r6, r7, r8, r9, sl, fp, ip}
    85e0:	e8a11ff8 	stmia	r1!, {r3, r4, r5, r6, r7, r8, r9, sl, fp, ip}
    85e4:	eafffffa 	b	85d4 <memory_fast_copy_while$>

000085e8 <memory_fast_copy_exit$>:
    85e8:	e1a00002 	mov	r0, r2
    85ec:	e8bd9ff0 	pop	{r4, r5, r6, r7, r8, r9, sl, fp, ip, pc}

000085f0 <elem_idx>:
    85f0:	e52db004 	push	{fp}		; (str fp, [sp, #-4]!)
    85f4:	e28db000 	add	fp, sp, #0
    85f8:	e24dd00c 	sub	sp, sp, #12
    85fc:	e50b0008 	str	r0, [fp, #-8]
    8600:	e51b3008 	ldr	r3, [fp, #-8]
    8604:	e1a032a3 	lsr	r3, r3, #5
    8608:	e1a00003 	mov	r0, r3
    860c:	e24bd000 	sub	sp, fp, #0
    8610:	e49db004 	pop	{fp}		; (ldr fp, [sp], #4)
    8614:	e12fff1e 	bx	lr

00008618 <bit_mask>:
    8618:	e52db004 	push	{fp}		; (str fp, [sp, #-4]!)
    861c:	e28db000 	add	fp, sp, #0
    8620:	e24dd00c 	sub	sp, sp, #12
    8624:	e50b0008 	str	r0, [fp, #-8]
    8628:	e51b3008 	ldr	r3, [fp, #-8]
    862c:	e203301f 	and	r3, r3, #31
    8630:	e3a02001 	mov	r2, #1
    8634:	e1a03312 	lsl	r3, r2, r3
    8638:	e1a00003 	mov	r0, r3
    863c:	e24bd000 	sub	sp, fp, #0
    8640:	e49db004 	pop	{fp}		; (ldr fp, [sp], #4)
    8644:	e12fff1e 	bx	lr

00008648 <elem_cnt>:
    8648:	e52db004 	push	{fp}		; (str fp, [sp, #-4]!)
    864c:	e28db000 	add	fp, sp, #0
    8650:	e24dd00c 	sub	sp, sp, #12
    8654:	e50b0008 	str	r0, [fp, #-8]
    8658:	e51b3008 	ldr	r3, [fp, #-8]
    865c:	e283301f 	add	r3, r3, #31
    8660:	e1a032a3 	lsr	r3, r3, #5
    8664:	e1a00003 	mov	r0, r3
    8668:	e24bd000 	sub	sp, fp, #0
    866c:	e49db004 	pop	{fp}		; (ldr fp, [sp], #4)
    8670:	e12fff1e 	bx	lr

00008674 <byte_cnt>:
    8674:	e92d4800 	push	{fp, lr}
    8678:	e28db004 	add	fp, sp, #4
    867c:	e24dd008 	sub	sp, sp, #8
    8680:	e50b0008 	str	r0, [fp, #-8]
    8684:	e51b0008 	ldr	r0, [fp, #-8]
    8688:	ebffffee 	bl	8648 <elem_cnt>
    868c:	e1a03000 	mov	r3, r0
    8690:	e1a03103 	lsl	r3, r3, #2
    8694:	e1a00003 	mov	r0, r3
    8698:	e24bd004 	sub	sp, fp, #4
    869c:	e8bd8800 	pop	{fp, pc}

000086a0 <bitmap_create>:
    86a0:	e92d4800 	push	{fp, lr}
    86a4:	e28db004 	add	fp, sp, #4
    86a8:	e24dd010 	sub	sp, sp, #16
    86ac:	e50b0010 	str	r0, [fp, #-16]
    86b0:	e3a00008 	mov	r0, #8
    86b4:	eb00112a 	bl	cb64 <malloc>
    86b8:	e1a03000 	mov	r3, r0
    86bc:	e50b3008 	str	r3, [fp, #-8]
    86c0:	e51b3008 	ldr	r3, [fp, #-8]
    86c4:	e3530000 	cmp	r3, #0
    86c8:	0a000019 	beq	8734 <bitmap_create+0x94>
    86cc:	e51b3008 	ldr	r3, [fp, #-8]
    86d0:	e51b2010 	ldr	r2, [fp, #-16]
    86d4:	e5832000 	str	r2, [r3]
    86d8:	e51b0010 	ldr	r0, [fp, #-16]
    86dc:	ebffffe4 	bl	8674 <byte_cnt>
    86e0:	e1a03000 	mov	r3, r0
    86e4:	e1a00003 	mov	r0, r3
    86e8:	eb00111d 	bl	cb64 <malloc>
    86ec:	e1a03000 	mov	r3, r0
    86f0:	e1a02003 	mov	r2, r3
    86f4:	e51b3008 	ldr	r3, [fp, #-8]
    86f8:	e5832004 	str	r2, [r3, #4]
    86fc:	e51b3008 	ldr	r3, [fp, #-8]
    8700:	e5933004 	ldr	r3, [r3, #4]
    8704:	e3530000 	cmp	r3, #0
    8708:	1a000002 	bne	8718 <bitmap_create+0x78>
    870c:	e51b3010 	ldr	r3, [fp, #-16]
    8710:	e3530000 	cmp	r3, #0
    8714:	1a000004 	bne	872c <bitmap_create+0x8c>
    8718:	e51b0008 	ldr	r0, [fp, #-8]
    871c:	e3a01000 	mov	r1, #0
    8720:	eb0000a4 	bl	89b8 <bitmap_set_all>
    8724:	e51b3008 	ldr	r3, [fp, #-8]
    8728:	ea000002 	b	8738 <bitmap_create+0x98>
    872c:	e51b0008 	ldr	r0, [fp, #-8]
    8730:	eb001209 	bl	cf5c <free>
    8734:	e3a03000 	mov	r3, #0
    8738:	e1a00003 	mov	r0, r3
    873c:	e24bd004 	sub	sp, fp, #4
    8740:	e8bd8800 	pop	{fp, pc}

00008744 <bitmap_create_in_buf>:
    8744:	e92d4800 	push	{fp, lr}
    8748:	e28db004 	add	fp, sp, #4
    874c:	e24dd018 	sub	sp, sp, #24
    8750:	e50b0010 	str	r0, [fp, #-16]
    8754:	e50b1014 	str	r1, [fp, #-20]
    8758:	e50b2018 	str	r2, [fp, #-24]
    875c:	e51b3014 	ldr	r3, [fp, #-20]
    8760:	e50b3008 	str	r3, [fp, #-8]
    8764:	e51b0010 	ldr	r0, [fp, #-16]
    8768:	eb000019 	bl	87d4 <bitmap_buf_size>
    876c:	e1a02000 	mov	r2, r0
    8770:	e51b3018 	ldr	r3, [fp, #-24]
    8774:	e1520003 	cmp	r2, r3
    8778:	9a000004 	bls	8790 <bitmap_create_in_buf+0x4c>
    877c:	e59f0044 	ldr	r0, [pc, #68]	; 87c8 <bitmap_create_in_buf+0x84>
    8780:	e3a0104d 	mov	r1, #77	; 0x4d
    8784:	e59f2040 	ldr	r2, [pc, #64]	; 87cc <bitmap_create_in_buf+0x88>
    8788:	e59f3040 	ldr	r3, [pc, #64]	; 87d0 <bitmap_create_in_buf+0x8c>
    878c:	eb0002fe 	bl	938c <debug_panic>
    8790:	e51b3008 	ldr	r3, [fp, #-8]
    8794:	e51b2010 	ldr	r2, [fp, #-16]
    8798:	e5832000 	str	r2, [r3]
    879c:	e51b3008 	ldr	r3, [fp, #-8]
    87a0:	e2832008 	add	r2, r3, #8
    87a4:	e51b3008 	ldr	r3, [fp, #-8]
    87a8:	e5832004 	str	r2, [r3, #4]
    87ac:	e51b0008 	ldr	r0, [fp, #-8]
    87b0:	e3a01000 	mov	r1, #0
    87b4:	eb00007f 	bl	89b8 <bitmap_set_all>
    87b8:	e51b3008 	ldr	r3, [fp, #-8]
    87bc:	e1a00003 	mov	r0, r3
    87c0:	e24bd004 	sub	sp, fp, #4
    87c4:	e8bd8800 	pop	{fp, pc}
    87c8:	00015964 	.word	0x00015964
    87cc:	0001598c 	.word	0x0001598c
    87d0:	00015978 	.word	0x00015978

000087d4 <bitmap_buf_size>:
    87d4:	e92d4800 	push	{fp, lr}
    87d8:	e28db004 	add	fp, sp, #4
    87dc:	e24dd008 	sub	sp, sp, #8
    87e0:	e50b0008 	str	r0, [fp, #-8]
    87e4:	e51b0008 	ldr	r0, [fp, #-8]
    87e8:	ebffffa1 	bl	8674 <byte_cnt>
    87ec:	e1a03000 	mov	r3, r0
    87f0:	e2833008 	add	r3, r3, #8
    87f4:	e1a00003 	mov	r0, r3
    87f8:	e24bd004 	sub	sp, fp, #4
    87fc:	e8bd8800 	pop	{fp, pc}

00008800 <bitmap_destroy>:
    8800:	e92d4800 	push	{fp, lr}
    8804:	e28db004 	add	fp, sp, #4
    8808:	e24dd008 	sub	sp, sp, #8
    880c:	e50b0008 	str	r0, [fp, #-8]
    8810:	e51b3008 	ldr	r3, [fp, #-8]
    8814:	e3530000 	cmp	r3, #0
    8818:	0a000005 	beq	8834 <bitmap_destroy+0x34>
    881c:	e51b3008 	ldr	r3, [fp, #-8]
    8820:	e5933004 	ldr	r3, [r3, #4]
    8824:	e1a00003 	mov	r0, r3
    8828:	eb0011cb 	bl	cf5c <free>
    882c:	e51b0008 	ldr	r0, [fp, #-8]
    8830:	eb0011c9 	bl	cf5c <free>
    8834:	e24bd004 	sub	sp, fp, #4
    8838:	e8bd8800 	pop	{fp, pc}

0000883c <bitmap_size>:
    883c:	e52db004 	push	{fp}		; (str fp, [sp, #-4]!)
    8840:	e28db000 	add	fp, sp, #0
    8844:	e24dd00c 	sub	sp, sp, #12
    8848:	e50b0008 	str	r0, [fp, #-8]
    884c:	e51b3008 	ldr	r3, [fp, #-8]
    8850:	e5933000 	ldr	r3, [r3]
    8854:	e1a00003 	mov	r0, r3
    8858:	e24bd000 	sub	sp, fp, #0
    885c:	e49db004 	pop	{fp}		; (ldr fp, [sp], #4)
    8860:	e12fff1e 	bx	lr

00008864 <bitmap_set>:
    8864:	e92d4800 	push	{fp, lr}
    8868:	e28db004 	add	fp, sp, #4
    886c:	e24dd010 	sub	sp, sp, #16
    8870:	e50b0008 	str	r0, [fp, #-8]
    8874:	e50b100c 	str	r1, [fp, #-12]
    8878:	e1a03002 	mov	r3, r2
    887c:	e54b300d 	strb	r3, [fp, #-13]
    8880:	e51b3008 	ldr	r3, [fp, #-8]
    8884:	e3530000 	cmp	r3, #0
    8888:	1a000004 	bne	88a0 <bitmap_set+0x3c>
    888c:	e59f0064 	ldr	r0, [pc, #100]	; 88f8 <bitmap_set+0x94>
    8890:	e3a0106f 	mov	r1, #111	; 0x6f
    8894:	e59f2060 	ldr	r2, [pc, #96]	; 88fc <bitmap_set+0x98>
    8898:	e59f3060 	ldr	r3, [pc, #96]	; 8900 <bitmap_set+0x9c>
    889c:	eb0002ba 	bl	938c <debug_panic>
    88a0:	e51b3008 	ldr	r3, [fp, #-8]
    88a4:	e5932000 	ldr	r2, [r3]
    88a8:	e51b300c 	ldr	r3, [fp, #-12]
    88ac:	e1520003 	cmp	r2, r3
    88b0:	8a000004 	bhi	88c8 <bitmap_set+0x64>
    88b4:	e59f003c 	ldr	r0, [pc, #60]	; 88f8 <bitmap_set+0x94>
    88b8:	e3a01070 	mov	r1, #112	; 0x70
    88bc:	e59f2038 	ldr	r2, [pc, #56]	; 88fc <bitmap_set+0x98>
    88c0:	e59f3038 	ldr	r3, [pc, #56]	; 8900 <bitmap_set+0x9c>
    88c4:	eb0002b0 	bl	938c <debug_panic>
    88c8:	e55b300d 	ldrb	r3, [fp, #-13]
    88cc:	e3530000 	cmp	r3, #0
    88d0:	0a000003 	beq	88e4 <bitmap_set+0x80>
    88d4:	e51b0008 	ldr	r0, [fp, #-8]
    88d8:	e51b100c 	ldr	r1, [fp, #-12]
    88dc:	eb00008b 	bl	8b10 <bitmap_mark>
    88e0:	ea000002 	b	88f0 <bitmap_set+0x8c>
    88e4:	e51b0008 	ldr	r0, [fp, #-8]
    88e8:	e51b100c 	ldr	r1, [fp, #-12]
    88ec:	eb0000a2 	bl	8b7c <bitmap_reset>
    88f0:	e24bd004 	sub	sp, fp, #4
    88f4:	e8bd8800 	pop	{fp, pc}
    88f8:	00015964 	.word	0x00015964
    88fc:	000159a4 	.word	0x000159a4
    8900:	00015978 	.word	0x00015978

00008904 <bitmap_test>:
    8904:	e92d4810 	push	{r4, fp, lr}
    8908:	e28db008 	add	fp, sp, #8
    890c:	e24dd00c 	sub	sp, sp, #12
    8910:	e50b0010 	str	r0, [fp, #-16]
    8914:	e50b1014 	str	r1, [fp, #-20]
    8918:	e51b3010 	ldr	r3, [fp, #-16]
    891c:	e3530000 	cmp	r3, #0
    8920:	1a000004 	bne	8938 <bitmap_test+0x34>
    8924:	e59f0080 	ldr	r0, [pc, #128]	; 89ac <bitmap_test+0xa8>
    8928:	e3a01079 	mov	r1, #121	; 0x79
    892c:	e59f207c 	ldr	r2, [pc, #124]	; 89b0 <bitmap_test+0xac>
    8930:	e59f307c 	ldr	r3, [pc, #124]	; 89b4 <bitmap_test+0xb0>
    8934:	eb000294 	bl	938c <debug_panic>
    8938:	e51b3010 	ldr	r3, [fp, #-16]
    893c:	e5932000 	ldr	r2, [r3]
    8940:	e51b3014 	ldr	r3, [fp, #-20]
    8944:	e1520003 	cmp	r2, r3
    8948:	8a000004 	bhi	8960 <bitmap_test+0x5c>
    894c:	e59f0058 	ldr	r0, [pc, #88]	; 89ac <bitmap_test+0xa8>
    8950:	e3a0107a 	mov	r1, #122	; 0x7a
    8954:	e59f2054 	ldr	r2, [pc, #84]	; 89b0 <bitmap_test+0xac>
    8958:	e59f3054 	ldr	r3, [pc, #84]	; 89b4 <bitmap_test+0xb0>
    895c:	eb00028a 	bl	938c <debug_panic>
    8960:	e51b3010 	ldr	r3, [fp, #-16]
    8964:	e5934004 	ldr	r4, [r3, #4]
    8968:	e51b0014 	ldr	r0, [fp, #-20]
    896c:	ebffff1f 	bl	85f0 <elem_idx>
    8970:	e1a03000 	mov	r3, r0
    8974:	e1a03103 	lsl	r3, r3, #2
    8978:	e0843003 	add	r3, r4, r3
    897c:	e5934000 	ldr	r4, [r3]
    8980:	e51b0014 	ldr	r0, [fp, #-20]
    8984:	ebffff23 	bl	8618 <bit_mask>
    8988:	e1a03000 	mov	r3, r0
    898c:	e0043003 	and	r3, r4, r3
    8990:	e3530000 	cmp	r3, #0
    8994:	03a03000 	moveq	r3, #0
    8998:	13a03001 	movne	r3, #1
    899c:	e6ef3073 	uxtb	r3, r3
    89a0:	e1a00003 	mov	r0, r3
    89a4:	e24bd008 	sub	sp, fp, #8
    89a8:	e8bd8810 	pop	{r4, fp, pc}
    89ac:	00015964 	.word	0x00015964
    89b0:	000159b0 	.word	0x000159b0
    89b4:	00015978 	.word	0x00015978

000089b8 <bitmap_set_all>:
    89b8:	e92d4800 	push	{fp, lr}
    89bc:	e28db004 	add	fp, sp, #4
    89c0:	e24dd008 	sub	sp, sp, #8
    89c4:	e50b0008 	str	r0, [fp, #-8]
    89c8:	e1a03001 	mov	r3, r1
    89cc:	e54b3009 	strb	r3, [fp, #-9]
    89d0:	e51b3008 	ldr	r3, [fp, #-8]
    89d4:	e3530000 	cmp	r3, #0
    89d8:	1a000004 	bne	89f0 <bitmap_set_all+0x38>
    89dc:	e59f0030 	ldr	r0, [pc, #48]	; 8a14 <bitmap_set_all+0x5c>
    89e0:	e3a01082 	mov	r1, #130	; 0x82
    89e4:	e59f202c 	ldr	r2, [pc, #44]	; 8a18 <bitmap_set_all+0x60>
    89e8:	e59f302c 	ldr	r3, [pc, #44]	; 8a1c <bitmap_set_all+0x64>
    89ec:	eb000266 	bl	938c <debug_panic>
    89f0:	e51b0008 	ldr	r0, [fp, #-8]
    89f4:	ebffff90 	bl	883c <bitmap_size>
    89f8:	e1a02000 	mov	r2, r0
    89fc:	e55b3009 	ldrb	r3, [fp, #-9]
    8a00:	e51b0008 	ldr	r0, [fp, #-8]
    8a04:	e3a01000 	mov	r1, #0
    8a08:	eb000004 	bl	8a20 <bitmap_set_multiple>
    8a0c:	e24bd004 	sub	sp, fp, #4
    8a10:	e8bd8800 	pop	{fp, pc}
    8a14:	00015964 	.word	0x00015964
    8a18:	000159bc 	.word	0x000159bc
    8a1c:	00015978 	.word	0x00015978

00008a20 <bitmap_set_multiple>:
    8a20:	e92d4800 	push	{fp, lr}
    8a24:	e28db004 	add	fp, sp, #4
    8a28:	e24dd018 	sub	sp, sp, #24
    8a2c:	e50b0010 	str	r0, [fp, #-16]
    8a30:	e50b1014 	str	r1, [fp, #-20]
    8a34:	e50b2018 	str	r2, [fp, #-24]
    8a38:	e54b3019 	strb	r3, [fp, #-25]
    8a3c:	e51b3010 	ldr	r3, [fp, #-16]
    8a40:	e3530000 	cmp	r3, #0
    8a44:	1a000004 	bne	8a5c <bitmap_set_multiple+0x3c>
    8a48:	e59f00b4 	ldr	r0, [pc, #180]	; 8b04 <bitmap_set_multiple+0xe4>
    8a4c:	e3a0108b 	mov	r1, #139	; 0x8b
    8a50:	e59f20b0 	ldr	r2, [pc, #176]	; 8b08 <bitmap_set_multiple+0xe8>
    8a54:	e59f30b0 	ldr	r3, [pc, #176]	; 8b0c <bitmap_set_multiple+0xec>
    8a58:	eb00024b 	bl	938c <debug_panic>
    8a5c:	e51b3010 	ldr	r3, [fp, #-16]
    8a60:	e5932000 	ldr	r2, [r3]
    8a64:	e51b3014 	ldr	r3, [fp, #-20]
    8a68:	e1520003 	cmp	r2, r3
    8a6c:	2a000004 	bcs	8a84 <bitmap_set_multiple+0x64>
    8a70:	e59f008c 	ldr	r0, [pc, #140]	; 8b04 <bitmap_set_multiple+0xe4>
    8a74:	e3a0108c 	mov	r1, #140	; 0x8c
    8a78:	e59f2088 	ldr	r2, [pc, #136]	; 8b08 <bitmap_set_multiple+0xe8>
    8a7c:	e59f3088 	ldr	r3, [pc, #136]	; 8b0c <bitmap_set_multiple+0xec>
    8a80:	eb000241 	bl	938c <debug_panic>
    8a84:	e51b2014 	ldr	r2, [fp, #-20]
    8a88:	e51b3018 	ldr	r3, [fp, #-24]
    8a8c:	e0822003 	add	r2, r2, r3
    8a90:	e51b3010 	ldr	r3, [fp, #-16]
    8a94:	e5933000 	ldr	r3, [r3]
    8a98:	e1520003 	cmp	r2, r3
    8a9c:	9a000004 	bls	8ab4 <bitmap_set_multiple+0x94>
    8aa0:	e59f005c 	ldr	r0, [pc, #92]	; 8b04 <bitmap_set_multiple+0xe4>
    8aa4:	e3a0108d 	mov	r1, #141	; 0x8d
    8aa8:	e59f2058 	ldr	r2, [pc, #88]	; 8b08 <bitmap_set_multiple+0xe8>
    8aac:	e59f3058 	ldr	r3, [pc, #88]	; 8b0c <bitmap_set_multiple+0xec>
    8ab0:	eb000235 	bl	938c <debug_panic>
    8ab4:	e3a03000 	mov	r3, #0
    8ab8:	e50b3008 	str	r3, [fp, #-8]
    8abc:	ea00000a 	b	8aec <bitmap_set_multiple+0xcc>
    8ac0:	e51b2014 	ldr	r2, [fp, #-20]
    8ac4:	e51b3008 	ldr	r3, [fp, #-8]
    8ac8:	e0822003 	add	r2, r2, r3
    8acc:	e55b3019 	ldrb	r3, [fp, #-25]
    8ad0:	e51b0010 	ldr	r0, [fp, #-16]
    8ad4:	e1a01002 	mov	r1, r2
    8ad8:	e1a02003 	mov	r2, r3
    8adc:	ebffff60 	bl	8864 <bitmap_set>
    8ae0:	e51b3008 	ldr	r3, [fp, #-8]
    8ae4:	e2833001 	add	r3, r3, #1
    8ae8:	e50b3008 	str	r3, [fp, #-8]
    8aec:	e51b2008 	ldr	r2, [fp, #-8]
    8af0:	e51b3018 	ldr	r3, [fp, #-24]
    8af4:	e1520003 	cmp	r2, r3
    8af8:	3afffff0 	bcc	8ac0 <bitmap_set_multiple+0xa0>
    8afc:	e24bd004 	sub	sp, fp, #4
    8b00:	e8bd8800 	pop	{fp, pc}
    8b04:	00015964 	.word	0x00015964
    8b08:	000159cc 	.word	0x000159cc
    8b0c:	00015978 	.word	0x00015978

00008b10 <bitmap_mark>:
    8b10:	e92d4800 	push	{fp, lr}
    8b14:	e28db004 	add	fp, sp, #4
    8b18:	e24dd010 	sub	sp, sp, #16
    8b1c:	e50b0010 	str	r0, [fp, #-16]
    8b20:	e50b1014 	str	r1, [fp, #-20]
    8b24:	e51b0014 	ldr	r0, [fp, #-20]
    8b28:	ebfffeb0 	bl	85f0 <elem_idx>
    8b2c:	e50b0008 	str	r0, [fp, #-8]
    8b30:	e51b0014 	ldr	r0, [fp, #-20]
    8b34:	ebfffeb7 	bl	8618 <bit_mask>
    8b38:	e50b000c 	str	r0, [fp, #-12]
    8b3c:	e51b3010 	ldr	r3, [fp, #-16]
    8b40:	e5932004 	ldr	r2, [r3, #4]
    8b44:	e51b3008 	ldr	r3, [fp, #-8]
    8b48:	e1a03103 	lsl	r3, r3, #2
    8b4c:	e0823003 	add	r3, r2, r3
    8b50:	e51b2010 	ldr	r2, [fp, #-16]
    8b54:	e5921004 	ldr	r1, [r2, #4]
    8b58:	e51b2008 	ldr	r2, [fp, #-8]
    8b5c:	e1a02102 	lsl	r2, r2, #2
    8b60:	e0812002 	add	r2, r1, r2
    8b64:	e5921000 	ldr	r1, [r2]
    8b68:	e51b200c 	ldr	r2, [fp, #-12]
    8b6c:	e1812002 	orr	r2, r1, r2
    8b70:	e5832000 	str	r2, [r3]
    8b74:	e24bd004 	sub	sp, fp, #4
    8b78:	e8bd8800 	pop	{fp, pc}

00008b7c <bitmap_reset>:
    8b7c:	e92d4800 	push	{fp, lr}
    8b80:	e28db004 	add	fp, sp, #4
    8b84:	e24dd010 	sub	sp, sp, #16
    8b88:	e50b0010 	str	r0, [fp, #-16]
    8b8c:	e50b1014 	str	r1, [fp, #-20]
    8b90:	e51b0014 	ldr	r0, [fp, #-20]
    8b94:	ebfffe95 	bl	85f0 <elem_idx>
    8b98:	e50b0008 	str	r0, [fp, #-8]
    8b9c:	e51b0014 	ldr	r0, [fp, #-20]
    8ba0:	ebfffe9c 	bl	8618 <bit_mask>
    8ba4:	e50b000c 	str	r0, [fp, #-12]
    8ba8:	e51b3010 	ldr	r3, [fp, #-16]
    8bac:	e5932004 	ldr	r2, [r3, #4]
    8bb0:	e51b3008 	ldr	r3, [fp, #-8]
    8bb4:	e1a03103 	lsl	r3, r3, #2
    8bb8:	e0823003 	add	r3, r2, r3
    8bbc:	e51b2010 	ldr	r2, [fp, #-16]
    8bc0:	e5921004 	ldr	r1, [r2, #4]
    8bc4:	e51b2008 	ldr	r2, [fp, #-8]
    8bc8:	e1a02102 	lsl	r2, r2, #2
    8bcc:	e0812002 	add	r2, r1, r2
    8bd0:	e5921000 	ldr	r1, [r2]
    8bd4:	e51b200c 	ldr	r2, [fp, #-12]
    8bd8:	e1e02002 	mvn	r2, r2
    8bdc:	e0012002 	and	r2, r1, r2
    8be0:	e5832000 	str	r2, [r3]
    8be4:	e24bd004 	sub	sp, fp, #4
    8be8:	e8bd8800 	pop	{fp, pc}

00008bec <bitmap_contains>:
    8bec:	e92d4800 	push	{fp, lr}
    8bf0:	e28db004 	add	fp, sp, #4
    8bf4:	e24dd018 	sub	sp, sp, #24
    8bf8:	e50b0010 	str	r0, [fp, #-16]
    8bfc:	e50b1014 	str	r1, [fp, #-20]
    8c00:	e50b2018 	str	r2, [fp, #-24]
    8c04:	e54b3019 	strb	r3, [fp, #-25]
    8c08:	e51b3010 	ldr	r3, [fp, #-16]
    8c0c:	e3530000 	cmp	r3, #0
    8c10:	1a000004 	bne	8c28 <bitmap_contains+0x3c>
    8c14:	e59f00cc 	ldr	r0, [pc, #204]	; 8ce8 <bitmap_contains+0xfc>
    8c18:	e3a010a6 	mov	r1, #166	; 0xa6
    8c1c:	e59f20c8 	ldr	r2, [pc, #200]	; 8cec <bitmap_contains+0x100>
    8c20:	e59f30c8 	ldr	r3, [pc, #200]	; 8cf0 <bitmap_contains+0x104>
    8c24:	eb0001d8 	bl	938c <debug_panic>
    8c28:	e51b3010 	ldr	r3, [fp, #-16]
    8c2c:	e5932000 	ldr	r2, [r3]
    8c30:	e51b3014 	ldr	r3, [fp, #-20]
    8c34:	e1520003 	cmp	r2, r3
    8c38:	2a000004 	bcs	8c50 <bitmap_contains+0x64>
    8c3c:	e59f00a4 	ldr	r0, [pc, #164]	; 8ce8 <bitmap_contains+0xfc>
    8c40:	e3a010a7 	mov	r1, #167	; 0xa7
    8c44:	e59f20a0 	ldr	r2, [pc, #160]	; 8cec <bitmap_contains+0x100>
    8c48:	e59f30a0 	ldr	r3, [pc, #160]	; 8cf0 <bitmap_contains+0x104>
    8c4c:	eb0001ce 	bl	938c <debug_panic>
    8c50:	e51b2014 	ldr	r2, [fp, #-20]
    8c54:	e51b3018 	ldr	r3, [fp, #-24]
    8c58:	e0822003 	add	r2, r2, r3
    8c5c:	e51b3010 	ldr	r3, [fp, #-16]
    8c60:	e5933000 	ldr	r3, [r3]
    8c64:	e1520003 	cmp	r2, r3
    8c68:	9a000004 	bls	8c80 <bitmap_contains+0x94>
    8c6c:	e59f0074 	ldr	r0, [pc, #116]	; 8ce8 <bitmap_contains+0xfc>
    8c70:	e3a010a8 	mov	r1, #168	; 0xa8
    8c74:	e59f2070 	ldr	r2, [pc, #112]	; 8cec <bitmap_contains+0x100>
    8c78:	e59f3070 	ldr	r3, [pc, #112]	; 8cf0 <bitmap_contains+0x104>
    8c7c:	eb0001c2 	bl	938c <debug_panic>
    8c80:	e3a03000 	mov	r3, #0
    8c84:	e50b3008 	str	r3, [fp, #-8]
    8c88:	ea00000e 	b	8cc8 <bitmap_contains+0xdc>
    8c8c:	e51b2014 	ldr	r2, [fp, #-20]
    8c90:	e51b3008 	ldr	r3, [fp, #-8]
    8c94:	e0823003 	add	r3, r2, r3
    8c98:	e51b0010 	ldr	r0, [fp, #-16]
    8c9c:	e1a01003 	mov	r1, r3
    8ca0:	ebffff17 	bl	8904 <bitmap_test>
    8ca4:	e1a03000 	mov	r3, r0
    8ca8:	e55b2019 	ldrb	r2, [fp, #-25]
    8cac:	e1520003 	cmp	r2, r3
    8cb0:	1a000001 	bne	8cbc <bitmap_contains+0xd0>
    8cb4:	e3a03001 	mov	r3, #1
    8cb8:	ea000007 	b	8cdc <bitmap_contains+0xf0>
    8cbc:	e51b3008 	ldr	r3, [fp, #-8]
    8cc0:	e2833001 	add	r3, r3, #1
    8cc4:	e50b3008 	str	r3, [fp, #-8]
    8cc8:	e51b2008 	ldr	r2, [fp, #-8]
    8ccc:	e51b3018 	ldr	r3, [fp, #-24]
    8cd0:	e1520003 	cmp	r2, r3
    8cd4:	3affffec 	bcc	8c8c <bitmap_contains+0xa0>
    8cd8:	e3a03000 	mov	r3, #0
    8cdc:	e1a00003 	mov	r0, r3
    8ce0:	e24bd004 	sub	sp, fp, #4
    8ce4:	e8bd8800 	pop	{fp, pc}
    8ce8:	00015964 	.word	0x00015964
    8cec:	000159e0 	.word	0x000159e0
    8cf0:	00015978 	.word	0x00015978

00008cf4 <bitmap_any>:
    8cf4:	e92d4800 	push	{fp, lr}
    8cf8:	e28db004 	add	fp, sp, #4
    8cfc:	e24dd010 	sub	sp, sp, #16
    8d00:	e50b0008 	str	r0, [fp, #-8]
    8d04:	e50b100c 	str	r1, [fp, #-12]
    8d08:	e50b2010 	str	r2, [fp, #-16]
    8d0c:	e51b0008 	ldr	r0, [fp, #-8]
    8d10:	e51b100c 	ldr	r1, [fp, #-12]
    8d14:	e51b2010 	ldr	r2, [fp, #-16]
    8d18:	e3a03001 	mov	r3, #1
    8d1c:	ebffffb2 	bl	8bec <bitmap_contains>
    8d20:	e1a03000 	mov	r3, r0
    8d24:	e1a00003 	mov	r0, r3
    8d28:	e24bd004 	sub	sp, fp, #4
    8d2c:	e8bd8800 	pop	{fp, pc}

00008d30 <bitmap_none>:
    8d30:	e92d4800 	push	{fp, lr}
    8d34:	e28db004 	add	fp, sp, #4
    8d38:	e24dd010 	sub	sp, sp, #16
    8d3c:	e50b0008 	str	r0, [fp, #-8]
    8d40:	e50b100c 	str	r1, [fp, #-12]
    8d44:	e50b2010 	str	r2, [fp, #-16]
    8d48:	e51b0008 	ldr	r0, [fp, #-8]
    8d4c:	e51b100c 	ldr	r1, [fp, #-12]
    8d50:	e51b2010 	ldr	r2, [fp, #-16]
    8d54:	e3a03001 	mov	r3, #1
    8d58:	ebffffa3 	bl	8bec <bitmap_contains>
    8d5c:	e1a03000 	mov	r3, r0
    8d60:	e3530000 	cmp	r3, #0
    8d64:	03a03000 	moveq	r3, #0
    8d68:	13a03001 	movne	r3, #1
    8d6c:	e6ef3073 	uxtb	r3, r3
    8d70:	e2233001 	eor	r3, r3, #1
    8d74:	e6ef3073 	uxtb	r3, r3
    8d78:	e2033001 	and	r3, r3, #1
    8d7c:	e6ef3073 	uxtb	r3, r3
    8d80:	e1a00003 	mov	r0, r3
    8d84:	e24bd004 	sub	sp, fp, #4
    8d88:	e8bd8800 	pop	{fp, pc}

00008d8c <bitmap_all>:
    8d8c:	e92d4800 	push	{fp, lr}
    8d90:	e28db004 	add	fp, sp, #4
    8d94:	e24dd010 	sub	sp, sp, #16
    8d98:	e50b0008 	str	r0, [fp, #-8]
    8d9c:	e50b100c 	str	r1, [fp, #-12]
    8da0:	e50b2010 	str	r2, [fp, #-16]
    8da4:	e51b0008 	ldr	r0, [fp, #-8]
    8da8:	e51b100c 	ldr	r1, [fp, #-12]
    8dac:	e51b2010 	ldr	r2, [fp, #-16]
    8db0:	e3a03000 	mov	r3, #0
    8db4:	ebffff8c 	bl	8bec <bitmap_contains>
    8db8:	e1a03000 	mov	r3, r0
    8dbc:	e3530000 	cmp	r3, #0
    8dc0:	03a03000 	moveq	r3, #0
    8dc4:	13a03001 	movne	r3, #1
    8dc8:	e6ef3073 	uxtb	r3, r3
    8dcc:	e2233001 	eor	r3, r3, #1
    8dd0:	e6ef3073 	uxtb	r3, r3
    8dd4:	e2033001 	and	r3, r3, #1
    8dd8:	e6ef3073 	uxtb	r3, r3
    8ddc:	e1a00003 	mov	r0, r3
    8de0:	e24bd004 	sub	sp, fp, #4
    8de4:	e8bd8800 	pop	{fp, pc}

00008de8 <bitmap_scan>:
    8de8:	e92d4800 	push	{fp, lr}
    8dec:	e28db004 	add	fp, sp, #4
    8df0:	e24dd018 	sub	sp, sp, #24
    8df4:	e50b0010 	str	r0, [fp, #-16]
    8df8:	e50b1014 	str	r1, [fp, #-20]
    8dfc:	e50b2018 	str	r2, [fp, #-24]
    8e00:	e54b3019 	strb	r3, [fp, #-25]
    8e04:	e51b3010 	ldr	r3, [fp, #-16]
    8e08:	e3530000 	cmp	r3, #0
    8e0c:	1a000004 	bne	8e24 <bitmap_scan+0x3c>
    8e10:	e59f00e4 	ldr	r0, [pc, #228]	; 8efc <bitmap_scan+0x114>
    8e14:	e3a010c7 	mov	r1, #199	; 0xc7
    8e18:	e59f20e0 	ldr	r2, [pc, #224]	; 8f00 <bitmap_scan+0x118>
    8e1c:	e59f30e0 	ldr	r3, [pc, #224]	; 8f04 <bitmap_scan+0x11c>
    8e20:	eb000159 	bl	938c <debug_panic>
    8e24:	e51b3010 	ldr	r3, [fp, #-16]
    8e28:	e5932000 	ldr	r2, [r3]
    8e2c:	e51b3014 	ldr	r3, [fp, #-20]
    8e30:	e1520003 	cmp	r2, r3
    8e34:	2a000004 	bcs	8e4c <bitmap_scan+0x64>
    8e38:	e59f00bc 	ldr	r0, [pc, #188]	; 8efc <bitmap_scan+0x114>
    8e3c:	e3a010c8 	mov	r1, #200	; 0xc8
    8e40:	e59f20b8 	ldr	r2, [pc, #184]	; 8f00 <bitmap_scan+0x118>
    8e44:	e59f30b8 	ldr	r3, [pc, #184]	; 8f04 <bitmap_scan+0x11c>
    8e48:	eb00014f 	bl	938c <debug_panic>
    8e4c:	e51b3010 	ldr	r3, [fp, #-16]
    8e50:	e5932000 	ldr	r2, [r3]
    8e54:	e51b3018 	ldr	r3, [fp, #-24]
    8e58:	e1520003 	cmp	r2, r3
    8e5c:	3a000022 	bcc	8eec <bitmap_scan+0x104>
    8e60:	e51b3010 	ldr	r3, [fp, #-16]
    8e64:	e5932000 	ldr	r2, [r3]
    8e68:	e51b3018 	ldr	r3, [fp, #-24]
    8e6c:	e0633002 	rsb	r3, r3, r2
    8e70:	e50b300c 	str	r3, [fp, #-12]
    8e74:	e51b3014 	ldr	r3, [fp, #-20]
    8e78:	e50b3008 	str	r3, [fp, #-8]
    8e7c:	ea000016 	b	8edc <bitmap_scan+0xf4>
    8e80:	e55b3019 	ldrb	r3, [fp, #-25]
    8e84:	e3530000 	cmp	r3, #0
    8e88:	03a03000 	moveq	r3, #0
    8e8c:	13a03001 	movne	r3, #1
    8e90:	e6ef3073 	uxtb	r3, r3
    8e94:	e2233001 	eor	r3, r3, #1
    8e98:	e6ef3073 	uxtb	r3, r3
    8e9c:	e2033001 	and	r3, r3, #1
    8ea0:	e6ef3073 	uxtb	r3, r3
    8ea4:	e51b0010 	ldr	r0, [fp, #-16]
    8ea8:	e51b1008 	ldr	r1, [fp, #-8]
    8eac:	e51b2018 	ldr	r2, [fp, #-24]
    8eb0:	ebffff4d 	bl	8bec <bitmap_contains>
    8eb4:	e1a03000 	mov	r3, r0
    8eb8:	e2233001 	eor	r3, r3, #1
    8ebc:	e6ef3073 	uxtb	r3, r3
    8ec0:	e3530000 	cmp	r3, #0
    8ec4:	0a000001 	beq	8ed0 <bitmap_scan+0xe8>
    8ec8:	e51b3008 	ldr	r3, [fp, #-8]
    8ecc:	ea000007 	b	8ef0 <bitmap_scan+0x108>
    8ed0:	e51b3008 	ldr	r3, [fp, #-8]
    8ed4:	e2833001 	add	r3, r3, #1
    8ed8:	e50b3008 	str	r3, [fp, #-8]
    8edc:	e51b2008 	ldr	r2, [fp, #-8]
    8ee0:	e51b300c 	ldr	r3, [fp, #-12]
    8ee4:	e1520003 	cmp	r2, r3
    8ee8:	9affffe4 	bls	8e80 <bitmap_scan+0x98>
    8eec:	e3e03000 	mvn	r3, #0
    8ef0:	e1a00003 	mov	r0, r3
    8ef4:	e24bd004 	sub	sp, fp, #4
    8ef8:	e8bd8800 	pop	{fp, pc}
    8efc:	00015964 	.word	0x00015964
    8f00:	000159f0 	.word	0x000159f0
    8f04:	00015978 	.word	0x00015978

00008f08 <bitmap_scan_and_flip>:
    8f08:	e92d4800 	push	{fp, lr}
    8f0c:	e28db004 	add	fp, sp, #4
    8f10:	e24dd018 	sub	sp, sp, #24
    8f14:	e50b0010 	str	r0, [fp, #-16]
    8f18:	e50b1014 	str	r1, [fp, #-20]
    8f1c:	e50b2018 	str	r2, [fp, #-24]
    8f20:	e54b3019 	strb	r3, [fp, #-25]
    8f24:	e55b3019 	ldrb	r3, [fp, #-25]
    8f28:	e51b0010 	ldr	r0, [fp, #-16]
    8f2c:	e51b1014 	ldr	r1, [fp, #-20]
    8f30:	e51b2018 	ldr	r2, [fp, #-24]
    8f34:	ebffffab 	bl	8de8 <bitmap_scan>
    8f38:	e50b0008 	str	r0, [fp, #-8]
    8f3c:	e51b3008 	ldr	r3, [fp, #-8]
    8f40:	e3730001 	cmn	r3, #1
    8f44:	0a00000c 	beq	8f7c <bitmap_scan_and_flip+0x74>
    8f48:	e55b3019 	ldrb	r3, [fp, #-25]
    8f4c:	e3530000 	cmp	r3, #0
    8f50:	03a03000 	moveq	r3, #0
    8f54:	13a03001 	movne	r3, #1
    8f58:	e6ef3073 	uxtb	r3, r3
    8f5c:	e2233001 	eor	r3, r3, #1
    8f60:	e6ef3073 	uxtb	r3, r3
    8f64:	e2033001 	and	r3, r3, #1
    8f68:	e6ef3073 	uxtb	r3, r3
    8f6c:	e51b0010 	ldr	r0, [fp, #-16]
    8f70:	e51b1008 	ldr	r1, [fp, #-8]
    8f74:	e51b2018 	ldr	r2, [fp, #-24]
    8f78:	ebfffea8 	bl	8a20 <bitmap_set_multiple>
    8f7c:	e51b3008 	ldr	r3, [fp, #-8]
    8f80:	e1a00003 	mov	r0, r3
    8f84:	e24bd004 	sub	sp, fp, #4
    8f88:	e8bd8800 	pop	{fp, pc}

00008f8c <bitmap_dump>:
    8f8c:	e92d4810 	push	{r4, fp, lr}
    8f90:	e28db008 	add	fp, sp, #8
    8f94:	e24dd00c 	sub	sp, sp, #12
    8f98:	e50b0010 	str	r0, [fp, #-16]
    8f9c:	e51b3010 	ldr	r3, [fp, #-16]
    8fa0:	e5934004 	ldr	r4, [r3, #4]
    8fa4:	e51b3010 	ldr	r3, [fp, #-16]
    8fa8:	e5933000 	ldr	r3, [r3]
    8fac:	e1a00003 	mov	r0, r3
    8fb0:	ebfffdaf 	bl	8674 <byte_cnt>
    8fb4:	e1a03000 	mov	r3, r0
    8fb8:	e3a00000 	mov	r0, #0
    8fbc:	e1a01004 	mov	r1, r4
    8fc0:	e1a02003 	mov	r2, r3
    8fc4:	e3a03000 	mov	r3, #0
    8fc8:	eb0018fb 	bl	f3bc <hex_dump>
    8fcc:	e24bd008 	sub	sp, fp, #8
    8fd0:	e8bd8810 	pop	{r4, fp, pc}

00008fd4 <console_init>:
    8fd4:	e92d4800 	push	{fp, lr}
    8fd8:	e28db004 	add	fp, sp, #4
    8fdc:	e59f0010 	ldr	r0, [pc, #16]	; 8ff4 <console_init+0x20>
    8fe0:	eb001fc4 	bl	10ef8 <lock_init>
    8fe4:	e59f300c 	ldr	r3, [pc, #12]	; 8ff8 <console_init+0x24>
    8fe8:	e3a02001 	mov	r2, #1
    8fec:	e5c32000 	strb	r2, [r3]
    8ff0:	e8bd8800 	pop	{fp, pc}
    8ff4:	00019060 	.word	0x00019060
    8ff8:	00019078 	.word	0x00019078

00008ffc <console_panic>:
    8ffc:	e52db004 	push	{fp}		; (str fp, [sp, #-4]!)
    9000:	e28db000 	add	fp, sp, #0
    9004:	e59f3010 	ldr	r3, [pc, #16]	; 901c <console_panic+0x20>
    9008:	e3a02000 	mov	r2, #0
    900c:	e5c32000 	strb	r2, [r3]
    9010:	e24bd000 	sub	sp, fp, #0
    9014:	e49db004 	pop	{fp}		; (ldr fp, [sp], #4)
    9018:	e12fff1e 	bx	lr
    901c:	00019078 	.word	0x00019078

00009020 <console_print_stats>:
    9020:	e92d4800 	push	{fp, lr}
    9024:	e28db004 	add	fp, sp, #4
    9028:	e59f300c 	ldr	r3, [pc, #12]	; 903c <console_print_stats+0x1c>
    902c:	e1c320d0 	ldrd	r2, [r3]
    9030:	e59f0008 	ldr	r0, [pc, #8]	; 9040 <console_print_stats+0x20>
    9034:	eb001456 	bl	e194 <printf>
    9038:	e8bd8800 	pop	{fp, pc}
    903c:	00019080 	.word	0x00019080
    9040:	000159fc 	.word	0x000159fc

00009044 <acquire_console>:
    9044:	e92d4800 	push	{fp, lr}
    9048:	e28db004 	add	fp, sp, #4
    904c:	eb000cd2 	bl	c39c <interrupts_context>
    9050:	e1a03000 	mov	r3, r0
    9054:	e2233001 	eor	r3, r3, #1
    9058:	e6ef3073 	uxtb	r3, r3
    905c:	e3530000 	cmp	r3, #0
    9060:	0a000010 	beq	90a8 <acquire_console+0x64>
    9064:	e59f3040 	ldr	r3, [pc, #64]	; 90ac <acquire_console+0x68>
    9068:	e5d33000 	ldrb	r3, [r3]
    906c:	e3530000 	cmp	r3, #0
    9070:	0a00000c 	beq	90a8 <acquire_console+0x64>
    9074:	e59f0034 	ldr	r0, [pc, #52]	; 90b0 <acquire_console+0x6c>
    9078:	eb002035 	bl	11154 <lock_held_by_current_thread>
    907c:	e1a03000 	mov	r3, r0
    9080:	e3530000 	cmp	r3, #0
    9084:	0a000005 	beq	90a0 <acquire_console+0x5c>
    9088:	e59f3024 	ldr	r3, [pc, #36]	; 90b4 <acquire_console+0x70>
    908c:	e5933000 	ldr	r3, [r3]
    9090:	e2832001 	add	r2, r3, #1
    9094:	e59f3018 	ldr	r3, [pc, #24]	; 90b4 <acquire_console+0x70>
    9098:	e5832000 	str	r2, [r3]
    909c:	ea000001 	b	90a8 <acquire_console+0x64>
    90a0:	e59f0008 	ldr	r0, [pc, #8]	; 90b0 <acquire_console+0x6c>
    90a4:	eb001fac 	bl	10f5c <lock_acquire>
    90a8:	e8bd8800 	pop	{fp, pc}
    90ac:	00019078 	.word	0x00019078
    90b0:	00019060 	.word	0x00019060
    90b4:	0001907c 	.word	0x0001907c

000090b8 <release_console>:
    90b8:	e92d4800 	push	{fp, lr}
    90bc:	e28db004 	add	fp, sp, #4
    90c0:	eb000cb5 	bl	c39c <interrupts_context>
    90c4:	e1a03000 	mov	r3, r0
    90c8:	e2233001 	eor	r3, r3, #1
    90cc:	e6ef3073 	uxtb	r3, r3
    90d0:	e3530000 	cmp	r3, #0
    90d4:	0a00000f 	beq	9118 <release_console+0x60>
    90d8:	e59f303c 	ldr	r3, [pc, #60]	; 911c <release_console+0x64>
    90dc:	e5d33000 	ldrb	r3, [r3]
    90e0:	e3530000 	cmp	r3, #0
    90e4:	0a00000b 	beq	9118 <release_console+0x60>
    90e8:	e59f3030 	ldr	r3, [pc, #48]	; 9120 <release_console+0x68>
    90ec:	e5933000 	ldr	r3, [r3]
    90f0:	e3530000 	cmp	r3, #0
    90f4:	da000005 	ble	9110 <release_console+0x58>
    90f8:	e59f3020 	ldr	r3, [pc, #32]	; 9120 <release_console+0x68>
    90fc:	e5933000 	ldr	r3, [r3]
    9100:	e2432001 	sub	r2, r3, #1
    9104:	e59f3014 	ldr	r3, [pc, #20]	; 9120 <release_console+0x68>
    9108:	e5832000 	str	r2, [r3]
    910c:	ea000001 	b	9118 <release_console+0x60>
    9110:	e59f000c 	ldr	r0, [pc, #12]	; 9124 <release_console+0x6c>
    9114:	eb001fec 	bl	110cc <lock_release>
    9118:	e8bd8800 	pop	{fp, pc}
    911c:	00019078 	.word	0x00019078
    9120:	0001907c 	.word	0x0001907c
    9124:	00019060 	.word	0x00019060

00009128 <console_locked_by_current_thread>:
    9128:	e92d4800 	push	{fp, lr}
    912c:	e28db004 	add	fp, sp, #4
    9130:	eb000c99 	bl	c39c <interrupts_context>
    9134:	e1a03000 	mov	r3, r0
    9138:	e3530000 	cmp	r3, #0
    913c:	1a00000a 	bne	916c <console_locked_by_current_thread+0x44>
    9140:	e59f3040 	ldr	r3, [pc, #64]	; 9188 <console_locked_by_current_thread+0x60>
    9144:	e5d33000 	ldrb	r3, [r3]
    9148:	e2233001 	eor	r3, r3, #1
    914c:	e6ef3073 	uxtb	r3, r3
    9150:	e3530000 	cmp	r3, #0
    9154:	1a000004 	bne	916c <console_locked_by_current_thread+0x44>
    9158:	e59f002c 	ldr	r0, [pc, #44]	; 918c <console_locked_by_current_thread+0x64>
    915c:	eb001ffc 	bl	11154 <lock_held_by_current_thread>
    9160:	e1a03000 	mov	r3, r0
    9164:	e3530000 	cmp	r3, #0
    9168:	0a000001 	beq	9174 <console_locked_by_current_thread+0x4c>
    916c:	e3a03001 	mov	r3, #1
    9170:	ea000000 	b	9178 <console_locked_by_current_thread+0x50>
    9174:	e3a03000 	mov	r3, #0
    9178:	e2033001 	and	r3, r3, #1
    917c:	e6ef3073 	uxtb	r3, r3
    9180:	e1a00003 	mov	r0, r3
    9184:	e8bd8800 	pop	{fp, pc}
    9188:	00019078 	.word	0x00019078
    918c:	00019060 	.word	0x00019060

00009190 <vprintf>:
    9190:	e92d4800 	push	{fp, lr}
    9194:	e28db004 	add	fp, sp, #4
    9198:	e24dd010 	sub	sp, sp, #16
    919c:	e50b0010 	str	r0, [fp, #-16]
    91a0:	e50b1014 	str	r1, [fp, #-20]
    91a4:	e3a03000 	mov	r3, #0
    91a8:	e50b3008 	str	r3, [fp, #-8]
    91ac:	ebffffa4 	bl	9044 <acquire_console>
    91b0:	e24b3008 	sub	r3, fp, #8
    91b4:	e51b0010 	ldr	r0, [fp, #-16]
    91b8:	e51b1014 	ldr	r1, [fp, #-20]
    91bc:	e59f2014 	ldr	r2, [pc, #20]	; 91d8 <vprintf+0x48>
    91c0:	eb001403 	bl	e1d4 <__vprintf>
    91c4:	ebffffbb 	bl	90b8 <release_console>
    91c8:	e51b3008 	ldr	r3, [fp, #-8]
    91cc:	e1a00003 	mov	r0, r3
    91d0:	e24bd004 	sub	sp, fp, #4
    91d4:	e8bd8800 	pop	{fp, pc}
    91d8:	000092c4 	.word	0x000092c4

000091dc <puts>:
    91dc:	e92d4800 	push	{fp, lr}
    91e0:	e28db004 	add	fp, sp, #4
    91e4:	e24dd008 	sub	sp, sp, #8
    91e8:	e50b0008 	str	r0, [fp, #-8]
    91ec:	ebffff94 	bl	9044 <acquire_console>
    91f0:	ea000005 	b	920c <puts+0x30>
    91f4:	e51b3008 	ldr	r3, [fp, #-8]
    91f8:	e2832001 	add	r2, r3, #1
    91fc:	e50b2008 	str	r2, [fp, #-8]
    9200:	e5d33000 	ldrb	r3, [r3]
    9204:	e1a00003 	mov	r0, r3
    9208:	eb00003f 	bl	930c <putchar_have_lock>
    920c:	e51b3008 	ldr	r3, [fp, #-8]
    9210:	e5d33000 	ldrb	r3, [r3]
    9214:	e3530000 	cmp	r3, #0
    9218:	1afffff5 	bne	91f4 <puts+0x18>
    921c:	e3a0000a 	mov	r0, #10
    9220:	eb000039 	bl	930c <putchar_have_lock>
    9224:	ebffffa3 	bl	90b8 <release_console>
    9228:	e3a03000 	mov	r3, #0
    922c:	e1a00003 	mov	r0, r3
    9230:	e24bd004 	sub	sp, fp, #4
    9234:	e8bd8800 	pop	{fp, pc}

00009238 <putbuf>:
    9238:	e92d4800 	push	{fp, lr}
    923c:	e28db004 	add	fp, sp, #4
    9240:	e24dd008 	sub	sp, sp, #8
    9244:	e50b0008 	str	r0, [fp, #-8]
    9248:	e50b100c 	str	r1, [fp, #-12]
    924c:	ebffff7c 	bl	9044 <acquire_console>
    9250:	ea000005 	b	926c <putbuf+0x34>
    9254:	e51b3008 	ldr	r3, [fp, #-8]
    9258:	e2832001 	add	r2, r3, #1
    925c:	e50b2008 	str	r2, [fp, #-8]
    9260:	e5d33000 	ldrb	r3, [r3]
    9264:	e1a00003 	mov	r0, r3
    9268:	eb000027 	bl	930c <putchar_have_lock>
    926c:	e51b300c 	ldr	r3, [fp, #-12]
    9270:	e2432001 	sub	r2, r3, #1
    9274:	e50b200c 	str	r2, [fp, #-12]
    9278:	e3530000 	cmp	r3, #0
    927c:	1afffff4 	bne	9254 <putbuf+0x1c>
    9280:	ebffff8c 	bl	90b8 <release_console>
    9284:	e24bd004 	sub	sp, fp, #4
    9288:	e8bd8800 	pop	{fp, pc}

0000928c <putchar>:
    928c:	e92d4800 	push	{fp, lr}
    9290:	e28db004 	add	fp, sp, #4
    9294:	e24dd008 	sub	sp, sp, #8
    9298:	e50b0008 	str	r0, [fp, #-8]
    929c:	ebffff68 	bl	9044 <acquire_console>
    92a0:	e51b3008 	ldr	r3, [fp, #-8]
    92a4:	e6ef3073 	uxtb	r3, r3
    92a8:	e1a00003 	mov	r0, r3
    92ac:	eb000016 	bl	930c <putchar_have_lock>
    92b0:	ebffff80 	bl	90b8 <release_console>
    92b4:	e51b3008 	ldr	r3, [fp, #-8]
    92b8:	e1a00003 	mov	r0, r3
    92bc:	e24bd004 	sub	sp, fp, #4
    92c0:	e8bd8800 	pop	{fp, pc}

000092c4 <vprintf_helper>:
    92c4:	e92d4800 	push	{fp, lr}
    92c8:	e28db004 	add	fp, sp, #4
    92cc:	e24dd010 	sub	sp, sp, #16
    92d0:	e1a03000 	mov	r3, r0
    92d4:	e50b1014 	str	r1, [fp, #-20]
    92d8:	e54b300d 	strb	r3, [fp, #-13]
    92dc:	e51b3014 	ldr	r3, [fp, #-20]
    92e0:	e50b3008 	str	r3, [fp, #-8]
    92e4:	e51b3008 	ldr	r3, [fp, #-8]
    92e8:	e5933000 	ldr	r3, [r3]
    92ec:	e2832001 	add	r2, r3, #1
    92f0:	e51b3008 	ldr	r3, [fp, #-8]
    92f4:	e5832000 	str	r2, [r3]
    92f8:	e55b300d 	ldrb	r3, [fp, #-13]
    92fc:	e1a00003 	mov	r0, r3
    9300:	eb000001 	bl	930c <putchar_have_lock>
    9304:	e24bd004 	sub	sp, fp, #4
    9308:	e8bd8800 	pop	{fp, pc}

0000930c <putchar_have_lock>:
    930c:	e92d4800 	push	{fp, lr}
    9310:	e28db004 	add	fp, sp, #4
    9314:	e24dd008 	sub	sp, sp, #8
    9318:	e1a03000 	mov	r3, r0
    931c:	e54b3005 	strb	r3, [fp, #-5]
    9320:	ebffff80 	bl	9128 <console_locked_by_current_thread>
    9324:	e1a03000 	mov	r3, r0
    9328:	e3530000 	cmp	r3, #0
    932c:	1a000004 	bne	9344 <putchar_have_lock+0x38>
    9330:	e59f0044 	ldr	r0, [pc, #68]	; 937c <putchar_have_lock+0x70>
    9334:	e3a010a0 	mov	r1, #160	; 0xa0
    9338:	e59f2040 	ldr	r2, [pc, #64]	; 9380 <putchar_have_lock+0x74>
    933c:	e59f3040 	ldr	r3, [pc, #64]	; 9384 <putchar_have_lock+0x78>
    9340:	eb000011 	bl	938c <debug_panic>
    9344:	e59f303c 	ldr	r3, [pc, #60]	; 9388 <putchar_have_lock+0x7c>
    9348:	e1c320d0 	ldrd	r2, [r3]
    934c:	e2922001 	adds	r2, r2, #1
    9350:	e2a33000 	adc	r3, r3, #0
    9354:	e59f102c 	ldr	r1, [pc, #44]	; 9388 <putchar_have_lock+0x7c>
    9358:	e1c120f0 	strd	r2, [r1]
    935c:	e55b3005 	ldrb	r3, [fp, #-5]
    9360:	e1a00003 	mov	r0, r3
    9364:	eb0011e2 	bl	daf4 <serial_putc>
    9368:	e55b3005 	ldrb	r3, [fp, #-5]
    936c:	e1a00003 	mov	r0, r3
    9370:	eb00268c 	bl	12da8 <video_putc>
    9374:	e24bd004 	sub	sp, fp, #4
    9378:	e8bd8800 	pop	{fp, pc}
    937c:	00015a20 	.word	0x00015a20
    9380:	00015a4c 	.word	0x00015a4c
    9384:	00015a38 	.word	0x00015a38
    9388:	00019080 	.word	0x00019080

0000938c <debug_panic>:
    938c:	e52d3004 	push	{r3}		; (str r3, [sp, #-4]!)
    9390:	e92d4800 	push	{fp, lr}
    9394:	e28db004 	add	fp, sp, #4
    9398:	e24dd01c 	sub	sp, sp, #28
    939c:	e50b0014 	str	r0, [fp, #-20]
    93a0:	e50b1018 	str	r1, [fp, #-24]
    93a4:	e50b201c 	str	r2, [fp, #-28]
    93a8:	eb000bc9 	bl	c2d4 <interrupts_disable>
    93ac:	e3a03b3e 	mov	r3, #63488	; 0xf800
    93b0:	e14b30ba 	strh	r3, [fp, #-10]
    93b4:	e15b30ba 	ldrh	r3, [fp, #-10]
    93b8:	e1a00003 	mov	r0, r3
    93bc:	ebfffb6c 	bl	8174 <SetForeColour>
    93c0:	e59f0034 	ldr	r0, [pc, #52]	; 93fc <debug_panic+0x70>
    93c4:	eb001372 	bl	e194 <printf>
    93c8:	e59f0030 	ldr	r0, [pc, #48]	; 9400 <debug_panic+0x74>
    93cc:	e51b1014 	ldr	r1, [fp, #-20]
    93d0:	eb00136f 	bl	e194 <printf>
    93d4:	e59f0028 	ldr	r0, [pc, #40]	; 9404 <debug_panic+0x78>
    93d8:	e51b1018 	ldr	r1, [fp, #-24]
    93dc:	eb00136c 	bl	e194 <printf>
    93e0:	e59f0020 	ldr	r0, [pc, #32]	; 9408 <debug_panic+0x7c>
    93e4:	e51b101c 	ldr	r1, [fp, #-28]
    93e8:	eb001369 	bl	e194 <printf>
    93ec:	e59f0018 	ldr	r0, [pc, #24]	; 940c <debug_panic+0x80>
    93f0:	e59b1004 	ldr	r1, [fp, #4]
    93f4:	eb001366 	bl	e194 <printf>
    93f8:	eafffffe 	b	93f8 <debug_panic+0x6c>
    93fc:	00015a60 	.word	0x00015a60
    9400:	00015a74 	.word	0x00015a74
    9404:	00015a80 	.word	0x00015a80
    9408:	00015a8c 	.word	0x00015a8c
    940c:	00015a9c 	.word	0x00015a9c

00009410 <debug_print_bits_int>:
    9410:	e92d4800 	push	{fp, lr}
    9414:	e28db004 	add	fp, sp, #4
    9418:	e24dd018 	sub	sp, sp, #24
    941c:	e50b0018 	str	r0, [fp, #-24]
    9420:	e3a0301f 	mov	r3, #31
    9424:	e50b3008 	str	r3, [fp, #-8]
    9428:	ea000012 	b	9478 <debug_print_bits_int+0x68>
    942c:	e3a02001 	mov	r2, #1
    9430:	e51b3008 	ldr	r3, [fp, #-8]
    9434:	e1a03312 	lsl	r3, r2, r3
    9438:	e50b300c 	str	r3, [fp, #-12]
    943c:	e51b2018 	ldr	r2, [fp, #-24]
    9440:	e51b300c 	ldr	r3, [fp, #-12]
    9444:	e0023003 	and	r3, r2, r3
    9448:	e50b3010 	str	r3, [fp, #-16]
    944c:	e51b3010 	ldr	r3, [fp, #-16]
    9450:	e3530000 	cmp	r3, #0
    9454:	0a000002 	beq	9464 <debug_print_bits_int+0x54>
    9458:	e3a00031 	mov	r0, #49	; 0x31
    945c:	ebffff8a 	bl	928c <putchar>
    9460:	ea000001 	b	946c <debug_print_bits_int+0x5c>
    9464:	e3a00030 	mov	r0, #48	; 0x30
    9468:	ebffff87 	bl	928c <putchar>
    946c:	e51b3008 	ldr	r3, [fp, #-8]
    9470:	e2433001 	sub	r3, r3, #1
    9474:	e50b3008 	str	r3, [fp, #-8]
    9478:	e51b3008 	ldr	r3, [fp, #-8]
    947c:	e3530000 	cmp	r3, #0
    9480:	aaffffe9 	bge	942c <debug_print_bits_int+0x1c>
    9484:	e24bd004 	sub	sp, fp, #4
    9488:	e8bd8800 	pop	{fp, pc}

0000948c <abort>:
    948c:	e92d4800 	push	{fp, lr}
    9490:	e28db004 	add	fp, sp, #4
    9494:	e59f000c 	ldr	r0, [pc, #12]	; 94a8 <abort+0x1c>
    9498:	e3a01036 	mov	r1, #54	; 0x36
    949c:	e59f2008 	ldr	r2, [pc, #8]	; 94ac <abort+0x20>
    94a0:	e59f3008 	ldr	r3, [pc, #8]	; 94b0 <abort+0x24>
    94a4:	ebffffb8 	bl	938c <debug_panic>
    94a8:	00015aac 	.word	0x00015aac
    94ac:	00015ac8 	.word	0x00015ac8
    94b0:	00015ab8 	.word	0x00015ab8

000094b4 <framebuffer_init>:
    94b4:	e92d4800 	push	{fp, lr}
    94b8:	e28db004 	add	fp, sp, #4
    94bc:	e24dd008 	sub	sp, sp, #8
    94c0:	e3a00e32 	mov	r0, #800	; 0x320
    94c4:	e3a01e1e 	mov	r1, #480	; 0x1e0
    94c8:	e3a02010 	mov	r2, #16
    94cc:	ebfffb86 	bl	82ec <InitialiseFrameBuffer>
    94d0:	e50b0008 	str	r0, [fp, #-8]
    94d4:	e51b3008 	ldr	r3, [fp, #-8]
    94d8:	e3530000 	cmp	r3, #0
    94dc:	1a000006 	bne	94fc <framebuffer_init+0x48>
    94e0:	e3a00010 	mov	r0, #16
    94e4:	e3a01001 	mov	r1, #1
    94e8:	eb000007 	bl	950c <gpio_enable_function>
    94ec:	e3a00010 	mov	r0, #16
    94f0:	e3a01000 	mov	r1, #0
    94f4:	eb00000e 	bl	9534 <gpio_set_register>
    94f8:	eafffffe 	b	94f8 <framebuffer_init+0x44>
    94fc:	e51b0008 	ldr	r0, [fp, #-8]
    9500:	ebfffb24 	bl	8198 <SetGraphicsAddress>
    9504:	e24bd004 	sub	sp, fp, #4
    9508:	e8bd8800 	pop	{fp, pc}

0000950c <gpio_enable_function>:
    950c:	e92d4800 	push	{fp, lr}
    9510:	e28db004 	add	fp, sp, #4
    9514:	e24dd008 	sub	sp, sp, #8
    9518:	e50b0008 	str	r0, [fp, #-8]
    951c:	e50b100c 	str	r1, [fp, #-12]
    9520:	e51b0008 	ldr	r0, [fp, #-8]
    9524:	e51b100c 	ldr	r1, [fp, #-12]
    9528:	ebfffb89 	bl	8354 <SetGpioFunction>
    952c:	e24bd004 	sub	sp, fp, #4
    9530:	e8bd8800 	pop	{fp, pc}

00009534 <gpio_set_register>:
    9534:	e92d4800 	push	{fp, lr}
    9538:	e28db004 	add	fp, sp, #4
    953c:	e24dd008 	sub	sp, sp, #8
    9540:	e50b0008 	str	r0, [fp, #-8]
    9544:	e50b100c 	str	r1, [fp, #-12]
    9548:	e51b0008 	ldr	r0, [fp, #-8]
    954c:	e51b100c 	ldr	r1, [fp, #-12]
    9550:	ebfffb93 	bl	83a4 <SetGpio>
    9554:	e24bd004 	sub	sp, fp, #4
    9558:	e8bd8800 	pop	{fp, pc}

0000955c <hash_init>:
    955c:	e92d4800 	push	{fp, lr}
    9560:	e28db004 	add	fp, sp, #4
    9564:	e24dd010 	sub	sp, sp, #16
    9568:	e50b0008 	str	r0, [fp, #-8]
    956c:	e50b100c 	str	r1, [fp, #-12]
    9570:	e50b2010 	str	r2, [fp, #-16]
    9574:	e50b3014 	str	r3, [fp, #-20]
    9578:	e51b3008 	ldr	r3, [fp, #-8]
    957c:	e3a02000 	mov	r2, #0
    9580:	e5832000 	str	r2, [r3]
    9584:	e51b3008 	ldr	r3, [fp, #-8]
    9588:	e3a02004 	mov	r2, #4
    958c:	e5832004 	str	r2, [r3, #4]
    9590:	e51b3008 	ldr	r3, [fp, #-8]
    9594:	e5933004 	ldr	r3, [r3, #4]
    9598:	e1a03203 	lsl	r3, r3, #4
    959c:	e1a00003 	mov	r0, r3
    95a0:	eb000d6f 	bl	cb64 <malloc>
    95a4:	e1a03000 	mov	r3, r0
    95a8:	e1a02003 	mov	r2, r3
    95ac:	e51b3008 	ldr	r3, [fp, #-8]
    95b0:	e5832008 	str	r2, [r3, #8]
    95b4:	e51b3008 	ldr	r3, [fp, #-8]
    95b8:	e51b200c 	ldr	r2, [fp, #-12]
    95bc:	e583200c 	str	r2, [r3, #12]
    95c0:	e51b3008 	ldr	r3, [fp, #-8]
    95c4:	e51b2010 	ldr	r2, [fp, #-16]
    95c8:	e5832010 	str	r2, [r3, #16]
    95cc:	e51b3008 	ldr	r3, [fp, #-8]
    95d0:	e51b2014 	ldr	r2, [fp, #-20]
    95d4:	e5832014 	str	r2, [r3, #20]
    95d8:	e51b3008 	ldr	r3, [fp, #-8]
    95dc:	e5933008 	ldr	r3, [r3, #8]
    95e0:	e3530000 	cmp	r3, #0
    95e4:	0a000004 	beq	95fc <hash_init+0xa0>
    95e8:	e51b0008 	ldr	r0, [fp, #-8]
    95ec:	e3a01000 	mov	r1, #0
    95f0:	eb000005 	bl	960c <hash_clear>
    95f4:	e3a03001 	mov	r3, #1
    95f8:	ea000000 	b	9600 <hash_init+0xa4>
    95fc:	e3a03000 	mov	r3, #0
    9600:	e1a00003 	mov	r0, r3
    9604:	e24bd004 	sub	sp, fp, #4
    9608:	e8bd8800 	pop	{fp, pc}

0000960c <hash_clear>:
    960c:	e92d4800 	push	{fp, lr}
    9610:	e28db004 	add	fp, sp, #4
    9614:	e24dd018 	sub	sp, sp, #24
    9618:	e50b0018 	str	r0, [fp, #-24]
    961c:	e50b101c 	str	r1, [fp, #-28]
    9620:	e3a03000 	mov	r3, #0
    9624:	e50b3008 	str	r3, [fp, #-8]
    9628:	ea000022 	b	96b8 <hash_clear+0xac>
    962c:	e51b3018 	ldr	r3, [fp, #-24]
    9630:	e5932008 	ldr	r2, [r3, #8]
    9634:	e51b3008 	ldr	r3, [fp, #-8]
    9638:	e1a03203 	lsl	r3, r3, #4
    963c:	e0823003 	add	r3, r2, r3
    9640:	e50b300c 	str	r3, [fp, #-12]
    9644:	e51b301c 	ldr	r3, [fp, #-28]
    9648:	e3530000 	cmp	r3, #0
    964c:	0a000014 	beq	96a4 <hash_clear+0x98>
    9650:	ea00000c 	b	9688 <hash_clear+0x7c>
    9654:	e51b000c 	ldr	r0, [fp, #-12]
    9658:	eb0007a4 	bl	b4f0 <list_pop_front>
    965c:	e50b0010 	str	r0, [fp, #-16]
    9660:	e51b3010 	ldr	r3, [fp, #-16]
    9664:	e2833004 	add	r3, r3, #4
    9668:	e2433004 	sub	r3, r3, #4
    966c:	e50b3014 	str	r3, [fp, #-20]
    9670:	e51b3018 	ldr	r3, [fp, #-24]
    9674:	e5932014 	ldr	r2, [r3, #20]
    9678:	e51b301c 	ldr	r3, [fp, #-28]
    967c:	e51b0014 	ldr	r0, [fp, #-20]
    9680:	e1a01002 	mov	r1, r2
    9684:	e12fff33 	blx	r3
    9688:	e51b000c 	ldr	r0, [fp, #-12]
    968c:	eb0007fc 	bl	b684 <list_empty>
    9690:	e1a03000 	mov	r3, r0
    9694:	e2233001 	eor	r3, r3, #1
    9698:	e6ef3073 	uxtb	r3, r3
    969c:	e3530000 	cmp	r3, #0
    96a0:	1affffeb 	bne	9654 <hash_clear+0x48>
    96a4:	e51b000c 	ldr	r0, [fp, #-12]
    96a8:	eb00060f 	bl	aeec <list_init>
    96ac:	e51b3008 	ldr	r3, [fp, #-8]
    96b0:	e2833001 	add	r3, r3, #1
    96b4:	e50b3008 	str	r3, [fp, #-8]
    96b8:	e51b3018 	ldr	r3, [fp, #-24]
    96bc:	e5932004 	ldr	r2, [r3, #4]
    96c0:	e51b3008 	ldr	r3, [fp, #-8]
    96c4:	e1520003 	cmp	r2, r3
    96c8:	8affffd7 	bhi	962c <hash_clear+0x20>
    96cc:	e51b3018 	ldr	r3, [fp, #-24]
    96d0:	e3a02000 	mov	r2, #0
    96d4:	e5832000 	str	r2, [r3]
    96d8:	e24bd004 	sub	sp, fp, #4
    96dc:	e8bd8800 	pop	{fp, pc}

000096e0 <hash_destroy>:
    96e0:	e92d4800 	push	{fp, lr}
    96e4:	e28db004 	add	fp, sp, #4
    96e8:	e24dd008 	sub	sp, sp, #8
    96ec:	e50b0008 	str	r0, [fp, #-8]
    96f0:	e50b100c 	str	r1, [fp, #-12]
    96f4:	e51b300c 	ldr	r3, [fp, #-12]
    96f8:	e3530000 	cmp	r3, #0
    96fc:	0a000002 	beq	970c <hash_destroy+0x2c>
    9700:	e51b0008 	ldr	r0, [fp, #-8]
    9704:	e51b100c 	ldr	r1, [fp, #-12]
    9708:	ebffffbf 	bl	960c <hash_clear>
    970c:	e51b3008 	ldr	r3, [fp, #-8]
    9710:	e5933008 	ldr	r3, [r3, #8]
    9714:	e1a00003 	mov	r0, r3
    9718:	eb000e0f 	bl	cf5c <free>
    971c:	e24bd004 	sub	sp, fp, #4
    9720:	e8bd8800 	pop	{fp, pc}

00009724 <hash_insert>:
    9724:	e92d4800 	push	{fp, lr}
    9728:	e28db004 	add	fp, sp, #4
    972c:	e24dd010 	sub	sp, sp, #16
    9730:	e50b0010 	str	r0, [fp, #-16]
    9734:	e50b1014 	str	r1, [fp, #-20]
    9738:	e51b0010 	ldr	r0, [fp, #-16]
    973c:	e51b1014 	ldr	r1, [fp, #-20]
    9740:	eb000186 	bl	9d60 <find_bucket>
    9744:	e50b0008 	str	r0, [fp, #-8]
    9748:	e51b0010 	ldr	r0, [fp, #-16]
    974c:	e51b1008 	ldr	r1, [fp, #-8]
    9750:	e51b2014 	ldr	r2, [fp, #-20]
    9754:	eb00019b 	bl	9dc8 <find_elem>
    9758:	e50b000c 	str	r0, [fp, #-12]
    975c:	e51b300c 	ldr	r3, [fp, #-12]
    9760:	e3530000 	cmp	r3, #0
    9764:	1a000003 	bne	9778 <hash_insert+0x54>
    9768:	e51b0010 	ldr	r0, [fp, #-16]
    976c:	e51b1008 	ldr	r1, [fp, #-8]
    9770:	e51b2014 	ldr	r2, [fp, #-20]
    9774:	eb000262 	bl	a104 <insert_elem>
    9778:	e51b0010 	ldr	r0, [fp, #-16]
    977c:	eb0001e4 	bl	9f14 <rehash>
    9780:	e51b300c 	ldr	r3, [fp, #-12]
    9784:	e1a00003 	mov	r0, r3
    9788:	e24bd004 	sub	sp, fp, #4
    978c:	e8bd8800 	pop	{fp, pc}

00009790 <hash_replace>:
    9790:	e92d4800 	push	{fp, lr}
    9794:	e28db004 	add	fp, sp, #4
    9798:	e24dd010 	sub	sp, sp, #16
    979c:	e50b0010 	str	r0, [fp, #-16]
    97a0:	e50b1014 	str	r1, [fp, #-20]
    97a4:	e51b0010 	ldr	r0, [fp, #-16]
    97a8:	e51b1014 	ldr	r1, [fp, #-20]
    97ac:	eb00016b 	bl	9d60 <find_bucket>
    97b0:	e50b0008 	str	r0, [fp, #-8]
    97b4:	e51b0010 	ldr	r0, [fp, #-16]
    97b8:	e51b1008 	ldr	r1, [fp, #-8]
    97bc:	e51b2014 	ldr	r2, [fp, #-20]
    97c0:	eb000180 	bl	9dc8 <find_elem>
    97c4:	e50b000c 	str	r0, [fp, #-12]
    97c8:	e51b300c 	ldr	r3, [fp, #-12]
    97cc:	e3530000 	cmp	r3, #0
    97d0:	0a000002 	beq	97e0 <hash_replace+0x50>
    97d4:	e51b0010 	ldr	r0, [fp, #-16]
    97d8:	e51b100c 	ldr	r1, [fp, #-12]
    97dc:	eb000259 	bl	a148 <remove_elem>
    97e0:	e51b0010 	ldr	r0, [fp, #-16]
    97e4:	e51b1008 	ldr	r1, [fp, #-8]
    97e8:	e51b2014 	ldr	r2, [fp, #-20]
    97ec:	eb000244 	bl	a104 <insert_elem>
    97f0:	e51b0010 	ldr	r0, [fp, #-16]
    97f4:	eb0001c6 	bl	9f14 <rehash>
    97f8:	e51b300c 	ldr	r3, [fp, #-12]
    97fc:	e1a00003 	mov	r0, r3
    9800:	e24bd004 	sub	sp, fp, #4
    9804:	e8bd8800 	pop	{fp, pc}

00009808 <hash_find>:
    9808:	e92d4800 	push	{fp, lr}
    980c:	e28db004 	add	fp, sp, #4
    9810:	e24dd008 	sub	sp, sp, #8
    9814:	e50b0008 	str	r0, [fp, #-8]
    9818:	e50b100c 	str	r1, [fp, #-12]
    981c:	e51b0008 	ldr	r0, [fp, #-8]
    9820:	e51b100c 	ldr	r1, [fp, #-12]
    9824:	eb00014d 	bl	9d60 <find_bucket>
    9828:	e1a03000 	mov	r3, r0
    982c:	e51b0008 	ldr	r0, [fp, #-8]
    9830:	e1a01003 	mov	r1, r3
    9834:	e51b200c 	ldr	r2, [fp, #-12]
    9838:	eb000162 	bl	9dc8 <find_elem>
    983c:	e1a03000 	mov	r3, r0
    9840:	e1a00003 	mov	r0, r3
    9844:	e24bd004 	sub	sp, fp, #4
    9848:	e8bd8800 	pop	{fp, pc}

0000984c <hash_delete>:
    984c:	e92d4800 	push	{fp, lr}
    9850:	e28db004 	add	fp, sp, #4
    9854:	e24dd010 	sub	sp, sp, #16
    9858:	e50b0010 	str	r0, [fp, #-16]
    985c:	e50b1014 	str	r1, [fp, #-20]
    9860:	e51b0010 	ldr	r0, [fp, #-16]
    9864:	e51b1014 	ldr	r1, [fp, #-20]
    9868:	eb00013c 	bl	9d60 <find_bucket>
    986c:	e1a03000 	mov	r3, r0
    9870:	e51b0010 	ldr	r0, [fp, #-16]
    9874:	e1a01003 	mov	r1, r3
    9878:	e51b2014 	ldr	r2, [fp, #-20]
    987c:	eb000151 	bl	9dc8 <find_elem>
    9880:	e50b0008 	str	r0, [fp, #-8]
    9884:	e51b3008 	ldr	r3, [fp, #-8]
    9888:	e3530000 	cmp	r3, #0
    988c:	0a000004 	beq	98a4 <hash_delete+0x58>
    9890:	e51b0010 	ldr	r0, [fp, #-16]
    9894:	e51b1008 	ldr	r1, [fp, #-8]
    9898:	eb00022a 	bl	a148 <remove_elem>
    989c:	e51b0010 	ldr	r0, [fp, #-16]
    98a0:	eb00019b 	bl	9f14 <rehash>
    98a4:	e51b3008 	ldr	r3, [fp, #-8]
    98a8:	e1a00003 	mov	r0, r3
    98ac:	e24bd004 	sub	sp, fp, #4
    98b0:	e8bd8800 	pop	{fp, pc}

000098b4 <hash_apply>:
    98b4:	e92d4800 	push	{fp, lr}
    98b8:	e28db004 	add	fp, sp, #4
    98bc:	e24dd018 	sub	sp, sp, #24
    98c0:	e50b0018 	str	r0, [fp, #-24]
    98c4:	e50b101c 	str	r1, [fp, #-28]
    98c8:	e51b301c 	ldr	r3, [fp, #-28]
    98cc:	e3530000 	cmp	r3, #0
    98d0:	1a000004 	bne	98e8 <hash_apply+0x34>
    98d4:	e59f00b8 	ldr	r0, [pc, #184]	; 9994 <hash_apply+0xe0>
    98d8:	e3a010a7 	mov	r1, #167	; 0xa7
    98dc:	e59f20b4 	ldr	r2, [pc, #180]	; 9998 <hash_apply+0xe4>
    98e0:	e59f30b4 	ldr	r3, [pc, #180]	; 999c <hash_apply+0xe8>
    98e4:	ebfffea8 	bl	938c <debug_panic>
    98e8:	e3a03000 	mov	r3, #0
    98ec:	e50b3008 	str	r3, [fp, #-8]
    98f0:	ea000020 	b	9978 <hash_apply+0xc4>
    98f4:	e51b3018 	ldr	r3, [fp, #-24]
    98f8:	e5932008 	ldr	r2, [r3, #8]
    98fc:	e51b3008 	ldr	r3, [fp, #-8]
    9900:	e1a03203 	lsl	r3, r3, #4
    9904:	e0823003 	add	r3, r2, r3
    9908:	e50b3010 	str	r3, [fp, #-16]
    990c:	e51b0010 	ldr	r0, [fp, #-16]
    9910:	eb000593 	bl	af64 <list_begin>
    9914:	e50b000c 	str	r0, [fp, #-12]
    9918:	ea00000d 	b	9954 <hash_apply+0xa0>
    991c:	e51b000c 	ldr	r0, [fp, #-12]
    9920:	eb0005a3 	bl	afb4 <list_next>
    9924:	e50b0014 	str	r0, [fp, #-20]
    9928:	e51b300c 	ldr	r3, [fp, #-12]
    992c:	e2833004 	add	r3, r3, #4
    9930:	e2431004 	sub	r1, r3, #4
    9934:	e51b3018 	ldr	r3, [fp, #-24]
    9938:	e5932014 	ldr	r2, [r3, #20]
    993c:	e51b301c 	ldr	r3, [fp, #-28]
    9940:	e1a00001 	mov	r0, r1
    9944:	e1a01002 	mov	r1, r2
    9948:	e12fff33 	blx	r3
    994c:	e51b3014 	ldr	r3, [fp, #-20]
    9950:	e50b300c 	str	r3, [fp, #-12]
    9954:	e51b0010 	ldr	r0, [fp, #-16]
    9958:	eb0005b0 	bl	b020 <list_end>
    995c:	e1a02000 	mov	r2, r0
    9960:	e51b300c 	ldr	r3, [fp, #-12]
    9964:	e1520003 	cmp	r2, r3
    9968:	1affffeb 	bne	991c <hash_apply+0x68>
    996c:	e51b3008 	ldr	r3, [fp, #-8]
    9970:	e2833001 	add	r3, r3, #1
    9974:	e50b3008 	str	r3, [fp, #-8]
    9978:	e51b3018 	ldr	r3, [fp, #-24]
    997c:	e5932004 	ldr	r2, [r3, #4]
    9980:	e51b3008 	ldr	r3, [fp, #-8]
    9984:	e1520003 	cmp	r2, r3
    9988:	8affffd9 	bhi	98f4 <hash_apply+0x40>
    998c:	e24bd004 	sub	sp, fp, #4
    9990:	e8bd8800 	pop	{fp, pc}
    9994:	00015ad0 	.word	0x00015ad0
    9998:	00015af8 	.word	0x00015af8
    999c:	00015ae4 	.word	0x00015ae4

000099a0 <hash_first>:
    99a0:	e92d4800 	push	{fp, lr}
    99a4:	e28db004 	add	fp, sp, #4
    99a8:	e24dd008 	sub	sp, sp, #8
    99ac:	e50b0008 	str	r0, [fp, #-8]
    99b0:	e50b100c 	str	r1, [fp, #-12]
    99b4:	e51b3008 	ldr	r3, [fp, #-8]
    99b8:	e3530000 	cmp	r3, #0
    99bc:	1a000004 	bne	99d4 <hash_first+0x34>
    99c0:	e59f0078 	ldr	r0, [pc, #120]	; 9a40 <hash_first+0xa0>
    99c4:	e3a010ca 	mov	r1, #202	; 0xca
    99c8:	e59f2074 	ldr	r2, [pc, #116]	; 9a44 <hash_first+0xa4>
    99cc:	e59f3074 	ldr	r3, [pc, #116]	; 9a48 <hash_first+0xa8>
    99d0:	ebfffe6d 	bl	938c <debug_panic>
    99d4:	e51b300c 	ldr	r3, [fp, #-12]
    99d8:	e3530000 	cmp	r3, #0
    99dc:	1a000004 	bne	99f4 <hash_first+0x54>
    99e0:	e59f0058 	ldr	r0, [pc, #88]	; 9a40 <hash_first+0xa0>
    99e4:	e3a010cb 	mov	r1, #203	; 0xcb
    99e8:	e59f2054 	ldr	r2, [pc, #84]	; 9a44 <hash_first+0xa4>
    99ec:	e59f3054 	ldr	r3, [pc, #84]	; 9a48 <hash_first+0xa8>
    99f0:	ebfffe65 	bl	938c <debug_panic>
    99f4:	e51b3008 	ldr	r3, [fp, #-8]
    99f8:	e51b200c 	ldr	r2, [fp, #-12]
    99fc:	e5832000 	str	r2, [r3]
    9a00:	e51b3008 	ldr	r3, [fp, #-8]
    9a04:	e5933000 	ldr	r3, [r3]
    9a08:	e5932008 	ldr	r2, [r3, #8]
    9a0c:	e51b3008 	ldr	r3, [fp, #-8]
    9a10:	e5832004 	str	r2, [r3, #4]
    9a14:	e51b3008 	ldr	r3, [fp, #-8]
    9a18:	e5933004 	ldr	r3, [r3, #4]
    9a1c:	e1a00003 	mov	r0, r3
    9a20:	eb0005d4 	bl	b178 <list_head>
    9a24:	e1a03000 	mov	r3, r0
    9a28:	e2833004 	add	r3, r3, #4
    9a2c:	e2432004 	sub	r2, r3, #4
    9a30:	e51b3008 	ldr	r3, [fp, #-8]
    9a34:	e5832008 	str	r2, [r3, #8]
    9a38:	e24bd004 	sub	sp, fp, #4
    9a3c:	e8bd8800 	pop	{fp, pc}
    9a40:	00015ad0 	.word	0x00015ad0
    9a44:	00015b04 	.word	0x00015b04
    9a48:	00015ae4 	.word	0x00015ae4

00009a4c <hash_next>:
    9a4c:	e92d4810 	push	{r4, fp, lr}
    9a50:	e28db008 	add	fp, sp, #8
    9a54:	e24dd00c 	sub	sp, sp, #12
    9a58:	e50b0010 	str	r0, [fp, #-16]
    9a5c:	e51b3010 	ldr	r3, [fp, #-16]
    9a60:	e3530000 	cmp	r3, #0
    9a64:	1a000004 	bne	9a7c <hash_next+0x30>
    9a68:	e59f00ec 	ldr	r0, [pc, #236]	; 9b5c <hash_next+0x110>
    9a6c:	e3a010dd 	mov	r1, #221	; 0xdd
    9a70:	e59f20e8 	ldr	r2, [pc, #232]	; 9b60 <hash_next+0x114>
    9a74:	e59f30e8 	ldr	r3, [pc, #232]	; 9b64 <hash_next+0x118>
    9a78:	ebfffe43 	bl	938c <debug_panic>
    9a7c:	e51b3010 	ldr	r3, [fp, #-16]
    9a80:	e5933008 	ldr	r3, [r3, #8]
    9a84:	e1a00003 	mov	r0, r3
    9a88:	eb000549 	bl	afb4 <list_next>
    9a8c:	e1a03000 	mov	r3, r0
    9a90:	e2833004 	add	r3, r3, #4
    9a94:	e2432004 	sub	r2, r3, #4
    9a98:	e51b3010 	ldr	r3, [fp, #-16]
    9a9c:	e5832008 	str	r2, [r3, #8]
    9aa0:	ea00001d 	b	9b1c <hash_next+0xd0>
    9aa4:	e51b3010 	ldr	r3, [fp, #-16]
    9aa8:	e5933004 	ldr	r3, [r3, #4]
    9aac:	e2832010 	add	r2, r3, #16
    9ab0:	e51b3010 	ldr	r3, [fp, #-16]
    9ab4:	e5832004 	str	r2, [r3, #4]
    9ab8:	e51b3010 	ldr	r3, [fp, #-16]
    9abc:	e5932004 	ldr	r2, [r3, #4]
    9ac0:	e51b3010 	ldr	r3, [fp, #-16]
    9ac4:	e5933000 	ldr	r3, [r3]
    9ac8:	e5931008 	ldr	r1, [r3, #8]
    9acc:	e51b3010 	ldr	r3, [fp, #-16]
    9ad0:	e5933000 	ldr	r3, [r3]
    9ad4:	e5933004 	ldr	r3, [r3, #4]
    9ad8:	e1a03203 	lsl	r3, r3, #4
    9adc:	e0813003 	add	r3, r1, r3
    9ae0:	e1520003 	cmp	r2, r3
    9ae4:	3a000003 	bcc	9af8 <hash_next+0xac>
    9ae8:	e51b3010 	ldr	r3, [fp, #-16]
    9aec:	e3a02000 	mov	r2, #0
    9af0:	e5832008 	str	r2, [r3, #8]
    9af4:	ea000013 	b	9b48 <hash_next+0xfc>
    9af8:	e51b3010 	ldr	r3, [fp, #-16]
    9afc:	e5933004 	ldr	r3, [r3, #4]
    9b00:	e1a00003 	mov	r0, r3
    9b04:	eb000516 	bl	af64 <list_begin>
    9b08:	e1a03000 	mov	r3, r0
    9b0c:	e2833004 	add	r3, r3, #4
    9b10:	e2432004 	sub	r2, r3, #4
    9b14:	e51b3010 	ldr	r3, [fp, #-16]
    9b18:	e5832008 	str	r2, [r3, #8]
    9b1c:	e51b3010 	ldr	r3, [fp, #-16]
    9b20:	e5934008 	ldr	r4, [r3, #8]
    9b24:	e51b3010 	ldr	r3, [fp, #-16]
    9b28:	e5933004 	ldr	r3, [r3, #4]
    9b2c:	e1a00003 	mov	r0, r3
    9b30:	eb00053a 	bl	b020 <list_end>
    9b34:	e1a03000 	mov	r3, r0
    9b38:	e2833004 	add	r3, r3, #4
    9b3c:	e2433004 	sub	r3, r3, #4
    9b40:	e1540003 	cmp	r4, r3
    9b44:	0affffd6 	beq	9aa4 <hash_next+0x58>
    9b48:	e51b3010 	ldr	r3, [fp, #-16]
    9b4c:	e5933008 	ldr	r3, [r3, #8]
    9b50:	e1a00003 	mov	r0, r3
    9b54:	e24bd008 	sub	sp, fp, #8
    9b58:	e8bd8810 	pop	{r4, fp, pc}
    9b5c:	00015ad0 	.word	0x00015ad0
    9b60:	00015b10 	.word	0x00015b10
    9b64:	00015ae4 	.word	0x00015ae4

00009b68 <hash_cur>:
    9b68:	e52db004 	push	{fp}		; (str fp, [sp, #-4]!)
    9b6c:	e28db000 	add	fp, sp, #0
    9b70:	e24dd00c 	sub	sp, sp, #12
    9b74:	e50b0008 	str	r0, [fp, #-8]
    9b78:	e51b3008 	ldr	r3, [fp, #-8]
    9b7c:	e5933008 	ldr	r3, [r3, #8]
    9b80:	e1a00003 	mov	r0, r3
    9b84:	e24bd000 	sub	sp, fp, #0
    9b88:	e49db004 	pop	{fp}		; (ldr fp, [sp], #4)
    9b8c:	e12fff1e 	bx	lr

00009b90 <hash_size>:
    9b90:	e52db004 	push	{fp}		; (str fp, [sp, #-4]!)
    9b94:	e28db000 	add	fp, sp, #0
    9b98:	e24dd00c 	sub	sp, sp, #12
    9b9c:	e50b0008 	str	r0, [fp, #-8]
    9ba0:	e51b3008 	ldr	r3, [fp, #-8]
    9ba4:	e5933000 	ldr	r3, [r3]
    9ba8:	e1a00003 	mov	r0, r3
    9bac:	e24bd000 	sub	sp, fp, #0
    9bb0:	e49db004 	pop	{fp}		; (ldr fp, [sp], #4)
    9bb4:	e12fff1e 	bx	lr

00009bb8 <hash_empty>:
    9bb8:	e52db004 	push	{fp}		; (str fp, [sp, #-4]!)
    9bbc:	e28db000 	add	fp, sp, #0
    9bc0:	e24dd00c 	sub	sp, sp, #12
    9bc4:	e50b0008 	str	r0, [fp, #-8]
    9bc8:	e51b3008 	ldr	r3, [fp, #-8]
    9bcc:	e5933000 	ldr	r3, [r3]
    9bd0:	e3530000 	cmp	r3, #0
    9bd4:	13a03000 	movne	r3, #0
    9bd8:	03a03001 	moveq	r3, #1
    9bdc:	e6ef3073 	uxtb	r3, r3
    9be0:	e1a00003 	mov	r0, r3
    9be4:	e24bd000 	sub	sp, fp, #0
    9be8:	e49db004 	pop	{fp}		; (ldr fp, [sp], #4)
    9bec:	e12fff1e 	bx	lr

00009bf0 <hash_bytes>:
    9bf0:	e92d4800 	push	{fp, lr}
    9bf4:	e28db004 	add	fp, sp, #4
    9bf8:	e24dd010 	sub	sp, sp, #16
    9bfc:	e50b0010 	str	r0, [fp, #-16]
    9c00:	e50b1014 	str	r1, [fp, #-20]
    9c04:	e51b3010 	ldr	r3, [fp, #-16]
    9c08:	e50b3008 	str	r3, [fp, #-8]
    9c0c:	e51b3008 	ldr	r3, [fp, #-8]
    9c10:	e3530000 	cmp	r3, #0
    9c14:	1a000004 	bne	9c2c <hash_bytes+0x3c>
    9c18:	e59f0060 	ldr	r0, [pc, #96]	; 9c80 <hash_bytes+0x90>
    9c1c:	e3a01e11 	mov	r1, #272	; 0x110
    9c20:	e59f205c 	ldr	r2, [pc, #92]	; 9c84 <hash_bytes+0x94>
    9c24:	e59f305c 	ldr	r3, [pc, #92]	; 9c88 <hash_bytes+0x98>
    9c28:	ebfffdd7 	bl	938c <debug_panic>
    9c2c:	e59f3058 	ldr	r3, [pc, #88]	; 9c8c <hash_bytes+0x9c>
    9c30:	e50b300c 	str	r3, [fp, #-12]
    9c34:	ea000008 	b	9c5c <hash_bytes+0x6c>
    9c38:	e51b300c 	ldr	r3, [fp, #-12]
    9c3c:	e59f204c 	ldr	r2, [pc, #76]	; 9c90 <hash_bytes+0xa0>
    9c40:	e0020392 	mul	r2, r2, r3
    9c44:	e51b3008 	ldr	r3, [fp, #-8]
    9c48:	e2831001 	add	r1, r3, #1
    9c4c:	e50b1008 	str	r1, [fp, #-8]
    9c50:	e5d33000 	ldrb	r3, [r3]
    9c54:	e0223003 	eor	r3, r2, r3
    9c58:	e50b300c 	str	r3, [fp, #-12]
    9c5c:	e51b3014 	ldr	r3, [fp, #-20]
    9c60:	e2432001 	sub	r2, r3, #1
    9c64:	e50b2014 	str	r2, [fp, #-20]
    9c68:	e3530000 	cmp	r3, #0
    9c6c:	1afffff1 	bne	9c38 <hash_bytes+0x48>
    9c70:	e51b300c 	ldr	r3, [fp, #-12]
    9c74:	e1a00003 	mov	r0, r3
    9c78:	e24bd004 	sub	sp, fp, #4
    9c7c:	e8bd8800 	pop	{fp, pc}
    9c80:	00015ad0 	.word	0x00015ad0
    9c84:	00015b1c 	.word	0x00015b1c
    9c88:	00015ae4 	.word	0x00015ae4
    9c8c:	811c9dc5 	.word	0x811c9dc5
    9c90:	01000193 	.word	0x01000193

00009c94 <hash_string>:
    9c94:	e92d4800 	push	{fp, lr}
    9c98:	e28db004 	add	fp, sp, #4
    9c9c:	e24dd010 	sub	sp, sp, #16
    9ca0:	e50b0010 	str	r0, [fp, #-16]
    9ca4:	e51b3010 	ldr	r3, [fp, #-16]
    9ca8:	e50b3008 	str	r3, [fp, #-8]
    9cac:	e51b3008 	ldr	r3, [fp, #-8]
    9cb0:	e3530000 	cmp	r3, #0
    9cb4:	1a000004 	bne	9ccc <hash_string+0x38>
    9cb8:	e59f005c 	ldr	r0, [pc, #92]	; 9d1c <hash_string+0x88>
    9cbc:	e3a01e12 	mov	r1, #288	; 0x120
    9cc0:	e59f2058 	ldr	r2, [pc, #88]	; 9d20 <hash_string+0x8c>
    9cc4:	e59f3058 	ldr	r3, [pc, #88]	; 9d24 <hash_string+0x90>
    9cc8:	ebfffdaf 	bl	938c <debug_panic>
    9ccc:	e59f3054 	ldr	r3, [pc, #84]	; 9d28 <hash_string+0x94>
    9cd0:	e50b300c 	str	r3, [fp, #-12]
    9cd4:	ea000008 	b	9cfc <hash_string+0x68>
    9cd8:	e51b300c 	ldr	r3, [fp, #-12]
    9cdc:	e59f2048 	ldr	r2, [pc, #72]	; 9d2c <hash_string+0x98>
    9ce0:	e0020392 	mul	r2, r2, r3
    9ce4:	e51b3008 	ldr	r3, [fp, #-8]
    9ce8:	e2831001 	add	r1, r3, #1
    9cec:	e50b1008 	str	r1, [fp, #-8]
    9cf0:	e5d33000 	ldrb	r3, [r3]
    9cf4:	e0223003 	eor	r3, r2, r3
    9cf8:	e50b300c 	str	r3, [fp, #-12]
    9cfc:	e51b3008 	ldr	r3, [fp, #-8]
    9d00:	e5d33000 	ldrb	r3, [r3]
    9d04:	e3530000 	cmp	r3, #0
    9d08:	1afffff2 	bne	9cd8 <hash_string+0x44>
    9d0c:	e51b300c 	ldr	r3, [fp, #-12]
    9d10:	e1a00003 	mov	r0, r3
    9d14:	e24bd004 	sub	sp, fp, #4
    9d18:	e8bd8800 	pop	{fp, pc}
    9d1c:	00015ad0 	.word	0x00015ad0
    9d20:	00015b28 	.word	0x00015b28
    9d24:	00015ae4 	.word	0x00015ae4
    9d28:	811c9dc5 	.word	0x811c9dc5
    9d2c:	01000193 	.word	0x01000193

00009d30 <hash_int>:
    9d30:	e92d4800 	push	{fp, lr}
    9d34:	e28db004 	add	fp, sp, #4
    9d38:	e24dd008 	sub	sp, sp, #8
    9d3c:	e50b0008 	str	r0, [fp, #-8]
    9d40:	e24b3008 	sub	r3, fp, #8
    9d44:	e1a00003 	mov	r0, r3
    9d48:	e3a01004 	mov	r1, #4
    9d4c:	ebffffa7 	bl	9bf0 <hash_bytes>
    9d50:	e1a03000 	mov	r3, r0
    9d54:	e1a00003 	mov	r0, r3
    9d58:	e24bd004 	sub	sp, fp, #4
    9d5c:	e8bd8800 	pop	{fp, pc}

00009d60 <find_bucket>:
    9d60:	e92d4800 	push	{fp, lr}
    9d64:	e28db004 	add	fp, sp, #4
    9d68:	e24dd010 	sub	sp, sp, #16
    9d6c:	e50b0010 	str	r0, [fp, #-16]
    9d70:	e50b1014 	str	r1, [fp, #-20]
    9d74:	e51b3010 	ldr	r3, [fp, #-16]
    9d78:	e593300c 	ldr	r3, [r3, #12]
    9d7c:	e51b2010 	ldr	r2, [fp, #-16]
    9d80:	e5922014 	ldr	r2, [r2, #20]
    9d84:	e51b0014 	ldr	r0, [fp, #-20]
    9d88:	e1a01002 	mov	r1, r2
    9d8c:	e12fff33 	blx	r3
    9d90:	e1a02000 	mov	r2, r0
    9d94:	e51b3010 	ldr	r3, [fp, #-16]
    9d98:	e5933004 	ldr	r3, [r3, #4]
    9d9c:	e2433001 	sub	r3, r3, #1
    9da0:	e0023003 	and	r3, r2, r3
    9da4:	e50b3008 	str	r3, [fp, #-8]
    9da8:	e51b3010 	ldr	r3, [fp, #-16]
    9dac:	e5932008 	ldr	r2, [r3, #8]
    9db0:	e51b3008 	ldr	r3, [fp, #-8]
    9db4:	e1a03203 	lsl	r3, r3, #4
    9db8:	e0823003 	add	r3, r2, r3
    9dbc:	e1a00003 	mov	r0, r3
    9dc0:	e24bd004 	sub	sp, fp, #4
    9dc4:	e8bd8800 	pop	{fp, pc}

00009dc8 <find_elem>:
    9dc8:	e92d4800 	push	{fp, lr}
    9dcc:	e28db004 	add	fp, sp, #4
    9dd0:	e24dd018 	sub	sp, sp, #24
    9dd4:	e50b0010 	str	r0, [fp, #-16]
    9dd8:	e50b1014 	str	r1, [fp, #-20]
    9ddc:	e50b2018 	str	r2, [fp, #-24]
    9de0:	e51b0014 	ldr	r0, [fp, #-20]
    9de4:	eb00045e 	bl	af64 <list_begin>
    9de8:	e50b0008 	str	r0, [fp, #-8]
    9dec:	ea000020 	b	9e74 <find_elem+0xac>
    9df0:	e51b3008 	ldr	r3, [fp, #-8]
    9df4:	e2833004 	add	r3, r3, #4
    9df8:	e2433004 	sub	r3, r3, #4
    9dfc:	e50b300c 	str	r3, [fp, #-12]
    9e00:	e51b3010 	ldr	r3, [fp, #-16]
    9e04:	e5933010 	ldr	r3, [r3, #16]
    9e08:	e51b2010 	ldr	r2, [fp, #-16]
    9e0c:	e5922014 	ldr	r2, [r2, #20]
    9e10:	e51b000c 	ldr	r0, [fp, #-12]
    9e14:	e51b1018 	ldr	r1, [fp, #-24]
    9e18:	e12fff33 	blx	r3
    9e1c:	e1a03000 	mov	r3, r0
    9e20:	e2233001 	eor	r3, r3, #1
    9e24:	e6ef3073 	uxtb	r3, r3
    9e28:	e3530000 	cmp	r3, #0
    9e2c:	0a00000d 	beq	9e68 <find_elem+0xa0>
    9e30:	e51b3010 	ldr	r3, [fp, #-16]
    9e34:	e5933010 	ldr	r3, [r3, #16]
    9e38:	e51b2010 	ldr	r2, [fp, #-16]
    9e3c:	e5922014 	ldr	r2, [r2, #20]
    9e40:	e51b0018 	ldr	r0, [fp, #-24]
    9e44:	e51b100c 	ldr	r1, [fp, #-12]
    9e48:	e12fff33 	blx	r3
    9e4c:	e1a03000 	mov	r3, r0
    9e50:	e2233001 	eor	r3, r3, #1
    9e54:	e6ef3073 	uxtb	r3, r3
    9e58:	e3530000 	cmp	r3, #0
    9e5c:	0a000001 	beq	9e68 <find_elem+0xa0>
    9e60:	e51b300c 	ldr	r3, [fp, #-12]
    9e64:	ea000009 	b	9e90 <find_elem+0xc8>
    9e68:	e51b0008 	ldr	r0, [fp, #-8]
    9e6c:	eb000450 	bl	afb4 <list_next>
    9e70:	e50b0008 	str	r0, [fp, #-8]
    9e74:	e51b0014 	ldr	r0, [fp, #-20]
    9e78:	eb000468 	bl	b020 <list_end>
    9e7c:	e1a02000 	mov	r2, r0
    9e80:	e51b3008 	ldr	r3, [fp, #-8]
    9e84:	e1520003 	cmp	r2, r3
    9e88:	1affffd8 	bne	9df0 <find_elem+0x28>
    9e8c:	e3a03000 	mov	r3, #0
    9e90:	e1a00003 	mov	r0, r3
    9e94:	e24bd004 	sub	sp, fp, #4
    9e98:	e8bd8800 	pop	{fp, pc}

00009e9c <turn_off_least_1bit>:
    9e9c:	e52db004 	push	{fp}		; (str fp, [sp, #-4]!)
    9ea0:	e28db000 	add	fp, sp, #0
    9ea4:	e24dd00c 	sub	sp, sp, #12
    9ea8:	e50b0008 	str	r0, [fp, #-8]
    9eac:	e51b3008 	ldr	r3, [fp, #-8]
    9eb0:	e2432001 	sub	r2, r3, #1
    9eb4:	e51b3008 	ldr	r3, [fp, #-8]
    9eb8:	e0023003 	and	r3, r2, r3
    9ebc:	e1a00003 	mov	r0, r3
    9ec0:	e24bd000 	sub	sp, fp, #0
    9ec4:	e49db004 	pop	{fp}		; (ldr fp, [sp], #4)
    9ec8:	e12fff1e 	bx	lr

00009ecc <is_power_of_2>:
    9ecc:	e92d4800 	push	{fp, lr}
    9ed0:	e28db004 	add	fp, sp, #4
    9ed4:	e24dd008 	sub	sp, sp, #8
    9ed8:	e50b0008 	str	r0, [fp, #-8]
    9edc:	e51b3008 	ldr	r3, [fp, #-8]
    9ee0:	e3530000 	cmp	r3, #0
    9ee4:	0a000006 	beq	9f04 <is_power_of_2+0x38>
    9ee8:	e51b0008 	ldr	r0, [fp, #-8]
    9eec:	ebffffea 	bl	9e9c <turn_off_least_1bit>
    9ef0:	e1a03000 	mov	r3, r0
    9ef4:	e3530000 	cmp	r3, #0
    9ef8:	1a000001 	bne	9f04 <is_power_of_2+0x38>
    9efc:	e3a03001 	mov	r3, #1
    9f00:	ea000000 	b	9f08 <is_power_of_2+0x3c>
    9f04:	e3a03000 	mov	r3, #0
    9f08:	e1a00003 	mov	r0, r3
    9f0c:	e24bd004 	sub	sp, fp, #4
    9f10:	e8bd8800 	pop	{fp, pc}

00009f14 <rehash>:
    9f14:	e92d4800 	push	{fp, lr}
    9f18:	e28db004 	add	fp, sp, #4
    9f1c:	e24dd030 	sub	sp, sp, #48	; 0x30
    9f20:	e50b0030 	str	r0, [fp, #-48]	; 0x30
    9f24:	e51b3030 	ldr	r3, [fp, #-48]	; 0x30
    9f28:	e3530000 	cmp	r3, #0
    9f2c:	1a000004 	bne	9f44 <rehash+0x30>
    9f30:	e59f01bc 	ldr	r0, [pc, #444]	; a0f4 <rehash+0x1e0>
    9f34:	e59f11bc 	ldr	r1, [pc, #444]	; a0f8 <rehash+0x1e4>
    9f38:	e59f21bc 	ldr	r2, [pc, #444]	; a0fc <rehash+0x1e8>
    9f3c:	e59f31bc 	ldr	r3, [pc, #444]	; a100 <rehash+0x1ec>
    9f40:	ebfffd11 	bl	938c <debug_panic>
    9f44:	e51b3030 	ldr	r3, [fp, #-48]	; 0x30
    9f48:	e5933008 	ldr	r3, [r3, #8]
    9f4c:	e50b3014 	str	r3, [fp, #-20]
    9f50:	e51b3030 	ldr	r3, [fp, #-48]	; 0x30
    9f54:	e5933004 	ldr	r3, [r3, #4]
    9f58:	e50b3018 	str	r3, [fp, #-24]
    9f5c:	e51b3030 	ldr	r3, [fp, #-48]	; 0x30
    9f60:	e5933000 	ldr	r3, [r3]
    9f64:	e1a030a3 	lsr	r3, r3, #1
    9f68:	e50b3008 	str	r3, [fp, #-8]
    9f6c:	e51b3008 	ldr	r3, [fp, #-8]
    9f70:	e3530003 	cmp	r3, #3
    9f74:	8a000002 	bhi	9f84 <rehash+0x70>
    9f78:	e3a03004 	mov	r3, #4
    9f7c:	e50b3008 	str	r3, [fp, #-8]
    9f80:	ea000003 	b	9f94 <rehash+0x80>
    9f84:	ea000002 	b	9f94 <rehash+0x80>
    9f88:	e51b0008 	ldr	r0, [fp, #-8]
    9f8c:	ebffffc2 	bl	9e9c <turn_off_least_1bit>
    9f90:	e50b0008 	str	r0, [fp, #-8]
    9f94:	e51b0008 	ldr	r0, [fp, #-8]
    9f98:	ebffffcb 	bl	9ecc <is_power_of_2>
    9f9c:	e1a03000 	mov	r3, r0
    9fa0:	e3530000 	cmp	r3, #0
    9fa4:	0afffff7 	beq	9f88 <rehash+0x74>
    9fa8:	e51b2008 	ldr	r2, [fp, #-8]
    9fac:	e51b3018 	ldr	r3, [fp, #-24]
    9fb0:	e1520003 	cmp	r2, r3
    9fb4:	1a000000 	bne	9fbc <rehash+0xa8>
    9fb8:	ea00004b 	b	a0ec <rehash+0x1d8>
    9fbc:	e51b3008 	ldr	r3, [fp, #-8]
    9fc0:	e1a03203 	lsl	r3, r3, #4
    9fc4:	e1a00003 	mov	r0, r3
    9fc8:	eb000ae5 	bl	cb64 <malloc>
    9fcc:	e1a03000 	mov	r3, r0
    9fd0:	e50b301c 	str	r3, [fp, #-28]
    9fd4:	e51b301c 	ldr	r3, [fp, #-28]
    9fd8:	e3530000 	cmp	r3, #0
    9fdc:	1a000000 	bne	9fe4 <rehash+0xd0>
    9fe0:	ea000041 	b	a0ec <rehash+0x1d8>
    9fe4:	e3a03000 	mov	r3, #0
    9fe8:	e50b300c 	str	r3, [fp, #-12]
    9fec:	ea000008 	b	a014 <rehash+0x100>
    9ff0:	e51b300c 	ldr	r3, [fp, #-12]
    9ff4:	e1a03203 	lsl	r3, r3, #4
    9ff8:	e51b201c 	ldr	r2, [fp, #-28]
    9ffc:	e0823003 	add	r3, r2, r3
    a000:	e1a00003 	mov	r0, r3
    a004:	eb0003b8 	bl	aeec <list_init>
    a008:	e51b300c 	ldr	r3, [fp, #-12]
    a00c:	e2833001 	add	r3, r3, #1
    a010:	e50b300c 	str	r3, [fp, #-12]
    a014:	e51b200c 	ldr	r2, [fp, #-12]
    a018:	e51b3008 	ldr	r3, [fp, #-8]
    a01c:	e1520003 	cmp	r2, r3
    a020:	3afffff2 	bcc	9ff0 <rehash+0xdc>
    a024:	e51b3030 	ldr	r3, [fp, #-48]	; 0x30
    a028:	e51b201c 	ldr	r2, [fp, #-28]
    a02c:	e5832008 	str	r2, [r3, #8]
    a030:	e51b3030 	ldr	r3, [fp, #-48]	; 0x30
    a034:	e51b2008 	ldr	r2, [fp, #-8]
    a038:	e5832004 	str	r2, [r3, #4]
    a03c:	e3a03000 	mov	r3, #0
    a040:	e50b300c 	str	r3, [fp, #-12]
    a044:	ea000022 	b	a0d4 <rehash+0x1c0>
    a048:	e51b300c 	ldr	r3, [fp, #-12]
    a04c:	e1a03203 	lsl	r3, r3, #4
    a050:	e51b2014 	ldr	r2, [fp, #-20]
    a054:	e0823003 	add	r3, r2, r3
    a058:	e50b3020 	str	r3, [fp, #-32]
    a05c:	e51b0020 	ldr	r0, [fp, #-32]
    a060:	eb0003bf 	bl	af64 <list_begin>
    a064:	e50b0010 	str	r0, [fp, #-16]
    a068:	ea000010 	b	a0b0 <rehash+0x19c>
    a06c:	e51b3010 	ldr	r3, [fp, #-16]
    a070:	e2833004 	add	r3, r3, #4
    a074:	e2433004 	sub	r3, r3, #4
    a078:	e51b0030 	ldr	r0, [fp, #-48]	; 0x30
    a07c:	e1a01003 	mov	r1, r3
    a080:	ebffff36 	bl	9d60 <find_bucket>
    a084:	e50b0024 	str	r0, [fp, #-36]	; 0x24
    a088:	e51b0010 	ldr	r0, [fp, #-16]
    a08c:	eb0003c8 	bl	afb4 <list_next>
    a090:	e50b0028 	str	r0, [fp, #-40]	; 0x28
    a094:	e51b0010 	ldr	r0, [fp, #-16]
    a098:	eb0004f4 	bl	b470 <list_remove>
    a09c:	e51b0024 	ldr	r0, [fp, #-36]	; 0x24
    a0a0:	e51b1010 	ldr	r1, [fp, #-16]
    a0a4:	eb0004d7 	bl	b408 <list_push_front>
    a0a8:	e51b3028 	ldr	r3, [fp, #-40]	; 0x28
    a0ac:	e50b3010 	str	r3, [fp, #-16]
    a0b0:	e51b0020 	ldr	r0, [fp, #-32]
    a0b4:	eb0003d9 	bl	b020 <list_end>
    a0b8:	e1a02000 	mov	r2, r0
    a0bc:	e51b3010 	ldr	r3, [fp, #-16]
    a0c0:	e1520003 	cmp	r2, r3
    a0c4:	1affffe8 	bne	a06c <rehash+0x158>
    a0c8:	e51b300c 	ldr	r3, [fp, #-12]
    a0cc:	e2833001 	add	r3, r3, #1
    a0d0:	e50b300c 	str	r3, [fp, #-12]
    a0d4:	e51b200c 	ldr	r2, [fp, #-12]
    a0d8:	e51b3018 	ldr	r3, [fp, #-24]
    a0dc:	e1520003 	cmp	r2, r3
    a0e0:	3affffd8 	bcc	a048 <rehash+0x134>
    a0e4:	e51b0014 	ldr	r0, [fp, #-20]
    a0e8:	eb000b9b 	bl	cf5c <free>
    a0ec:	e24bd004 	sub	sp, fp, #4
    a0f0:	e8bd8800 	pop	{fp, pc}
    a0f4:	00015ad0 	.word	0x00015ad0
    a0f8:	00000166 	.word	0x00000166
    a0fc:	00015b34 	.word	0x00015b34
    a100:	00015ae4 	.word	0x00015ae4

0000a104 <insert_elem>:
    a104:	e92d4800 	push	{fp, lr}
    a108:	e28db004 	add	fp, sp, #4
    a10c:	e24dd010 	sub	sp, sp, #16
    a110:	e50b0008 	str	r0, [fp, #-8]
    a114:	e50b100c 	str	r1, [fp, #-12]
    a118:	e50b2010 	str	r2, [fp, #-16]
    a11c:	e51b3008 	ldr	r3, [fp, #-8]
    a120:	e5933000 	ldr	r3, [r3]
    a124:	e2832001 	add	r2, r3, #1
    a128:	e51b3008 	ldr	r3, [fp, #-8]
    a12c:	e5832000 	str	r2, [r3]
    a130:	e51b3010 	ldr	r3, [fp, #-16]
    a134:	e51b000c 	ldr	r0, [fp, #-12]
    a138:	e1a01003 	mov	r1, r3
    a13c:	eb0004b1 	bl	b408 <list_push_front>
    a140:	e24bd004 	sub	sp, fp, #4
    a144:	e8bd8800 	pop	{fp, pc}

0000a148 <remove_elem>:
    a148:	e92d4800 	push	{fp, lr}
    a14c:	e28db004 	add	fp, sp, #4
    a150:	e24dd008 	sub	sp, sp, #8
    a154:	e50b0008 	str	r0, [fp, #-8]
    a158:	e50b100c 	str	r1, [fp, #-12]
    a15c:	e51b3008 	ldr	r3, [fp, #-8]
    a160:	e5933000 	ldr	r3, [r3]
    a164:	e2432001 	sub	r2, r3, #1
    a168:	e51b3008 	ldr	r3, [fp, #-8]
    a16c:	e5832000 	str	r2, [r3]
    a170:	e51b300c 	ldr	r3, [fp, #-12]
    a174:	e1a00003 	mov	r0, r3
    a178:	eb0004bc 	bl	b470 <list_remove>
    a17c:	e24bd004 	sub	sp, fp, #4
    a180:	e8bd8800 	pop	{fp, pc}

0000a184 <test_swi_interrupt>:
    a184:	e92d4800 	push	{fp, lr}
    a188:	e28db004 	add	fp, sp, #4
    a18c:	e24dd008 	sub	sp, sp, #8
    a190:	e3a03e7e 	mov	r3, #2016	; 0x7e0
    a194:	e14b30b6 	strh	r3, [fp, #-6]
    a198:	e15b30b6 	ldrh	r3, [fp, #-6]
    a19c:	e1a00003 	mov	r0, r3
    a1a0:	ebfff7f3 	bl	8174 <SetForeColour>
    a1a4:	ebfff892 	bl	83f4 <generate_swi_interrupt>
    a1a8:	e24bd004 	sub	sp, fp, #4
    a1ac:	e8bd8800 	pop	{fp, pc}

0000a1b0 <busy_test>:
    a1b0:	e92d4800 	push	{fp, lr}
    a1b4:	e28db004 	add	fp, sp, #4
    a1b8:	e24dd008 	sub	sp, sp, #8
    a1bc:	e50b0008 	str	r0, [fp, #-8]
    a1c0:	e59f0008 	ldr	r0, [pc, #8]	; a1d0 <busy_test+0x20>
    a1c4:	eb001cdd 	bl	11540 <timer_msleep>
    a1c8:	e24bd004 	sub	sp, fp, #4
    a1cc:	e8bd8800 	pop	{fp, pc}
    a1d0:	00895440 	.word	0x00895440

0000a1d4 <non_busy_test>:
    a1d4:	e92d4800 	push	{fp, lr}
    a1d8:	e28db004 	add	fp, sp, #4
    a1dc:	e24dd008 	sub	sp, sp, #8
    a1e0:	e50b0008 	str	r0, [fp, #-8]
    a1e4:	e59f0008 	ldr	r0, [pc, #8]	; a1f4 <non_busy_test+0x20>
    a1e8:	eb001ceb 	bl	1159c <my_timer_msleep>
    a1ec:	e24bd004 	sub	sp, fp, #4
    a1f0:	e8bd8800 	pop	{fp, pc}
    a1f4:	00895440 	.word	0x00895440

0000a1f8 <dummy_thread>:
    a1f8:	e52db004 	push	{fp}		; (str fp, [sp, #-4]!)
    a1fc:	e28db000 	add	fp, sp, #0
    a200:	e24dd014 	sub	sp, sp, #20
    a204:	e50b0010 	str	r0, [fp, #-16]
    a208:	e3a03000 	mov	r3, #0
    a20c:	e50b3008 	str	r3, [fp, #-8]
    a210:	e1a00000 	nop			; (mov r0, r0)
    a214:	e51b3008 	ldr	r3, [fp, #-8]
    a218:	e2832001 	add	r2, r3, #1
    a21c:	e50b2008 	str	r2, [fp, #-8]
    a220:	e59f2010 	ldr	r2, [pc, #16]	; a238 <dummy_thread+0x40>
    a224:	e1530002 	cmp	r3, r2
    a228:	dafffff9 	ble	a214 <dummy_thread+0x1c>
    a22c:	e24bd000 	sub	sp, fp, #0
    a230:	e49db004 	pop	{fp}		; (ldr fp, [sp], #4)
    a234:	e12fff1e 	bx	lr
    a238:	00001387 	.word	0x00001387

0000a23c <running_thread_stat>:
    a23c:	e92d4800 	push	{fp, lr}
    a240:	e28db004 	add	fp, sp, #4
    a244:	e24dd008 	sub	sp, sp, #8
    a248:	e50b0008 	str	r0, [fp, #-8]
    a24c:	e3a0000a 	mov	r0, #10
    a250:	ebfffc0d 	bl	928c <putchar>
    a254:	eb002230 	bl	12b1c <show_running_thread_status>
    a258:	e24bd004 	sub	sp, fp, #4
    a25c:	e8bd8800 	pop	{fp, pc}

0000a260 <init>:
    a260:	e92d4800 	push	{fp, lr}
    a264:	e28db004 	add	fp, sp, #4
    a268:	e24dd008 	sub	sp, sp, #8
    a26c:	eb001d3a 	bl	1175c <thread_init>
    a270:	ebfffc8f 	bl	94b4 <framebuffer_init>
    a274:	eb000e1a 	bl	dae4 <serial_init>
    a278:	eb00227e 	bl	12c78 <video_init>
    a27c:	e59f005c 	ldr	r0, [pc, #92]	; a2e0 <init+0x80>
    a280:	eb000fc3 	bl	e194 <printf>
    a284:	e59f3058 	ldr	r3, [pc, #88]	; a2e4 <init+0x84>
    a288:	e5933000 	ldr	r3, [r3]
    a28c:	e1a00003 	mov	r0, r3
    a290:	eb000c1c 	bl	d308 <palloc_init>
    a294:	eb0009f0 	bl	ca5c <malloc_init>
    a298:	eb00076c 	bl	c050 <interrupts_init>
    a29c:	eb001c8a 	bl	114cc <timer_init>
    a2a0:	eb000f3b 	bl	df94 <keyboard_init>
    a2a4:	eb001dd4 	bl	119fc <thread_start>
    a2a8:	e59f0038 	ldr	r0, [pc, #56]	; a2e8 <init+0x88>
    a2ac:	eb000fb8 	bl	e194 <printf>
    a2b0:	e59f0034 	ldr	r0, [pc, #52]	; a2ec <init+0x8c>
    a2b4:	eb001ca1 	bl	11540 <timer_msleep>
    a2b8:	e59f0030 	ldr	r0, [pc, #48]	; a2f0 <init+0x90>
    a2bc:	e3a0103f 	mov	r1, #63	; 0x3f
    a2c0:	e59f202c 	ldr	r2, [pc, #44]	; a2f4 <init+0x94>
    a2c4:	e3a03000 	mov	r3, #0
    a2c8:	eb001e20 	bl	11b50 <thread_create>
    a2cc:	e50b0008 	str	r0, [fp, #-8]
    a2d0:	e51b0008 	ldr	r0, [fp, #-8]
    a2d4:	eb001e95 	bl	11d30 <thread_wait>
    a2d8:	e24bd004 	sub	sp, fp, #4
    a2dc:	e8bd8800 	pop	{fp, pc}
    a2e0:	00015b3c 	.word	0x00015b3c
    a2e4:	00019040 	.word	0x00019040
    a2e8:	00015b58 	.word	0x00015b58
    a2ec:	000f4240 	.word	0x000f4240
    a2f0:	00015b6c 	.word	0x00015b6c
    a2f4:	0000a8d8 	.word	0x0000a8d8

0000a2f8 <factorial>:
    a2f8:	e92d4800 	push	{fp, lr}
    a2fc:	e28db004 	add	fp, sp, #4
    a300:	e24dd008 	sub	sp, sp, #8
    a304:	e50b0008 	str	r0, [fp, #-8]
    a308:	e51b3008 	ldr	r3, [fp, #-8]
    a30c:	e3530000 	cmp	r3, #0
    a310:	0a000002 	beq	a320 <factorial+0x28>
    a314:	e51b3008 	ldr	r3, [fp, #-8]
    a318:	e3530001 	cmp	r3, #1
    a31c:	1a000001 	bne	a328 <factorial+0x30>
    a320:	e3a03001 	mov	r3, #1
    a324:	ea000006 	b	a344 <factorial+0x4c>
    a328:	e51b3008 	ldr	r3, [fp, #-8]
    a32c:	e2433001 	sub	r3, r3, #1
    a330:	e1a00003 	mov	r0, r3
    a334:	ebffffef 	bl	a2f8 <factorial>
    a338:	e1a03000 	mov	r3, r0
    a33c:	e51b2008 	ldr	r2, [fp, #-8]
    a340:	e0030392 	mul	r3, r2, r3
    a344:	e1a00003 	mov	r0, r3
    a348:	e24bd004 	sub	sp, fp, #4
    a34c:	e8bd8800 	pop	{fp, pc}

0000a350 <fact_func>:
    a350:	e92d4800 	push	{fp, lr}
    a354:	e28db004 	add	fp, sp, #4
    a358:	e24dd020 	sub	sp, sp, #32
    a35c:	e50b0020 	str	r0, [fp, #-32]
    a360:	e3a0301f 	mov	r3, #31
    a364:	e14b30ba 	strh	r3, [fp, #-10]
    a368:	e3a03e7e 	mov	r3, #2016	; 0x7e0
    a36c:	e14b30bc 	strh	r3, [fp, #-12]
    a370:	e3a03001 	mov	r3, #1
    a374:	e50b3008 	str	r3, [fp, #-8]
    a378:	ea00002a 	b	a428 <fact_func+0xd8>
    a37c:	e51b2008 	ldr	r2, [fp, #-8]
    a380:	e59f30bc 	ldr	r3, [pc, #188]	; a444 <fact_func+0xf4>
    a384:	e0c31293 	smull	r1, r3, r3, r2
    a388:	e1a011c3 	asr	r1, r3, #3
    a38c:	e1a03fc2 	asr	r3, r2, #31
    a390:	e0631001 	rsb	r1, r3, r1
    a394:	e1a03001 	mov	r3, r1
    a398:	e1a03103 	lsl	r3, r3, #2
    a39c:	e0833001 	add	r3, r3, r1
    a3a0:	e1a01103 	lsl	r1, r3, #2
    a3a4:	e0833001 	add	r3, r3, r1
    a3a8:	e0633002 	rsb	r3, r3, r2
    a3ac:	e50b3010 	str	r3, [fp, #-16]
    a3b0:	e51b0010 	ldr	r0, [fp, #-16]
    a3b4:	ebffffcf 	bl	a2f8 <factorial>
    a3b8:	e50b0014 	str	r0, [fp, #-20]
    a3bc:	e51b0010 	ldr	r0, [fp, #-16]
    a3c0:	ebffffcc 	bl	a2f8 <factorial>
    a3c4:	e50b0018 	str	r0, [fp, #-24]
    a3c8:	e51b2014 	ldr	r2, [fp, #-20]
    a3cc:	e51b3018 	ldr	r3, [fp, #-24]
    a3d0:	e1520003 	cmp	r2, r3
    a3d4:	0a000004 	beq	a3ec <fact_func+0x9c>
    a3d8:	e59f0068 	ldr	r0, [pc, #104]	; a448 <fact_func+0xf8>
    a3dc:	e3a0109c 	mov	r1, #156	; 0x9c
    a3e0:	e59f2064 	ldr	r2, [pc, #100]	; a44c <fact_func+0xfc>
    a3e4:	e59f3064 	ldr	r3, [pc, #100]	; a450 <fact_func+0x100>
    a3e8:	ebfffbe7 	bl	938c <debug_panic>
    a3ec:	e15b20bc 	ldrh	r2, [fp, #-12]
    a3f0:	e15b30ba 	ldrh	r3, [fp, #-10]
    a3f4:	e0823003 	add	r3, r2, r3
    a3f8:	e1a00003 	mov	r0, r3
    a3fc:	ebfff75c 	bl	8174 <SetForeColour>
    a400:	eb001ecf 	bl	11f44 <thread_current>
    a404:	e1a03000 	mov	r3, r0
    a408:	e2833005 	add	r3, r3, #5
    a40c:	e59f0040 	ldr	r0, [pc, #64]	; a454 <fact_func+0x104>
    a410:	e1a01003 	mov	r1, r3
    a414:	e51b2010 	ldr	r2, [fp, #-16]
    a418:	e51b3014 	ldr	r3, [fp, #-20]
    a41c:	eb000f5c 	bl	e194 <printf>
    a420:	e59f0030 	ldr	r0, [pc, #48]	; a458 <fact_func+0x108>
    a424:	eb000f5a 	bl	e194 <printf>
    a428:	e51b3008 	ldr	r3, [fp, #-8]
    a42c:	e2832001 	add	r2, r3, #1
    a430:	e50b2008 	str	r2, [fp, #-8]
    a434:	e35300f9 	cmp	r3, #249	; 0xf9
    a438:	daffffcf 	ble	a37c <fact_func+0x2c>
    a43c:	e24bd004 	sub	sp, fp, #4
    a440:	e8bd8800 	pop	{fp, pc}
    a444:	51eb851f 	.word	0x51eb851f
    a448:	00015b74 	.word	0x00015b74
    a44c:	00015efc 	.word	0x00015efc
    a450:	00015b84 	.word	0x00015b84
    a454:	00015b98 	.word	0x00015b98
    a458:	00015bb4 	.word	0x00015bb4

0000a45c <setPriority>:
    a45c:	e92d4800 	push	{fp, lr}
    a460:	e28db004 	add	fp, sp, #4
    a464:	e24dd008 	sub	sp, sp, #8
    a468:	e50b0008 	str	r0, [fp, #-8]
    a46c:	e50b100c 	str	r1, [fp, #-12]
    a470:	e51b300c 	ldr	r3, [fp, #-12]
    a474:	e51b2008 	ldr	r2, [fp, #-8]
    a478:	e0823003 	add	r3, r2, r3
    a47c:	e5d33000 	ldrb	r3, [r3]
    a480:	e353002d 	cmp	r3, #45	; 0x2d
    a484:	1a000008 	bne	a4ac <setPriority+0x50>
    a488:	e51b300c 	ldr	r3, [fp, #-12]
    a48c:	e2833001 	add	r3, r3, #1
    a490:	e51b2008 	ldr	r2, [fp, #-8]
    a494:	e0823003 	add	r3, r2, r3
    a498:	e5d33000 	ldrb	r3, [r3]
    a49c:	e3530070 	cmp	r3, #112	; 0x70
    a4a0:	1a000001 	bne	a4ac <setPriority+0x50>
    a4a4:	eb002193 	bl	12af8 <enable_priority>
    a4a8:	ea000017 	b	a50c <setPriority+0xb0>
    a4ac:	e51b300c 	ldr	r3, [fp, #-12]
    a4b0:	e51b2008 	ldr	r2, [fp, #-8]
    a4b4:	e0823003 	add	r3, r2, r3
    a4b8:	e5d33000 	ldrb	r3, [r3]
    a4bc:	e353002d 	cmp	r3, #45	; 0x2d
    a4c0:	1a00000f 	bne	a504 <setPriority+0xa8>
    a4c4:	e51b300c 	ldr	r3, [fp, #-12]
    a4c8:	e2833001 	add	r3, r3, #1
    a4cc:	e51b2008 	ldr	r2, [fp, #-8]
    a4d0:	e0823003 	add	r3, r2, r3
    a4d4:	e5d33000 	ldrb	r3, [r3]
    a4d8:	e353006e 	cmp	r3, #110	; 0x6e
    a4dc:	1a000008 	bne	a504 <setPriority+0xa8>
    a4e0:	e51b300c 	ldr	r3, [fp, #-12]
    a4e4:	e2833002 	add	r3, r3, #2
    a4e8:	e51b2008 	ldr	r2, [fp, #-8]
    a4ec:	e0823003 	add	r3, r2, r3
    a4f0:	e5d33000 	ldrb	r3, [r3]
    a4f4:	e3530070 	cmp	r3, #112	; 0x70
    a4f8:	1a000001 	bne	a504 <setPriority+0xa8>
    a4fc:	eb002174 	bl	12ad4 <disable_priority>
    a500:	ea000001 	b	a50c <setPriority+0xb0>
    a504:	e59f0008 	ldr	r0, [pc, #8]	; a514 <setPriority+0xb8>
    a508:	eb000f21 	bl	e194 <printf>
    a50c:	e24bd004 	sub	sp, fp, #4
    a510:	e8bd8800 	pop	{fp, pc}
    a514:	00015bbc 	.word	0x00015bbc

0000a518 <run_func>:
    a518:	e92d4800 	push	{fp, lr}
    a51c:	e28db004 	add	fp, sp, #4
    a520:	e24dd028 	sub	sp, sp, #40	; 0x28
    a524:	e50b0028 	str	r0, [fp, #-40]	; 0x28
    a528:	e51b3028 	ldr	r3, [fp, #-40]	; 0x28
    a52c:	e50b3010 	str	r3, [fp, #-16]
    a530:	e3a03001 	mov	r3, #1
    a534:	e54b3005 	strb	r3, [fp, #-5]
    a538:	e3a03004 	mov	r3, #4
    a53c:	e50b300c 	str	r3, [fp, #-12]
    a540:	e51b3010 	ldr	r3, [fp, #-16]
    a544:	e5d33000 	ldrb	r3, [r3]
    a548:	e3530062 	cmp	r3, #98	; 0x62
    a54c:	1a000008 	bne	a574 <run_func+0x5c>
    a550:	e51b3010 	ldr	r3, [fp, #-16]
    a554:	e2833001 	add	r3, r3, #1
    a558:	e5d33000 	ldrb	r3, [r3]
    a55c:	e3530067 	cmp	r3, #103	; 0x67
    a560:	1a000003 	bne	a574 <run_func+0x5c>
    a564:	e3a03000 	mov	r3, #0
    a568:	e54b3005 	strb	r3, [fp, #-5]
    a56c:	e3a03003 	mov	r3, #3
    a570:	e50b300c 	str	r3, [fp, #-12]
    a574:	e51b300c 	ldr	r3, [fp, #-12]
    a578:	e51b2010 	ldr	r2, [fp, #-16]
    a57c:	e0823003 	add	r3, r2, r3
    a580:	e5d33000 	ldrb	r3, [r3]
    a584:	e3530074 	cmp	r3, #116	; 0x74
    a588:	1a00002b 	bne	a63c <run_func+0x124>
    a58c:	e51b300c 	ldr	r3, [fp, #-12]
    a590:	e2833001 	add	r3, r3, #1
    a594:	e51b2010 	ldr	r2, [fp, #-16]
    a598:	e0823003 	add	r3, r2, r3
    a59c:	e5d33000 	ldrb	r3, [r3]
    a5a0:	e3530077 	cmp	r3, #119	; 0x77
    a5a4:	1a000024 	bne	a63c <run_func+0x124>
    a5a8:	e51b300c 	ldr	r3, [fp, #-12]
    a5ac:	e2833002 	add	r3, r3, #2
    a5b0:	e51b2010 	ldr	r2, [fp, #-16]
    a5b4:	e0823003 	add	r3, r2, r3
    a5b8:	e5d33000 	ldrb	r3, [r3]
    a5bc:	e3530061 	cmp	r3, #97	; 0x61
    a5c0:	1a00001d 	bne	a63c <run_func+0x124>
    a5c4:	e51b300c 	ldr	r3, [fp, #-12]
    a5c8:	e2833003 	add	r3, r3, #3
    a5cc:	e51b2010 	ldr	r2, [fp, #-16]
    a5d0:	e0823003 	add	r3, r2, r3
    a5d4:	e5d33000 	ldrb	r3, [r3]
    a5d8:	e3530069 	cmp	r3, #105	; 0x69
    a5dc:	1a000016 	bne	a63c <run_func+0x124>
    a5e0:	e51b300c 	ldr	r3, [fp, #-12]
    a5e4:	e2833004 	add	r3, r3, #4
    a5e8:	e51b2010 	ldr	r2, [fp, #-16]
    a5ec:	e0823003 	add	r3, r2, r3
    a5f0:	e5d33000 	ldrb	r3, [r3]
    a5f4:	e3530074 	cmp	r3, #116	; 0x74
    a5f8:	1a00000f 	bne	a63c <run_func+0x124>
    a5fc:	e59f0260 	ldr	r0, [pc, #608]	; a864 <run_func+0x34c>
    a600:	e3a0103f 	mov	r1, #63	; 0x3f
    a604:	e59f225c 	ldr	r2, [pc, #604]	; a868 <run_func+0x350>
    a608:	e3a03000 	mov	r3, #0
    a60c:	eb001d4f 	bl	11b50 <thread_create>
    a610:	e50b0014 	str	r0, [fp, #-20]
    a614:	e51b0010 	ldr	r0, [fp, #-16]
    a618:	e3a0100a 	mov	r1, #10
    a61c:	ebffff8e 	bl	a45c <setPriority>
    a620:	e55b3005 	ldrb	r3, [fp, #-5]
    a624:	e3530000 	cmp	r3, #0
    a628:	0a000002 	beq	a638 <run_func+0x120>
    a62c:	e51b0014 	ldr	r0, [fp, #-20]
    a630:	eb001dbe 	bl	11d30 <thread_wait>
    a634:	ea000087 	b	a858 <run_func+0x340>
    a638:	ea000086 	b	a858 <run_func+0x340>
    a63c:	e51b300c 	ldr	r3, [fp, #-12]
    a640:	e51b2010 	ldr	r2, [fp, #-16]
    a644:	e0823003 	add	r3, r2, r3
    a648:	e5d33000 	ldrb	r3, [r3]
    a64c:	e3530066 	cmp	r3, #102	; 0x66
    a650:	1a00001d 	bne	a6cc <run_func+0x1b4>
    a654:	e51b300c 	ldr	r3, [fp, #-12]
    a658:	e2833001 	add	r3, r3, #1
    a65c:	e51b2010 	ldr	r2, [fp, #-16]
    a660:	e0823003 	add	r3, r2, r3
    a664:	e5d33000 	ldrb	r3, [r3]
    a668:	e3530061 	cmp	r3, #97	; 0x61
    a66c:	1a000016 	bne	a6cc <run_func+0x1b4>
    a670:	e51b300c 	ldr	r3, [fp, #-12]
    a674:	e2833002 	add	r3, r3, #2
    a678:	e51b2010 	ldr	r2, [fp, #-16]
    a67c:	e0823003 	add	r3, r2, r3
    a680:	e5d33000 	ldrb	r3, [r3]
    a684:	e3530063 	cmp	r3, #99	; 0x63
    a688:	1a00000f 	bne	a6cc <run_func+0x1b4>
    a68c:	e51b300c 	ldr	r3, [fp, #-12]
    a690:	e2833003 	add	r3, r3, #3
    a694:	e51b2010 	ldr	r2, [fp, #-16]
    a698:	e0823003 	add	r3, r2, r3
    a69c:	e5d33000 	ldrb	r3, [r3]
    a6a0:	e3530074 	cmp	r3, #116	; 0x74
    a6a4:	1a000008 	bne	a6cc <run_func+0x1b4>
    a6a8:	e59f01bc 	ldr	r0, [pc, #444]	; a86c <run_func+0x354>
    a6ac:	e3a0103f 	mov	r1, #63	; 0x3f
    a6b0:	e59f21b8 	ldr	r2, [pc, #440]	; a870 <run_func+0x358>
    a6b4:	e3a03000 	mov	r3, #0
    a6b8:	eb001d24 	bl	11b50 <thread_create>
    a6bc:	e50b0018 	str	r0, [fp, #-24]
    a6c0:	e51b0018 	ldr	r0, [fp, #-24]
    a6c4:	eb001d99 	bl	11d30 <thread_wait>
    a6c8:	ea000062 	b	a858 <run_func+0x340>
    a6cc:	e51b300c 	ldr	r3, [fp, #-12]
    a6d0:	e51b2010 	ldr	r2, [fp, #-16]
    a6d4:	e0823003 	add	r3, r2, r3
    a6d8:	e5d33000 	ldrb	r3, [r3]
    a6dc:	e353006e 	cmp	r3, #110	; 0x6e
    a6e0:	1a000029 	bne	a78c <run_func+0x274>
    a6e4:	e51b300c 	ldr	r3, [fp, #-12]
    a6e8:	e2833001 	add	r3, r3, #1
    a6ec:	e51b2010 	ldr	r2, [fp, #-16]
    a6f0:	e0823003 	add	r3, r2, r3
    a6f4:	e5d33000 	ldrb	r3, [r3]
    a6f8:	e3530062 	cmp	r3, #98	; 0x62
    a6fc:	1a000022 	bne	a78c <run_func+0x274>
    a700:	e51b300c 	ldr	r3, [fp, #-12]
    a704:	e2833002 	add	r3, r3, #2
    a708:	e51b2010 	ldr	r2, [fp, #-16]
    a70c:	e0823003 	add	r3, r2, r3
    a710:	e5d33000 	ldrb	r3, [r3]
    a714:	e3530073 	cmp	r3, #115	; 0x73
    a718:	1a00001b 	bne	a78c <run_func+0x274>
    a71c:	e51b300c 	ldr	r3, [fp, #-12]
    a720:	e2833003 	add	r3, r3, #3
    a724:	e51b2010 	ldr	r2, [fp, #-16]
    a728:	e0823003 	add	r3, r2, r3
    a72c:	e5d33000 	ldrb	r3, [r3]
    a730:	e3530079 	cmp	r3, #121	; 0x79
    a734:	1a000014 	bne	a78c <run_func+0x274>
    a738:	e59f0134 	ldr	r0, [pc, #308]	; a874 <run_func+0x35c>
    a73c:	e3a0103f 	mov	r1, #63	; 0x3f
    a740:	e59f2130 	ldr	r2, [pc, #304]	; a878 <run_func+0x360>
    a744:	e3a03000 	mov	r3, #0
    a748:	eb001d00 	bl	11b50 <thread_create>
    a74c:	e59f0128 	ldr	r0, [pc, #296]	; a87c <run_func+0x364>
    a750:	e3a0103f 	mov	r1, #63	; 0x3f
    a754:	e59f2124 	ldr	r2, [pc, #292]	; a880 <run_func+0x368>
    a758:	e3a03000 	mov	r3, #0
    a75c:	eb001cfb 	bl	11b50 <thread_create>
    a760:	e50b001c 	str	r0, [fp, #-28]
    a764:	e51b0010 	ldr	r0, [fp, #-16]
    a768:	e3a0100a 	mov	r1, #10
    a76c:	ebffff3a 	bl	a45c <setPriority>
    a770:	e55b3005 	ldrb	r3, [fp, #-5]
    a774:	e3530000 	cmp	r3, #0
    a778:	0a000002 	beq	a788 <run_func+0x270>
    a77c:	e51b001c 	ldr	r0, [fp, #-28]
    a780:	eb001d6a 	bl	11d30 <thread_wait>
    a784:	ea000033 	b	a858 <run_func+0x340>
    a788:	ea000032 	b	a858 <run_func+0x340>
    a78c:	e51b300c 	ldr	r3, [fp, #-12]
    a790:	e51b2010 	ldr	r2, [fp, #-16]
    a794:	e0823003 	add	r3, r2, r3
    a798:	e5d33000 	ldrb	r3, [r3]
    a79c:	e3530062 	cmp	r3, #98	; 0x62
    a7a0:	1a000029 	bne	a84c <run_func+0x334>
    a7a4:	e51b300c 	ldr	r3, [fp, #-12]
    a7a8:	e2833001 	add	r3, r3, #1
    a7ac:	e51b2010 	ldr	r2, [fp, #-16]
    a7b0:	e0823003 	add	r3, r2, r3
    a7b4:	e5d33000 	ldrb	r3, [r3]
    a7b8:	e3530075 	cmp	r3, #117	; 0x75
    a7bc:	1a000022 	bne	a84c <run_func+0x334>
    a7c0:	e51b300c 	ldr	r3, [fp, #-12]
    a7c4:	e2833002 	add	r3, r3, #2
    a7c8:	e51b2010 	ldr	r2, [fp, #-16]
    a7cc:	e0823003 	add	r3, r2, r3
    a7d0:	e5d33000 	ldrb	r3, [r3]
    a7d4:	e3530073 	cmp	r3, #115	; 0x73
    a7d8:	1a00001b 	bne	a84c <run_func+0x334>
    a7dc:	e51b300c 	ldr	r3, [fp, #-12]
    a7e0:	e2833003 	add	r3, r3, #3
    a7e4:	e51b2010 	ldr	r2, [fp, #-16]
    a7e8:	e0823003 	add	r3, r2, r3
    a7ec:	e5d33000 	ldrb	r3, [r3]
    a7f0:	e3530079 	cmp	r3, #121	; 0x79
    a7f4:	1a000014 	bne	a84c <run_func+0x334>
    a7f8:	e59f0084 	ldr	r0, [pc, #132]	; a884 <run_func+0x36c>
    a7fc:	e3a0103f 	mov	r1, #63	; 0x3f
    a800:	e59f2080 	ldr	r2, [pc, #128]	; a888 <run_func+0x370>
    a804:	e3a03000 	mov	r3, #0
    a808:	eb001cd0 	bl	11b50 <thread_create>
    a80c:	e59f0068 	ldr	r0, [pc, #104]	; a87c <run_func+0x364>
    a810:	e3a0103f 	mov	r1, #63	; 0x3f
    a814:	e59f2064 	ldr	r2, [pc, #100]	; a880 <run_func+0x368>
    a818:	e3a03000 	mov	r3, #0
    a81c:	eb001ccb 	bl	11b50 <thread_create>
    a820:	e50b0020 	str	r0, [fp, #-32]
    a824:	e51b0010 	ldr	r0, [fp, #-16]
    a828:	e3a0100a 	mov	r1, #10
    a82c:	ebffff0a 	bl	a45c <setPriority>
    a830:	e55b3005 	ldrb	r3, [fp, #-5]
    a834:	e3530000 	cmp	r3, #0
    a838:	0a000002 	beq	a848 <run_func+0x330>
    a83c:	e51b0020 	ldr	r0, [fp, #-32]
    a840:	eb001d3a 	bl	11d30 <thread_wait>
    a844:	ea000003 	b	a858 <run_func+0x340>
    a848:	ea000002 	b	a858 <run_func+0x340>
    a84c:	e59f0038 	ldr	r0, [pc, #56]	; a88c <run_func+0x374>
    a850:	eb000e4f 	bl	e194 <printf>
    a854:	ea000000 	b	a85c <run_func+0x344>
    a858:	eb00209d 	bl	12ad4 <disable_priority>
    a85c:	e24bd004 	sub	sp, fp, #4
    a860:	e8bd8800 	pop	{fp, pc}
    a864:	00015bdc 	.word	0x00015bdc
    a868:	0000ac6c 	.word	0x0000ac6c
    a86c:	00015be4 	.word	0x00015be4
    a870:	0000a350 	.word	0x0000a350
    a874:	00015bf0 	.word	0x00015bf0
    a878:	0000a1d4 	.word	0x0000a1d4
    a87c:	00015bf8 	.word	0x00015bf8
    a880:	0000a23c 	.word	0x0000a23c
    a884:	00015c08 	.word	0x00015c08
    a888:	0000a1b0 	.word	0x0000a1b0
    a88c:	00015c10 	.word	0x00015c10

0000a890 <help>:
    a890:	e92d4800 	push	{fp, lr}
    a894:	e28db004 	add	fp, sp, #4
    a898:	e24dd008 	sub	sp, sp, #8
    a89c:	e50b0008 	str	r0, [fp, #-8]
    a8a0:	e59f0020 	ldr	r0, [pc, #32]	; a8c8 <help+0x38>
    a8a4:	ebfffa4c 	bl	91dc <puts>
    a8a8:	e59f001c 	ldr	r0, [pc, #28]	; a8cc <help+0x3c>
    a8ac:	ebfffa4a 	bl	91dc <puts>
    a8b0:	e59f0018 	ldr	r0, [pc, #24]	; a8d0 <help+0x40>
    a8b4:	ebfffa48 	bl	91dc <puts>
    a8b8:	e59f0014 	ldr	r0, [pc, #20]	; a8d4 <help+0x44>
    a8bc:	ebfffa46 	bl	91dc <puts>
    a8c0:	e24bd004 	sub	sp, fp, #4
    a8c4:	e8bd8800 	pop	{fp, pc}
    a8c8:	00015c30 	.word	0x00015c30
    a8cc:	00015c74 	.word	0x00015c74
    a8d0:	00015cb8 	.word	0x00015cb8
    a8d4:	00015cec 	.word	0x00015cec

0000a8d8 <start_shell>:
    a8d8:	e92d4800 	push	{fp, lr}
    a8dc:	e28db004 	add	fp, sp, #4
    a8e0:	e24dd030 	sub	sp, sp, #48	; 0x30
    a8e4:	e50b0030 	str	r0, [fp, #-48]	; 0x30
    a8e8:	e3a0301f 	mov	r3, #31
    a8ec:	e14b30bc 	strh	r3, [fp, #-12]
    a8f0:	e3a03e7e 	mov	r3, #2016	; 0x7e0
    a8f4:	e14b30be 	strh	r3, [fp, #-14]
    a8f8:	e15b30be 	ldrh	r3, [fp, #-14]
    a8fc:	e1a00003 	mov	r0, r3
    a900:	ebfff61b 	bl	8174 <SetForeColour>
    a904:	e59f0220 	ldr	r0, [pc, #544]	; ab2c <start_shell+0x254>
    a908:	ebfffa33 	bl	91dc <puts>
    a90c:	e3a00000 	mov	r0, #0
    a910:	ebffffde 	bl	a890 <help>
    a914:	e59f0210 	ldr	r0, [pc, #528]	; ab2c <start_shell+0x254>
    a918:	ebfffa2f 	bl	91dc <puts>
    a91c:	e59f020c 	ldr	r0, [pc, #524]	; ab30 <start_shell+0x258>
    a920:	eb000e1b 	bl	e194 <printf>
    a924:	e3a0302d 	mov	r3, #45	; 0x2d
    a928:	e54b301e 	strb	r3, [fp, #-30]
    a92c:	e3a0306e 	mov	r3, #110	; 0x6e
    a930:	e54b301d 	strb	r3, [fp, #-29]
    a934:	e3a03070 	mov	r3, #112	; 0x70
    a938:	e54b301d 	strb	r3, [fp, #-29]
    a93c:	e3a03000 	mov	r3, #0
    a940:	e50b3008 	str	r3, [fp, #-8]
    a944:	eb000cf9 	bl	dd30 <uart_getc>
    a948:	e1a03000 	mov	r3, r0
    a94c:	e54b3009 	strb	r3, [fp, #-9]
    a950:	ea00000e 	b	a990 <start_shell+0xb8>
    a954:	e55b3009 	ldrb	r3, [fp, #-9]
    a958:	e1a00003 	mov	r0, r3
    a95c:	ebfffa4a 	bl	928c <putchar>
    a960:	e51b3008 	ldr	r3, [fp, #-8]
    a964:	e2832001 	add	r2, r3, #1
    a968:	e50b2008 	str	r2, [fp, #-8]
    a96c:	e3e02023 	mvn	r2, #35	; 0x23
    a970:	e24b1004 	sub	r1, fp, #4
    a974:	e0813003 	add	r3, r1, r3
    a978:	e0833002 	add	r3, r3, r2
    a97c:	e55b2009 	ldrb	r2, [fp, #-9]
    a980:	e5c32000 	strb	r2, [r3]
    a984:	eb000ce9 	bl	dd30 <uart_getc>
    a988:	e1a03000 	mov	r3, r0
    a98c:	e54b3009 	strb	r3, [fp, #-9]
    a990:	e51b3008 	ldr	r3, [fp, #-8]
    a994:	e3530012 	cmp	r3, #18
    a998:	ca000002 	bgt	a9a8 <start_shell+0xd0>
    a99c:	e55b3009 	ldrb	r3, [fp, #-9]
    a9a0:	e3530071 	cmp	r3, #113	; 0x71
    a9a4:	1affffea 	bne	a954 <start_shell+0x7c>
    a9a8:	e3e03023 	mvn	r3, #35	; 0x23
    a9ac:	e51b2008 	ldr	r2, [fp, #-8]
    a9b0:	e24b1004 	sub	r1, fp, #4
    a9b4:	e0812002 	add	r2, r1, r2
    a9b8:	e0823003 	add	r3, r2, r3
    a9bc:	e3a0200a 	mov	r2, #10
    a9c0:	e5c32000 	strb	r2, [r3]
    a9c4:	e15b20be 	ldrh	r2, [fp, #-14]
    a9c8:	e15b30bc 	ldrh	r3, [fp, #-12]
    a9cc:	e0823003 	add	r3, r2, r3
    a9d0:	e1a00003 	mov	r0, r3
    a9d4:	ebfff5e6 	bl	8174 <SetForeColour>
    a9d8:	e55b3028 	ldrb	r3, [fp, #-40]	; 0x28
    a9dc:	e3530074 	cmp	r3, #116	; 0x74
    a9e0:	1a00000b 	bne	aa14 <start_shell+0x13c>
    a9e4:	e55b3027 	ldrb	r3, [fp, #-39]	; 0x27
    a9e8:	e3530073 	cmp	r3, #115	; 0x73
    a9ec:	1a000008 	bne	aa14 <start_shell+0x13c>
    a9f0:	e59f013c 	ldr	r0, [pc, #316]	; ab34 <start_shell+0x25c>
    a9f4:	e3a0103f 	mov	r1, #63	; 0x3f
    a9f8:	e59f2138 	ldr	r2, [pc, #312]	; ab38 <start_shell+0x260>
    a9fc:	e3a03000 	mov	r3, #0
    aa00:	eb001c52 	bl	11b50 <thread_create>
    aa04:	e50b0014 	str	r0, [fp, #-20]
    aa08:	e51b0014 	ldr	r0, [fp, #-20]
    aa0c:	eb001cc7 	bl	11d30 <thread_wait>
    aa10:	ea00003d 	b	ab0c <start_shell+0x234>
    aa14:	e55b3028 	ldrb	r3, [fp, #-40]	; 0x28
    aa18:	e3530072 	cmp	r3, #114	; 0x72
    aa1c:	1a00000e 	bne	aa5c <start_shell+0x184>
    aa20:	e55b3027 	ldrb	r3, [fp, #-39]	; 0x27
    aa24:	e3530075 	cmp	r3, #117	; 0x75
    aa28:	1a00000b 	bne	aa5c <start_shell+0x184>
    aa2c:	e55b3026 	ldrb	r3, [fp, #-38]	; 0x26
    aa30:	e353006e 	cmp	r3, #110	; 0x6e
    aa34:	1a000008 	bne	aa5c <start_shell+0x184>
    aa38:	e24b3028 	sub	r3, fp, #40	; 0x28
    aa3c:	e59f00f8 	ldr	r0, [pc, #248]	; ab3c <start_shell+0x264>
    aa40:	e3a0103f 	mov	r1, #63	; 0x3f
    aa44:	e59f20f4 	ldr	r2, [pc, #244]	; ab40 <start_shell+0x268>
    aa48:	eb001c40 	bl	11b50 <thread_create>
    aa4c:	e50b0014 	str	r0, [fp, #-20]
    aa50:	e51b0014 	ldr	r0, [fp, #-20]
    aa54:	eb001cb5 	bl	11d30 <thread_wait>
    aa58:	ea00002b 	b	ab0c <start_shell+0x234>
    aa5c:	e55b3028 	ldrb	r3, [fp, #-40]	; 0x28
    aa60:	e3530062 	cmp	r3, #98	; 0x62
    aa64:	1a000009 	bne	aa90 <start_shell+0x1b8>
    aa68:	e55b3027 	ldrb	r3, [fp, #-39]	; 0x27
    aa6c:	e3530067 	cmp	r3, #103	; 0x67
    aa70:	1a000006 	bne	aa90 <start_shell+0x1b8>
    aa74:	e24b3028 	sub	r3, fp, #40	; 0x28
    aa78:	e59f00c4 	ldr	r0, [pc, #196]	; ab44 <start_shell+0x26c>
    aa7c:	e3a0103f 	mov	r1, #63	; 0x3f
    aa80:	e59f20b8 	ldr	r2, [pc, #184]	; ab40 <start_shell+0x268>
    aa84:	eb001c31 	bl	11b50 <thread_create>
    aa88:	e50b0014 	str	r0, [fp, #-20]
    aa8c:	ea00001e 	b	ab0c <start_shell+0x234>
    aa90:	e55b3028 	ldrb	r3, [fp, #-40]	; 0x28
    aa94:	e3530068 	cmp	r3, #104	; 0x68
    aa98:	1a00000b 	bne	aacc <start_shell+0x1f4>
    aa9c:	e55b3027 	ldrb	r3, [fp, #-39]	; 0x27
    aaa0:	e3530065 	cmp	r3, #101	; 0x65
    aaa4:	1a000008 	bne	aacc <start_shell+0x1f4>
    aaa8:	e55b3026 	ldrb	r3, [fp, #-38]	; 0x26
    aaac:	e353006c 	cmp	r3, #108	; 0x6c
    aab0:	1a000005 	bne	aacc <start_shell+0x1f4>
    aab4:	e55b3025 	ldrb	r3, [fp, #-37]	; 0x25
    aab8:	e3530070 	cmp	r3, #112	; 0x70
    aabc:	1a000002 	bne	aacc <start_shell+0x1f4>
    aac0:	e3a00000 	mov	r0, #0
    aac4:	ebffff83 	bl	a8d8 <start_shell>
    aac8:	ea00000f 	b	ab0c <start_shell+0x234>
    aacc:	e55b3028 	ldrb	r3, [fp, #-40]	; 0x28
    aad0:	e3530065 	cmp	r3, #101	; 0x65
    aad4:	1a000008 	bne	aafc <start_shell+0x224>
    aad8:	e55b3027 	ldrb	r3, [fp, #-39]	; 0x27
    aadc:	e3530078 	cmp	r3, #120	; 0x78
    aae0:	1a000005 	bne	aafc <start_shell+0x224>
    aae4:	e55b3026 	ldrb	r3, [fp, #-38]	; 0x26
    aae8:	e3530069 	cmp	r3, #105	; 0x69
    aaec:	1a000002 	bne	aafc <start_shell+0x224>
    aaf0:	e55b3025 	ldrb	r3, [fp, #-37]	; 0x25
    aaf4:	e3530074 	cmp	r3, #116	; 0x74
    aaf8:	0a000009 	beq	ab24 <start_shell+0x24c>
    aafc:	e59f0044 	ldr	r0, [pc, #68]	; ab48 <start_shell+0x270>
    ab00:	ebfff9b5 	bl	91dc <puts>
    ab04:	e3a00000 	mov	r0, #0
    ab08:	ebffff72 	bl	a8d8 <start_shell>
    ab0c:	e15b30be 	ldrh	r3, [fp, #-14]
    ab10:	e1a00003 	mov	r0, r3
    ab14:	ebfff596 	bl	8174 <SetForeColour>
    ab18:	e59f0010 	ldr	r0, [pc, #16]	; ab30 <start_shell+0x258>
    ab1c:	eb000d9c 	bl	e194 <printf>
    ab20:	eaffff7d 	b	a91c <start_shell+0x44>
    ab24:	e24bd004 	sub	sp, fp, #4
    ab28:	e8bd8800 	pop	{fp, pc}
    ab2c:	00015d10 	.word	0x00015d10
    ab30:	00015d44 	.word	0x00015d44
    ab34:	00015bf8 	.word	0x00015bf8
    ab38:	0000a23c 	.word	0x0000a23c
    ab3c:	00015d50 	.word	0x00015d50
    ab40:	0000a518 	.word	0x0000a518
    ab44:	00015d60 	.word	0x00015d60
    ab48:	00015d6c 	.word	0x00015d6c

0000ab4c <prepare_bread_test>:
    ab4c:	e92d4800 	push	{fp, lr}
    ab50:	e28db004 	add	fp, sp, #4
    ab54:	e24dd008 	sub	sp, sp, #8
    ab58:	e50b0008 	str	r0, [fp, #-8]
    ab5c:	e3a0000a 	mov	r0, #10
    ab60:	ebfff9c9 	bl	928c <putchar>
    ab64:	eb001cf6 	bl	11f44 <thread_current>
    ab68:	e1a03000 	mov	r3, r0
    ab6c:	e2833005 	add	r3, r3, #5
    ab70:	e59f0034 	ldr	r0, [pc, #52]	; abac <prepare_bread_test+0x60>
    ab74:	e1a01003 	mov	r1, r3
    ab78:	eb000d85 	bl	e194 <printf>
    ab7c:	e59f002c 	ldr	r0, [pc, #44]	; abb0 <prepare_bread_test+0x64>
    ab80:	eb001a6e 	bl	11540 <timer_msleep>
    ab84:	eb001cee 	bl	11f44 <thread_current>
    ab88:	e1a03000 	mov	r3, r0
    ab8c:	e2833005 	add	r3, r3, #5
    ab90:	e59f001c 	ldr	r0, [pc, #28]	; abb4 <prepare_bread_test+0x68>
    ab94:	e1a01003 	mov	r1, r3
    ab98:	eb000d7d 	bl	e194 <printf>
    ab9c:	e3a0000a 	mov	r0, #10
    aba0:	ebfff9b9 	bl	928c <putchar>
    aba4:	e24bd004 	sub	sp, fp, #4
    aba8:	e8bd8800 	pop	{fp, pc}
    abac:	00015d94 	.word	0x00015d94
    abb0:	000f4240 	.word	0x000f4240
    abb4:	00015db8 	.word	0x00015db8

0000abb8 <cook_pizza_test>:
    abb8:	e92d4800 	push	{fp, lr}
    abbc:	e28db004 	add	fp, sp, #4
    abc0:	e24dd010 	sub	sp, sp, #16
    abc4:	e50b0010 	str	r0, [fp, #-16]
    abc8:	e59f0078 	ldr	r0, [pc, #120]	; ac48 <cook_pizza_test+0x90>
    abcc:	ebfff982 	bl	91dc <puts>
    abd0:	e59f0074 	ldr	r0, [pc, #116]	; ac4c <cook_pizza_test+0x94>
    abd4:	e3a0101f 	mov	r1, #31
    abd8:	e59f2070 	ldr	r2, [pc, #112]	; ac50 <cook_pizza_test+0x98>
    abdc:	e3a03000 	mov	r3, #0
    abe0:	eb001bda 	bl	11b50 <thread_create>
    abe4:	e59f0068 	ldr	r0, [pc, #104]	; ac54 <cook_pizza_test+0x9c>
    abe8:	e3a01000 	mov	r1, #0
    abec:	e59f205c 	ldr	r2, [pc, #92]	; ac50 <cook_pizza_test+0x98>
    abf0:	e3a03000 	mov	r3, #0
    abf4:	eb001bd5 	bl	11b50 <thread_create>
    abf8:	e50b0008 	str	r0, [fp, #-8]
    abfc:	e59f0054 	ldr	r0, [pc, #84]	; ac58 <cook_pizza_test+0xa0>
    ac00:	e3a01020 	mov	r1, #32
    ac04:	e59f2044 	ldr	r2, [pc, #68]	; ac50 <cook_pizza_test+0x98>
    ac08:	e3a03000 	mov	r3, #0
    ac0c:	eb001bcf 	bl	11b50 <thread_create>
    ac10:	e59f0044 	ldr	r0, [pc, #68]	; ac5c <cook_pizza_test+0xa4>
    ac14:	ebfff970 	bl	91dc <puts>
    ac18:	e59f0040 	ldr	r0, [pc, #64]	; ac60 <cook_pizza_test+0xa8>
    ac1c:	ebfff96e 	bl	91dc <puts>
    ac20:	e51b0008 	ldr	r0, [fp, #-8]
    ac24:	eb001c41 	bl	11d30 <thread_wait>
    ac28:	e59f0034 	ldr	r0, [pc, #52]	; ac64 <cook_pizza_test+0xac>
    ac2c:	ebfff96a 	bl	91dc <puts>
    ac30:	e59f0030 	ldr	r0, [pc, #48]	; ac68 <cook_pizza_test+0xb0>
    ac34:	ebfff968 	bl	91dc <puts>
    ac38:	e3a0000a 	mov	r0, #10
    ac3c:	ebfff992 	bl	928c <putchar>
    ac40:	e24bd004 	sub	sp, fp, #4
    ac44:	e8bd8800 	pop	{fp, pc}
    ac48:	00015ddc 	.word	0x00015ddc
    ac4c:	00015e04 	.word	0x00015e04
    ac50:	0000ab4c 	.word	0x0000ab4c
    ac54:	00015e0c 	.word	0x00015e0c
    ac58:	00015e18 	.word	0x00015e18
    ac5c:	00015e24 	.word	0x00015e24
    ac60:	00015e48 	.word	0x00015e48
    ac64:	00015e70 	.word	0x00015e70
    ac68:	00015ea0 	.word	0x00015ea0

0000ac6c <wait_pizza_test>:
    ac6c:	e92d4800 	push	{fp, lr}
    ac70:	e28db004 	add	fp, sp, #4
    ac74:	e24dd010 	sub	sp, sp, #16
    ac78:	e50b0010 	str	r0, [fp, #-16]
    ac7c:	e3a0000a 	mov	r0, #10
    ac80:	ebfff981 	bl	928c <putchar>
    ac84:	e59f0030 	ldr	r0, [pc, #48]	; acbc <wait_pizza_test+0x50>
    ac88:	ebfff953 	bl	91dc <puts>
    ac8c:	e59f002c 	ldr	r0, [pc, #44]	; acc0 <wait_pizza_test+0x54>
    ac90:	e3a0103f 	mov	r1, #63	; 0x3f
    ac94:	e59f2028 	ldr	r2, [pc, #40]	; acc4 <wait_pizza_test+0x58>
    ac98:	e3a03000 	mov	r3, #0
    ac9c:	eb001bab 	bl	11b50 <thread_create>
    aca0:	e50b0008 	str	r0, [fp, #-8]
    aca4:	e51b0008 	ldr	r0, [fp, #-8]
    aca8:	eb001c20 	bl	11d30 <thread_wait>
    acac:	e3a0000a 	mov	r0, #10
    acb0:	ebfff975 	bl	928c <putchar>
    acb4:	e24bd004 	sub	sp, fp, #4
    acb8:	e8bd8800 	pop	{fp, pc}
    acbc:	00015eb0 	.word	0x00015eb0
    acc0:	00015ec0 	.word	0x00015ec0
    acc4:	0000abb8 	.word	0x0000abb8

0000acc8 <prepare_pizza_test>:
    acc8:	e92d4800 	push	{fp, lr}
    accc:	e28db004 	add	fp, sp, #4
    acd0:	e24dd008 	sub	sp, sp, #8
    acd4:	e50b0008 	str	r0, [fp, #-8]
    acd8:	e3a0000a 	mov	r0, #10
    acdc:	ebfff96a 	bl	928c <putchar>
    ace0:	e59f0020 	ldr	r0, [pc, #32]	; ad08 <prepare_pizza_test+0x40>
    ace4:	ebfff93c 	bl	91dc <puts>
    ace8:	e59f001c 	ldr	r0, [pc, #28]	; ad0c <prepare_pizza_test+0x44>
    acec:	eb001a13 	bl	11540 <timer_msleep>
    acf0:	e3a0000a 	mov	r0, #10
    acf4:	ebfff964 	bl	928c <putchar>
    acf8:	e59f0010 	ldr	r0, [pc, #16]	; ad10 <prepare_pizza_test+0x48>
    acfc:	eb00001d 	bl	ad78 <t_exit>
    ad00:	e24bd004 	sub	sp, fp, #4
    ad04:	e8bd8800 	pop	{fp, pc}
    ad08:	00015ecc 	.word	0x00015ecc
    ad0c:	000f4240 	.word	0x000f4240
    ad10:	0001909c 	.word	0x0001909c

0000ad14 <t_wait>:
    ad14:	e92d4800 	push	{fp, lr}
    ad18:	e28db004 	add	fp, sp, #4
    ad1c:	e24dd008 	sub	sp, sp, #8
    ad20:	e50b0008 	str	r0, [fp, #-8]
    ad24:	e51b3008 	ldr	r3, [fp, #-8]
    ad28:	e1a00003 	mov	r0, r3
    ad2c:	eb00188a 	bl	10f5c <lock_acquire>
    ad30:	ea000005 	b	ad4c <t_wait+0x38>
    ad34:	e51b3008 	ldr	r3, [fp, #-8]
    ad38:	e2832018 	add	r2, r3, #24
    ad3c:	e51b3008 	ldr	r3, [fp, #-8]
    ad40:	e1a00002 	mov	r0, r2
    ad44:	e1a01003 	mov	r1, r3
    ad48:	eb001930 	bl	11210 <cond_wait>
    ad4c:	e51b3008 	ldr	r3, [fp, #-8]
    ad50:	e5d33028 	ldrb	r3, [r3, #40]	; 0x28
    ad54:	e2233001 	eor	r3, r3, #1
    ad58:	e6ef3073 	uxtb	r3, r3
    ad5c:	e3530000 	cmp	r3, #0
    ad60:	1afffff3 	bne	ad34 <t_wait+0x20>
    ad64:	e51b3008 	ldr	r3, [fp, #-8]
    ad68:	e1a00003 	mov	r0, r3
    ad6c:	eb0018d6 	bl	110cc <lock_release>
    ad70:	e24bd004 	sub	sp, fp, #4
    ad74:	e8bd8800 	pop	{fp, pc}

0000ad78 <t_exit>:
    ad78:	e92d4800 	push	{fp, lr}
    ad7c:	e28db004 	add	fp, sp, #4
    ad80:	e24dd008 	sub	sp, sp, #8
    ad84:	e50b0008 	str	r0, [fp, #-8]
    ad88:	e51b3008 	ldr	r3, [fp, #-8]
    ad8c:	e1a00003 	mov	r0, r3
    ad90:	eb001871 	bl	10f5c <lock_acquire>
    ad94:	e51b3008 	ldr	r3, [fp, #-8]
    ad98:	e3a02001 	mov	r2, #1
    ad9c:	e5c32028 	strb	r2, [r3, #40]	; 0x28
    ada0:	e51b3008 	ldr	r3, [fp, #-8]
    ada4:	e2832018 	add	r2, r3, #24
    ada8:	e51b3008 	ldr	r3, [fp, #-8]
    adac:	e1a00002 	mov	r0, r2
    adb0:	e1a01003 	mov	r1, r3
    adb4:	eb001959 	bl	11320 <cond_signal>
    adb8:	e51b3008 	ldr	r3, [fp, #-8]
    adbc:	e1a00003 	mov	r0, r3
    adc0:	eb0018c1 	bl	110cc <lock_release>
    adc4:	e24bd004 	sub	sp, fp, #4
    adc8:	e8bd8800 	pop	{fp, pc}

0000adcc <is_head>:
    adcc:	e52db004 	push	{fp}		; (str fp, [sp, #-4]!)
    add0:	e28db000 	add	fp, sp, #0
    add4:	e24dd00c 	sub	sp, sp, #12
    add8:	e50b0008 	str	r0, [fp, #-8]
    addc:	e51b3008 	ldr	r3, [fp, #-8]
    ade0:	e3530000 	cmp	r3, #0
    ade4:	0a000009 	beq	ae10 <is_head+0x44>
    ade8:	e51b3008 	ldr	r3, [fp, #-8]
    adec:	e5933000 	ldr	r3, [r3]
    adf0:	e3530000 	cmp	r3, #0
    adf4:	1a000005 	bne	ae10 <is_head+0x44>
    adf8:	e51b3008 	ldr	r3, [fp, #-8]
    adfc:	e5933004 	ldr	r3, [r3, #4]
    ae00:	e3530000 	cmp	r3, #0
    ae04:	0a000001 	beq	ae10 <is_head+0x44>
    ae08:	e3a03001 	mov	r3, #1
    ae0c:	ea000000 	b	ae14 <is_head+0x48>
    ae10:	e3a03000 	mov	r3, #0
    ae14:	e2033001 	and	r3, r3, #1
    ae18:	e6ef3073 	uxtb	r3, r3
    ae1c:	e1a00003 	mov	r0, r3
    ae20:	e24bd000 	sub	sp, fp, #0
    ae24:	e49db004 	pop	{fp}		; (ldr fp, [sp], #4)
    ae28:	e12fff1e 	bx	lr

0000ae2c <is_interior>:
    ae2c:	e52db004 	push	{fp}		; (str fp, [sp, #-4]!)
    ae30:	e28db000 	add	fp, sp, #0
    ae34:	e24dd00c 	sub	sp, sp, #12
    ae38:	e50b0008 	str	r0, [fp, #-8]
    ae3c:	e51b3008 	ldr	r3, [fp, #-8]
    ae40:	e3530000 	cmp	r3, #0
    ae44:	0a000009 	beq	ae70 <is_interior+0x44>
    ae48:	e51b3008 	ldr	r3, [fp, #-8]
    ae4c:	e5933000 	ldr	r3, [r3]
    ae50:	e3530000 	cmp	r3, #0
    ae54:	0a000005 	beq	ae70 <is_interior+0x44>
    ae58:	e51b3008 	ldr	r3, [fp, #-8]
    ae5c:	e5933004 	ldr	r3, [r3, #4]
    ae60:	e3530000 	cmp	r3, #0
    ae64:	0a000001 	beq	ae70 <is_interior+0x44>
    ae68:	e3a03001 	mov	r3, #1
    ae6c:	ea000000 	b	ae74 <is_interior+0x48>
    ae70:	e3a03000 	mov	r3, #0
    ae74:	e2033001 	and	r3, r3, #1
    ae78:	e6ef3073 	uxtb	r3, r3
    ae7c:	e1a00003 	mov	r0, r3
    ae80:	e24bd000 	sub	sp, fp, #0
    ae84:	e49db004 	pop	{fp}		; (ldr fp, [sp], #4)
    ae88:	e12fff1e 	bx	lr

0000ae8c <is_tail>:
    ae8c:	e52db004 	push	{fp}		; (str fp, [sp, #-4]!)
    ae90:	e28db000 	add	fp, sp, #0
    ae94:	e24dd00c 	sub	sp, sp, #12
    ae98:	e50b0008 	str	r0, [fp, #-8]
    ae9c:	e51b3008 	ldr	r3, [fp, #-8]
    aea0:	e3530000 	cmp	r3, #0
    aea4:	0a000009 	beq	aed0 <is_tail+0x44>
    aea8:	e51b3008 	ldr	r3, [fp, #-8]
    aeac:	e5933000 	ldr	r3, [r3]
    aeb0:	e3530000 	cmp	r3, #0
    aeb4:	0a000005 	beq	aed0 <is_tail+0x44>
    aeb8:	e51b3008 	ldr	r3, [fp, #-8]
    aebc:	e5933004 	ldr	r3, [r3, #4]
    aec0:	e3530000 	cmp	r3, #0
    aec4:	1a000001 	bne	aed0 <is_tail+0x44>
    aec8:	e3a03001 	mov	r3, #1
    aecc:	ea000000 	b	aed4 <is_tail+0x48>
    aed0:	e3a03000 	mov	r3, #0
    aed4:	e2033001 	and	r3, r3, #1
    aed8:	e6ef3073 	uxtb	r3, r3
    aedc:	e1a00003 	mov	r0, r3
    aee0:	e24bd000 	sub	sp, fp, #0
    aee4:	e49db004 	pop	{fp}		; (ldr fp, [sp], #4)
    aee8:	e12fff1e 	bx	lr

0000aeec <list_init>:
    aeec:	e92d4800 	push	{fp, lr}
    aef0:	e28db004 	add	fp, sp, #4
    aef4:	e24dd008 	sub	sp, sp, #8
    aef8:	e50b0008 	str	r0, [fp, #-8]
    aefc:	e51b3008 	ldr	r3, [fp, #-8]
    af00:	e3530000 	cmp	r3, #0
    af04:	1a000004 	bne	af1c <list_init+0x30>
    af08:	e59f0048 	ldr	r0, [pc, #72]	; af58 <list_init+0x6c>
    af0c:	e3a01041 	mov	r1, #65	; 0x41
    af10:	e59f2044 	ldr	r2, [pc, #68]	; af5c <list_init+0x70>
    af14:	e59f3044 	ldr	r3, [pc, #68]	; af60 <list_init+0x74>
    af18:	ebfff91b 	bl	938c <debug_panic>
    af1c:	e51b3008 	ldr	r3, [fp, #-8]
    af20:	e3a02000 	mov	r2, #0
    af24:	e5832000 	str	r2, [r3]
    af28:	e51b3008 	ldr	r3, [fp, #-8]
    af2c:	e2832008 	add	r2, r3, #8
    af30:	e51b3008 	ldr	r3, [fp, #-8]
    af34:	e5832004 	str	r2, [r3, #4]
    af38:	e51b2008 	ldr	r2, [fp, #-8]
    af3c:	e51b3008 	ldr	r3, [fp, #-8]
    af40:	e5832008 	str	r2, [r3, #8]
    af44:	e51b3008 	ldr	r3, [fp, #-8]
    af48:	e3a02000 	mov	r2, #0
    af4c:	e583200c 	str	r2, [r3, #12]
    af50:	e24bd004 	sub	sp, fp, #4
    af54:	e8bd8800 	pop	{fp, pc}
    af58:	00015f08 	.word	0x00015f08
    af5c:	00015f30 	.word	0x00015f30
    af60:	00015f1c 	.word	0x00015f1c

0000af64 <list_begin>:
    af64:	e92d4800 	push	{fp, lr}
    af68:	e28db004 	add	fp, sp, #4
    af6c:	e24dd008 	sub	sp, sp, #8
    af70:	e50b0008 	str	r0, [fp, #-8]
    af74:	e51b3008 	ldr	r3, [fp, #-8]
    af78:	e3530000 	cmp	r3, #0
    af7c:	1a000004 	bne	af94 <list_begin+0x30>
    af80:	e59f0020 	ldr	r0, [pc, #32]	; afa8 <list_begin+0x44>
    af84:	e3a0104c 	mov	r1, #76	; 0x4c
    af88:	e59f201c 	ldr	r2, [pc, #28]	; afac <list_begin+0x48>
    af8c:	e59f301c 	ldr	r3, [pc, #28]	; afb0 <list_begin+0x4c>
    af90:	ebfff8fd 	bl	938c <debug_panic>
    af94:	e51b3008 	ldr	r3, [fp, #-8]
    af98:	e5933004 	ldr	r3, [r3, #4]
    af9c:	e1a00003 	mov	r0, r3
    afa0:	e24bd004 	sub	sp, fp, #4
    afa4:	e8bd8800 	pop	{fp, pc}
    afa8:	00015f08 	.word	0x00015f08
    afac:	00015f3c 	.word	0x00015f3c
    afb0:	00015f1c 	.word	0x00015f1c

0000afb4 <list_next>:
    afb4:	e92d4800 	push	{fp, lr}
    afb8:	e28db004 	add	fp, sp, #4
    afbc:	e24dd008 	sub	sp, sp, #8
    afc0:	e50b0008 	str	r0, [fp, #-8]
    afc4:	e51b0008 	ldr	r0, [fp, #-8]
    afc8:	ebffff7f 	bl	adcc <is_head>
    afcc:	e1a03000 	mov	r3, r0
    afd0:	e3530000 	cmp	r3, #0
    afd4:	1a000009 	bne	b000 <list_next+0x4c>
    afd8:	e51b0008 	ldr	r0, [fp, #-8]
    afdc:	ebffff92 	bl	ae2c <is_interior>
    afe0:	e1a03000 	mov	r3, r0
    afe4:	e3530000 	cmp	r3, #0
    afe8:	1a000004 	bne	b000 <list_next+0x4c>
    afec:	e59f0020 	ldr	r0, [pc, #32]	; b014 <list_next+0x60>
    aff0:	e3a01056 	mov	r1, #86	; 0x56
    aff4:	e59f201c 	ldr	r2, [pc, #28]	; b018 <list_next+0x64>
    aff8:	e59f301c 	ldr	r3, [pc, #28]	; b01c <list_next+0x68>
    affc:	ebfff8e2 	bl	938c <debug_panic>
    b000:	e51b3008 	ldr	r3, [fp, #-8]
    b004:	e5933004 	ldr	r3, [r3, #4]
    b008:	e1a00003 	mov	r0, r3
    b00c:	e24bd004 	sub	sp, fp, #4
    b010:	e8bd8800 	pop	{fp, pc}
    b014:	00015f08 	.word	0x00015f08
    b018:	00015f48 	.word	0x00015f48
    b01c:	00015f1c 	.word	0x00015f1c

0000b020 <list_end>:
    b020:	e92d4800 	push	{fp, lr}
    b024:	e28db004 	add	fp, sp, #4
    b028:	e24dd008 	sub	sp, sp, #8
    b02c:	e50b0008 	str	r0, [fp, #-8]
    b030:	e51b3008 	ldr	r3, [fp, #-8]
    b034:	e3530000 	cmp	r3, #0
    b038:	1a000004 	bne	b050 <list_end+0x30>
    b03c:	e59f0020 	ldr	r0, [pc, #32]	; b064 <list_end+0x44>
    b040:	e3a01062 	mov	r1, #98	; 0x62
    b044:	e59f201c 	ldr	r2, [pc, #28]	; b068 <list_end+0x48>
    b048:	e59f301c 	ldr	r3, [pc, #28]	; b06c <list_end+0x4c>
    b04c:	ebfff8ce 	bl	938c <debug_panic>
    b050:	e51b3008 	ldr	r3, [fp, #-8]
    b054:	e2833008 	add	r3, r3, #8
    b058:	e1a00003 	mov	r0, r3
    b05c:	e24bd004 	sub	sp, fp, #4
    b060:	e8bd8800 	pop	{fp, pc}
    b064:	00015f08 	.word	0x00015f08
    b068:	00015f54 	.word	0x00015f54
    b06c:	00015f1c 	.word	0x00015f1c

0000b070 <list_rbegin>:
    b070:	e92d4800 	push	{fp, lr}
    b074:	e28db004 	add	fp, sp, #4
    b078:	e24dd008 	sub	sp, sp, #8
    b07c:	e50b0008 	str	r0, [fp, #-8]
    b080:	e51b3008 	ldr	r3, [fp, #-8]
    b084:	e3530000 	cmp	r3, #0
    b088:	1a000004 	bne	b0a0 <list_rbegin+0x30>
    b08c:	e59f0020 	ldr	r0, [pc, #32]	; b0b4 <list_rbegin+0x44>
    b090:	e3a0106b 	mov	r1, #107	; 0x6b
    b094:	e59f201c 	ldr	r2, [pc, #28]	; b0b8 <list_rbegin+0x48>
    b098:	e59f301c 	ldr	r3, [pc, #28]	; b0bc <list_rbegin+0x4c>
    b09c:	ebfff8ba 	bl	938c <debug_panic>
    b0a0:	e51b3008 	ldr	r3, [fp, #-8]
    b0a4:	e5933008 	ldr	r3, [r3, #8]
    b0a8:	e1a00003 	mov	r0, r3
    b0ac:	e24bd004 	sub	sp, fp, #4
    b0b0:	e8bd8800 	pop	{fp, pc}
    b0b4:	00015f08 	.word	0x00015f08
    b0b8:	00015f60 	.word	0x00015f60
    b0bc:	00015f1c 	.word	0x00015f1c

0000b0c0 <list_prev>:
    b0c0:	e92d4800 	push	{fp, lr}
    b0c4:	e28db004 	add	fp, sp, #4
    b0c8:	e24dd008 	sub	sp, sp, #8
    b0cc:	e50b0008 	str	r0, [fp, #-8]
    b0d0:	e51b0008 	ldr	r0, [fp, #-8]
    b0d4:	ebffff54 	bl	ae2c <is_interior>
    b0d8:	e1a03000 	mov	r3, r0
    b0dc:	e3530000 	cmp	r3, #0
    b0e0:	1a000009 	bne	b10c <list_prev+0x4c>
    b0e4:	e51b0008 	ldr	r0, [fp, #-8]
    b0e8:	ebffff67 	bl	ae8c <is_tail>
    b0ec:	e1a03000 	mov	r3, r0
    b0f0:	e3530000 	cmp	r3, #0
    b0f4:	1a000004 	bne	b10c <list_prev+0x4c>
    b0f8:	e59f0020 	ldr	r0, [pc, #32]	; b120 <list_prev+0x60>
    b0fc:	e3a01075 	mov	r1, #117	; 0x75
    b100:	e59f201c 	ldr	r2, [pc, #28]	; b124 <list_prev+0x64>
    b104:	e59f301c 	ldr	r3, [pc, #28]	; b128 <list_prev+0x68>
    b108:	ebfff89f 	bl	938c <debug_panic>
    b10c:	e51b3008 	ldr	r3, [fp, #-8]
    b110:	e5933000 	ldr	r3, [r3]
    b114:	e1a00003 	mov	r0, r3
    b118:	e24bd004 	sub	sp, fp, #4
    b11c:	e8bd8800 	pop	{fp, pc}
    b120:	00015f08 	.word	0x00015f08
    b124:	00015f6c 	.word	0x00015f6c
    b128:	00015f1c 	.word	0x00015f1c

0000b12c <list_rend>:
    b12c:	e92d4800 	push	{fp, lr}
    b130:	e28db004 	add	fp, sp, #4
    b134:	e24dd008 	sub	sp, sp, #8
    b138:	e50b0008 	str	r0, [fp, #-8]
    b13c:	e51b3008 	ldr	r3, [fp, #-8]
    b140:	e3530000 	cmp	r3, #0
    b144:	1a000004 	bne	b15c <list_rend+0x30>
    b148:	e59f001c 	ldr	r0, [pc, #28]	; b16c <list_rend+0x40>
    b14c:	e3a01089 	mov	r1, #137	; 0x89
    b150:	e59f2018 	ldr	r2, [pc, #24]	; b170 <list_rend+0x44>
    b154:	e59f3018 	ldr	r3, [pc, #24]	; b174 <list_rend+0x48>
    b158:	ebfff88b 	bl	938c <debug_panic>
    b15c:	e51b3008 	ldr	r3, [fp, #-8]
    b160:	e1a00003 	mov	r0, r3
    b164:	e24bd004 	sub	sp, fp, #4
    b168:	e8bd8800 	pop	{fp, pc}
    b16c:	00015f08 	.word	0x00015f08
    b170:	00015f78 	.word	0x00015f78
    b174:	00015f1c 	.word	0x00015f1c

0000b178 <list_head>:
    b178:	e92d4800 	push	{fp, lr}
    b17c:	e28db004 	add	fp, sp, #4
    b180:	e24dd008 	sub	sp, sp, #8
    b184:	e50b0008 	str	r0, [fp, #-8]
    b188:	e51b3008 	ldr	r3, [fp, #-8]
    b18c:	e3530000 	cmp	r3, #0
    b190:	1a000004 	bne	b1a8 <list_head+0x30>
    b194:	e59f001c 	ldr	r0, [pc, #28]	; b1b8 <list_head+0x40>
    b198:	e3a0109b 	mov	r1, #155	; 0x9b
    b19c:	e59f2018 	ldr	r2, [pc, #24]	; b1bc <list_head+0x44>
    b1a0:	e59f3018 	ldr	r3, [pc, #24]	; b1c0 <list_head+0x48>
    b1a4:	ebfff878 	bl	938c <debug_panic>
    b1a8:	e51b3008 	ldr	r3, [fp, #-8]
    b1ac:	e1a00003 	mov	r0, r3
    b1b0:	e24bd004 	sub	sp, fp, #4
    b1b4:	e8bd8800 	pop	{fp, pc}
    b1b8:	00015f08 	.word	0x00015f08
    b1bc:	00015f84 	.word	0x00015f84
    b1c0:	00015f1c 	.word	0x00015f1c

0000b1c4 <list_tail>:
    b1c4:	e92d4800 	push	{fp, lr}
    b1c8:	e28db004 	add	fp, sp, #4
    b1cc:	e24dd008 	sub	sp, sp, #8
    b1d0:	e50b0008 	str	r0, [fp, #-8]
    b1d4:	e51b3008 	ldr	r3, [fp, #-8]
    b1d8:	e3530000 	cmp	r3, #0
    b1dc:	1a000004 	bne	b1f4 <list_tail+0x30>
    b1e0:	e59f0020 	ldr	r0, [pc, #32]	; b208 <list_tail+0x44>
    b1e4:	e3a010a3 	mov	r1, #163	; 0xa3
    b1e8:	e59f201c 	ldr	r2, [pc, #28]	; b20c <list_tail+0x48>
    b1ec:	e59f301c 	ldr	r3, [pc, #28]	; b210 <list_tail+0x4c>
    b1f0:	ebfff865 	bl	938c <debug_panic>
    b1f4:	e51b3008 	ldr	r3, [fp, #-8]
    b1f8:	e2833008 	add	r3, r3, #8
    b1fc:	e1a00003 	mov	r0, r3
    b200:	e24bd004 	sub	sp, fp, #4
    b204:	e8bd8800 	pop	{fp, pc}
    b208:	00015f08 	.word	0x00015f08
    b20c:	00015f90 	.word	0x00015f90
    b210:	00015f1c 	.word	0x00015f1c

0000b214 <list_insert>:
    b214:	e92d4800 	push	{fp, lr}
    b218:	e28db004 	add	fp, sp, #4
    b21c:	e24dd008 	sub	sp, sp, #8
    b220:	e50b0008 	str	r0, [fp, #-8]
    b224:	e50b100c 	str	r1, [fp, #-12]
    b228:	e51b0008 	ldr	r0, [fp, #-8]
    b22c:	ebfffefe 	bl	ae2c <is_interior>
    b230:	e1a03000 	mov	r3, r0
    b234:	e3530000 	cmp	r3, #0
    b238:	1a000009 	bne	b264 <list_insert+0x50>
    b23c:	e51b0008 	ldr	r0, [fp, #-8]
    b240:	ebffff11 	bl	ae8c <is_tail>
    b244:	e1a03000 	mov	r3, r0
    b248:	e3530000 	cmp	r3, #0
    b24c:	1a000004 	bne	b264 <list_insert+0x50>
    b250:	e59f006c 	ldr	r0, [pc, #108]	; b2c4 <list_insert+0xb0>
    b254:	e3a010ad 	mov	r1, #173	; 0xad
    b258:	e59f2068 	ldr	r2, [pc, #104]	; b2c8 <list_insert+0xb4>
    b25c:	e59f3068 	ldr	r3, [pc, #104]	; b2cc <list_insert+0xb8>
    b260:	ebfff849 	bl	938c <debug_panic>
    b264:	e51b300c 	ldr	r3, [fp, #-12]
    b268:	e3530000 	cmp	r3, #0
    b26c:	1a000004 	bne	b284 <list_insert+0x70>
    b270:	e59f004c 	ldr	r0, [pc, #76]	; b2c4 <list_insert+0xb0>
    b274:	e3a010ae 	mov	r1, #174	; 0xae
    b278:	e59f2048 	ldr	r2, [pc, #72]	; b2c8 <list_insert+0xb4>
    b27c:	e59f3048 	ldr	r3, [pc, #72]	; b2cc <list_insert+0xb8>
    b280:	ebfff841 	bl	938c <debug_panic>
    b284:	e51b3008 	ldr	r3, [fp, #-8]
    b288:	e5932000 	ldr	r2, [r3]
    b28c:	e51b300c 	ldr	r3, [fp, #-12]
    b290:	e5832000 	str	r2, [r3]
    b294:	e51b300c 	ldr	r3, [fp, #-12]
    b298:	e51b2008 	ldr	r2, [fp, #-8]
    b29c:	e5832004 	str	r2, [r3, #4]
    b2a0:	e51b3008 	ldr	r3, [fp, #-8]
    b2a4:	e5933000 	ldr	r3, [r3]
    b2a8:	e51b200c 	ldr	r2, [fp, #-12]
    b2ac:	e5832004 	str	r2, [r3, #4]
    b2b0:	e51b3008 	ldr	r3, [fp, #-8]
    b2b4:	e51b200c 	ldr	r2, [fp, #-12]
    b2b8:	e5832000 	str	r2, [r3]
    b2bc:	e24bd004 	sub	sp, fp, #4
    b2c0:	e8bd8800 	pop	{fp, pc}
    b2c4:	00015f08 	.word	0x00015f08
    b2c8:	00015f9c 	.word	0x00015f9c
    b2cc:	00015f1c 	.word	0x00015f1c

0000b2d0 <list_splice>:
    b2d0:	e92d4800 	push	{fp, lr}
    b2d4:	e28db004 	add	fp, sp, #4
    b2d8:	e24dd010 	sub	sp, sp, #16
    b2dc:	e50b0008 	str	r0, [fp, #-8]
    b2e0:	e50b100c 	str	r1, [fp, #-12]
    b2e4:	e50b2010 	str	r2, [fp, #-16]
    b2e8:	e51b0008 	ldr	r0, [fp, #-8]
    b2ec:	ebfffece 	bl	ae2c <is_interior>
    b2f0:	e1a03000 	mov	r3, r0
    b2f4:	e3530000 	cmp	r3, #0
    b2f8:	1a000009 	bne	b324 <list_splice+0x54>
    b2fc:	e51b0008 	ldr	r0, [fp, #-8]
    b300:	ebfffee1 	bl	ae8c <is_tail>
    b304:	e1a03000 	mov	r3, r0
    b308:	e3530000 	cmp	r3, #0
    b30c:	1a000004 	bne	b324 <list_splice+0x54>
    b310:	e59f00e4 	ldr	r0, [pc, #228]	; b3fc <list_splice+0x12c>
    b314:	e3a010bd 	mov	r1, #189	; 0xbd
    b318:	e59f20e0 	ldr	r2, [pc, #224]	; b400 <list_splice+0x130>
    b31c:	e59f30e0 	ldr	r3, [pc, #224]	; b404 <list_splice+0x134>
    b320:	ebfff819 	bl	938c <debug_panic>
    b324:	e51b200c 	ldr	r2, [fp, #-12]
    b328:	e51b3010 	ldr	r3, [fp, #-16]
    b32c:	e1520003 	cmp	r2, r3
    b330:	1a000000 	bne	b338 <list_splice+0x68>
    b334:	ea00002e 	b	b3f4 <list_splice+0x124>
    b338:	e51b0010 	ldr	r0, [fp, #-16]
    b33c:	ebffff5f 	bl	b0c0 <list_prev>
    b340:	e50b0010 	str	r0, [fp, #-16]
    b344:	e51b000c 	ldr	r0, [fp, #-12]
    b348:	ebfffeb7 	bl	ae2c <is_interior>
    b34c:	e1a03000 	mov	r3, r0
    b350:	e3530000 	cmp	r3, #0
    b354:	1a000004 	bne	b36c <list_splice+0x9c>
    b358:	e59f009c 	ldr	r0, [pc, #156]	; b3fc <list_splice+0x12c>
    b35c:	e3a010c2 	mov	r1, #194	; 0xc2
    b360:	e59f2098 	ldr	r2, [pc, #152]	; b400 <list_splice+0x130>
    b364:	e59f3098 	ldr	r3, [pc, #152]	; b404 <list_splice+0x134>
    b368:	ebfff807 	bl	938c <debug_panic>
    b36c:	e51b0010 	ldr	r0, [fp, #-16]
    b370:	ebfffead 	bl	ae2c <is_interior>
    b374:	e1a03000 	mov	r3, r0
    b378:	e3530000 	cmp	r3, #0
    b37c:	1a000004 	bne	b394 <list_splice+0xc4>
    b380:	e59f0074 	ldr	r0, [pc, #116]	; b3fc <list_splice+0x12c>
    b384:	e3a010c3 	mov	r1, #195	; 0xc3
    b388:	e59f2070 	ldr	r2, [pc, #112]	; b400 <list_splice+0x130>
    b38c:	e59f3070 	ldr	r3, [pc, #112]	; b404 <list_splice+0x134>
    b390:	ebfff7fd 	bl	938c <debug_panic>
    b394:	e51b300c 	ldr	r3, [fp, #-12]
    b398:	e5933000 	ldr	r3, [r3]
    b39c:	e51b2010 	ldr	r2, [fp, #-16]
    b3a0:	e5922004 	ldr	r2, [r2, #4]
    b3a4:	e5832004 	str	r2, [r3, #4]
    b3a8:	e51b3010 	ldr	r3, [fp, #-16]
    b3ac:	e5933004 	ldr	r3, [r3, #4]
    b3b0:	e51b200c 	ldr	r2, [fp, #-12]
    b3b4:	e5922000 	ldr	r2, [r2]
    b3b8:	e5832000 	str	r2, [r3]
    b3bc:	e51b3008 	ldr	r3, [fp, #-8]
    b3c0:	e5932000 	ldr	r2, [r3]
    b3c4:	e51b300c 	ldr	r3, [fp, #-12]
    b3c8:	e5832000 	str	r2, [r3]
    b3cc:	e51b3010 	ldr	r3, [fp, #-16]
    b3d0:	e51b2008 	ldr	r2, [fp, #-8]
    b3d4:	e5832004 	str	r2, [r3, #4]
    b3d8:	e51b3008 	ldr	r3, [fp, #-8]
    b3dc:	e5933000 	ldr	r3, [r3]
    b3e0:	e51b200c 	ldr	r2, [fp, #-12]
    b3e4:	e5832004 	str	r2, [r3, #4]
    b3e8:	e51b3008 	ldr	r3, [fp, #-8]
    b3ec:	e51b2010 	ldr	r2, [fp, #-16]
    b3f0:	e5832000 	str	r2, [r3]
    b3f4:	e24bd004 	sub	sp, fp, #4
    b3f8:	e8bd8800 	pop	{fp, pc}
    b3fc:	00015f08 	.word	0x00015f08
    b400:	00015fa8 	.word	0x00015fa8
    b404:	00015f1c 	.word	0x00015f1c

0000b408 <list_push_front>:
    b408:	e92d4800 	push	{fp, lr}
    b40c:	e28db004 	add	fp, sp, #4
    b410:	e24dd008 	sub	sp, sp, #8
    b414:	e50b0008 	str	r0, [fp, #-8]
    b418:	e50b100c 	str	r1, [fp, #-12]
    b41c:	e51b0008 	ldr	r0, [fp, #-8]
    b420:	ebfffecf 	bl	af64 <list_begin>
    b424:	e1a03000 	mov	r3, r0
    b428:	e1a00003 	mov	r0, r3
    b42c:	e51b100c 	ldr	r1, [fp, #-12]
    b430:	ebffff77 	bl	b214 <list_insert>
    b434:	e24bd004 	sub	sp, fp, #4
    b438:	e8bd8800 	pop	{fp, pc}

0000b43c <list_push_back>:
    b43c:	e92d4800 	push	{fp, lr}
    b440:	e28db004 	add	fp, sp, #4
    b444:	e24dd008 	sub	sp, sp, #8
    b448:	e50b0008 	str	r0, [fp, #-8]
    b44c:	e50b100c 	str	r1, [fp, #-12]
    b450:	e51b0008 	ldr	r0, [fp, #-8]
    b454:	ebfffef1 	bl	b020 <list_end>
    b458:	e1a03000 	mov	r3, r0
    b45c:	e1a00003 	mov	r0, r3
    b460:	e51b100c 	ldr	r1, [fp, #-12]
    b464:	ebffff6a 	bl	b214 <list_insert>
    b468:	e24bd004 	sub	sp, fp, #4
    b46c:	e8bd8800 	pop	{fp, pc}

0000b470 <list_remove>:
    b470:	e92d4800 	push	{fp, lr}
    b474:	e28db004 	add	fp, sp, #4
    b478:	e24dd008 	sub	sp, sp, #8
    b47c:	e50b0008 	str	r0, [fp, #-8]
    b480:	e51b0008 	ldr	r0, [fp, #-8]
    b484:	ebfffe68 	bl	ae2c <is_interior>
    b488:	e1a03000 	mov	r3, r0
    b48c:	e3530000 	cmp	r3, #0
    b490:	1a000004 	bne	b4a8 <list_remove+0x38>
    b494:	e59f0048 	ldr	r0, [pc, #72]	; b4e4 <list_remove+0x74>
    b498:	e3a010fd 	mov	r1, #253	; 0xfd
    b49c:	e59f2044 	ldr	r2, [pc, #68]	; b4e8 <list_remove+0x78>
    b4a0:	e59f3044 	ldr	r3, [pc, #68]	; b4ec <list_remove+0x7c>
    b4a4:	ebfff7b8 	bl	938c <debug_panic>
    b4a8:	e51b3008 	ldr	r3, [fp, #-8]
    b4ac:	e5933000 	ldr	r3, [r3]
    b4b0:	e51b2008 	ldr	r2, [fp, #-8]
    b4b4:	e5922004 	ldr	r2, [r2, #4]
    b4b8:	e5832004 	str	r2, [r3, #4]
    b4bc:	e51b3008 	ldr	r3, [fp, #-8]
    b4c0:	e5933004 	ldr	r3, [r3, #4]
    b4c4:	e51b2008 	ldr	r2, [fp, #-8]
    b4c8:	e5922000 	ldr	r2, [r2]
    b4cc:	e5832000 	str	r2, [r3]
    b4d0:	e51b3008 	ldr	r3, [fp, #-8]
    b4d4:	e5933004 	ldr	r3, [r3, #4]
    b4d8:	e1a00003 	mov	r0, r3
    b4dc:	e24bd004 	sub	sp, fp, #4
    b4e0:	e8bd8800 	pop	{fp, pc}
    b4e4:	00015f08 	.word	0x00015f08
    b4e8:	00015fb4 	.word	0x00015fb4
    b4ec:	00015f1c 	.word	0x00015f1c

0000b4f0 <list_pop_front>:
    b4f0:	e92d4800 	push	{fp, lr}
    b4f4:	e28db004 	add	fp, sp, #4
    b4f8:	e24dd010 	sub	sp, sp, #16
    b4fc:	e50b0010 	str	r0, [fp, #-16]
    b500:	e51b0010 	ldr	r0, [fp, #-16]
    b504:	eb000013 	bl	b558 <list_front>
    b508:	e50b0008 	str	r0, [fp, #-8]
    b50c:	e51b0008 	ldr	r0, [fp, #-8]
    b510:	ebffffd6 	bl	b470 <list_remove>
    b514:	e51b3008 	ldr	r3, [fp, #-8]
    b518:	e1a00003 	mov	r0, r3
    b51c:	e24bd004 	sub	sp, fp, #4
    b520:	e8bd8800 	pop	{fp, pc}

0000b524 <list_pop_back>:
    b524:	e92d4800 	push	{fp, lr}
    b528:	e28db004 	add	fp, sp, #4
    b52c:	e24dd010 	sub	sp, sp, #16
    b530:	e50b0010 	str	r0, [fp, #-16]
    b534:	e51b0010 	ldr	r0, [fp, #-16]
    b538:	eb00001e 	bl	b5b8 <list_back>
    b53c:	e50b0008 	str	r0, [fp, #-8]
    b540:	e51b0008 	ldr	r0, [fp, #-8]
    b544:	ebffffc9 	bl	b470 <list_remove>
    b548:	e51b3008 	ldr	r3, [fp, #-8]
    b54c:	e1a00003 	mov	r0, r3
    b550:	e24bd004 	sub	sp, fp, #4
    b554:	e8bd8800 	pop	{fp, pc}

0000b558 <list_front>:
    b558:	e92d4800 	push	{fp, lr}
    b55c:	e28db004 	add	fp, sp, #4
    b560:	e24dd008 	sub	sp, sp, #8
    b564:	e50b0008 	str	r0, [fp, #-8]
    b568:	e51b0008 	ldr	r0, [fp, #-8]
    b56c:	eb000044 	bl	b684 <list_empty>
    b570:	e1a03000 	mov	r3, r0
    b574:	e2233001 	eor	r3, r3, #1
    b578:	e6ef3073 	uxtb	r3, r3
    b57c:	e3530000 	cmp	r3, #0
    b580:	1a000004 	bne	b598 <list_front+0x40>
    b584:	e59f0020 	ldr	r0, [pc, #32]	; b5ac <list_front+0x54>
    b588:	e3a01f47 	mov	r1, #284	; 0x11c
    b58c:	e59f201c 	ldr	r2, [pc, #28]	; b5b0 <list_front+0x58>
    b590:	e59f301c 	ldr	r3, [pc, #28]	; b5b4 <list_front+0x5c>
    b594:	ebfff77c 	bl	938c <debug_panic>
    b598:	e51b3008 	ldr	r3, [fp, #-8]
    b59c:	e5933004 	ldr	r3, [r3, #4]
    b5a0:	e1a00003 	mov	r0, r3
    b5a4:	e24bd004 	sub	sp, fp, #4
    b5a8:	e8bd8800 	pop	{fp, pc}
    b5ac:	00015f08 	.word	0x00015f08
    b5b0:	00015fc0 	.word	0x00015fc0
    b5b4:	00015f1c 	.word	0x00015f1c

0000b5b8 <list_back>:
    b5b8:	e92d4800 	push	{fp, lr}
    b5bc:	e28db004 	add	fp, sp, #4
    b5c0:	e24dd008 	sub	sp, sp, #8
    b5c4:	e50b0008 	str	r0, [fp, #-8]
    b5c8:	e51b0008 	ldr	r0, [fp, #-8]
    b5cc:	eb00002c 	bl	b684 <list_empty>
    b5d0:	e1a03000 	mov	r3, r0
    b5d4:	e2233001 	eor	r3, r3, #1
    b5d8:	e6ef3073 	uxtb	r3, r3
    b5dc:	e3530000 	cmp	r3, #0
    b5e0:	1a000004 	bne	b5f8 <list_back+0x40>
    b5e4:	e59f0020 	ldr	r0, [pc, #32]	; b60c <list_back+0x54>
    b5e8:	e59f1020 	ldr	r1, [pc, #32]	; b610 <list_back+0x58>
    b5ec:	e59f2020 	ldr	r2, [pc, #32]	; b614 <list_back+0x5c>
    b5f0:	e59f3020 	ldr	r3, [pc, #32]	; b618 <list_back+0x60>
    b5f4:	ebfff764 	bl	938c <debug_panic>
    b5f8:	e51b3008 	ldr	r3, [fp, #-8]
    b5fc:	e5933008 	ldr	r3, [r3, #8]
    b600:	e1a00003 	mov	r0, r3
    b604:	e24bd004 	sub	sp, fp, #4
    b608:	e8bd8800 	pop	{fp, pc}
    b60c:	00015f08 	.word	0x00015f08
    b610:	00000125 	.word	0x00000125
    b614:	00015fcc 	.word	0x00015fcc
    b618:	00015f1c 	.word	0x00015f1c

0000b61c <list_size>:
    b61c:	e92d4800 	push	{fp, lr}
    b620:	e28db004 	add	fp, sp, #4
    b624:	e24dd010 	sub	sp, sp, #16
    b628:	e50b0010 	str	r0, [fp, #-16]
    b62c:	e3a03000 	mov	r3, #0
    b630:	e50b300c 	str	r3, [fp, #-12]
    b634:	e51b0010 	ldr	r0, [fp, #-16]
    b638:	ebfffe49 	bl	af64 <list_begin>
    b63c:	e50b0008 	str	r0, [fp, #-8]
    b640:	ea000005 	b	b65c <list_size+0x40>
    b644:	e51b300c 	ldr	r3, [fp, #-12]
    b648:	e2833001 	add	r3, r3, #1
    b64c:	e50b300c 	str	r3, [fp, #-12]
    b650:	e51b0008 	ldr	r0, [fp, #-8]
    b654:	ebfffe56 	bl	afb4 <list_next>
    b658:	e50b0008 	str	r0, [fp, #-8]
    b65c:	e51b0010 	ldr	r0, [fp, #-16]
    b660:	ebfffe6e 	bl	b020 <list_end>
    b664:	e1a02000 	mov	r2, r0
    b668:	e51b3008 	ldr	r3, [fp, #-8]
    b66c:	e1520003 	cmp	r2, r3
    b670:	1afffff3 	bne	b644 <list_size+0x28>
    b674:	e51b300c 	ldr	r3, [fp, #-12]
    b678:	e1a00003 	mov	r0, r3
    b67c:	e24bd004 	sub	sp, fp, #4
    b680:	e8bd8800 	pop	{fp, pc}

0000b684 <list_empty>:
    b684:	e92d4810 	push	{r4, fp, lr}
    b688:	e28db008 	add	fp, sp, #8
    b68c:	e24dd00c 	sub	sp, sp, #12
    b690:	e50b0010 	str	r0, [fp, #-16]
    b694:	e51b0010 	ldr	r0, [fp, #-16]
    b698:	ebfffe31 	bl	af64 <list_begin>
    b69c:	e1a04000 	mov	r4, r0
    b6a0:	e51b0010 	ldr	r0, [fp, #-16]
    b6a4:	ebfffe5d 	bl	b020 <list_end>
    b6a8:	e1a03000 	mov	r3, r0
    b6ac:	e1540003 	cmp	r4, r3
    b6b0:	13a03000 	movne	r3, #0
    b6b4:	03a03001 	moveq	r3, #1
    b6b8:	e6ef3073 	uxtb	r3, r3
    b6bc:	e1a00003 	mov	r0, r3
    b6c0:	e24bd008 	sub	sp, fp, #8
    b6c4:	e8bd8810 	pop	{r4, fp, pc}

0000b6c8 <swap>:
    b6c8:	e52db004 	push	{fp}		; (str fp, [sp, #-4]!)
    b6cc:	e28db000 	add	fp, sp, #0
    b6d0:	e24dd014 	sub	sp, sp, #20
    b6d4:	e50b0010 	str	r0, [fp, #-16]
    b6d8:	e50b1014 	str	r1, [fp, #-20]
    b6dc:	e51b3010 	ldr	r3, [fp, #-16]
    b6e0:	e5933000 	ldr	r3, [r3]
    b6e4:	e50b3008 	str	r3, [fp, #-8]
    b6e8:	e51b3014 	ldr	r3, [fp, #-20]
    b6ec:	e5932000 	ldr	r2, [r3]
    b6f0:	e51b3010 	ldr	r3, [fp, #-16]
    b6f4:	e5832000 	str	r2, [r3]
    b6f8:	e51b3014 	ldr	r3, [fp, #-20]
    b6fc:	e51b2008 	ldr	r2, [fp, #-8]
    b700:	e5832000 	str	r2, [r3]
    b704:	e24bd000 	sub	sp, fp, #0
    b708:	e49db004 	pop	{fp}		; (ldr fp, [sp], #4)
    b70c:	e12fff1e 	bx	lr

0000b710 <list_reverse>:
    b710:	e92d4800 	push	{fp, lr}
    b714:	e28db004 	add	fp, sp, #4
    b718:	e24dd010 	sub	sp, sp, #16
    b71c:	e50b0010 	str	r0, [fp, #-16]
    b720:	e51b0010 	ldr	r0, [fp, #-16]
    b724:	ebffffd6 	bl	b684 <list_empty>
    b728:	e1a03000 	mov	r3, r0
    b72c:	e2233001 	eor	r3, r3, #1
    b730:	e6ef3073 	uxtb	r3, r3
    b734:	e3530000 	cmp	r3, #0
    b738:	0a000022 	beq	b7c8 <list_reverse+0xb8>
    b73c:	e51b0010 	ldr	r0, [fp, #-16]
    b740:	ebfffe07 	bl	af64 <list_begin>
    b744:	e50b0008 	str	r0, [fp, #-8]
    b748:	ea000008 	b	b770 <list_reverse+0x60>
    b74c:	e51b2008 	ldr	r2, [fp, #-8]
    b750:	e51b3008 	ldr	r3, [fp, #-8]
    b754:	e2833004 	add	r3, r3, #4
    b758:	e1a00002 	mov	r0, r2
    b75c:	e1a01003 	mov	r1, r3
    b760:	ebffffd8 	bl	b6c8 <swap>
    b764:	e51b3008 	ldr	r3, [fp, #-8]
    b768:	e5933000 	ldr	r3, [r3]
    b76c:	e50b3008 	str	r3, [fp, #-8]
    b770:	e51b0010 	ldr	r0, [fp, #-16]
    b774:	ebfffe29 	bl	b020 <list_end>
    b778:	e1a02000 	mov	r2, r0
    b77c:	e51b3008 	ldr	r3, [fp, #-8]
    b780:	e1520003 	cmp	r2, r3
    b784:	1afffff0 	bne	b74c <list_reverse+0x3c>
    b788:	e51b3010 	ldr	r3, [fp, #-16]
    b78c:	e2832004 	add	r2, r3, #4
    b790:	e51b3010 	ldr	r3, [fp, #-16]
    b794:	e2833008 	add	r3, r3, #8
    b798:	e1a00002 	mov	r0, r2
    b79c:	e1a01003 	mov	r1, r3
    b7a0:	ebffffc8 	bl	b6c8 <swap>
    b7a4:	e51b3010 	ldr	r3, [fp, #-16]
    b7a8:	e5933004 	ldr	r3, [r3, #4]
    b7ac:	e1a02003 	mov	r2, r3
    b7b0:	e51b3010 	ldr	r3, [fp, #-16]
    b7b4:	e5933008 	ldr	r3, [r3, #8]
    b7b8:	e2833004 	add	r3, r3, #4
    b7bc:	e1a00002 	mov	r0, r2
    b7c0:	e1a01003 	mov	r1, r3
    b7c4:	ebffffbf 	bl	b6c8 <swap>
    b7c8:	e24bd004 	sub	sp, fp, #4
    b7cc:	e8bd8800 	pop	{fp, pc}

0000b7d0 <is_sorted>:
    b7d0:	e92d4800 	push	{fp, lr}
    b7d4:	e28db004 	add	fp, sp, #4
    b7d8:	e24dd010 	sub	sp, sp, #16
    b7dc:	e50b0008 	str	r0, [fp, #-8]
    b7e0:	e50b100c 	str	r1, [fp, #-12]
    b7e4:	e50b2010 	str	r2, [fp, #-16]
    b7e8:	e50b3014 	str	r3, [fp, #-20]
    b7ec:	e51b2008 	ldr	r2, [fp, #-8]
    b7f0:	e51b300c 	ldr	r3, [fp, #-12]
    b7f4:	e1520003 	cmp	r2, r3
    b7f8:	0a000014 	beq	b850 <is_sorted+0x80>
    b7fc:	ea00000c 	b	b834 <is_sorted+0x64>
    b800:	e51b0008 	ldr	r0, [fp, #-8]
    b804:	ebfffe2d 	bl	b0c0 <list_prev>
    b808:	e1a02000 	mov	r2, r0
    b80c:	e51b3010 	ldr	r3, [fp, #-16]
    b810:	e51b0008 	ldr	r0, [fp, #-8]
    b814:	e1a01002 	mov	r1, r2
    b818:	e51b2014 	ldr	r2, [fp, #-20]
    b81c:	e12fff33 	blx	r3
    b820:	e1a03000 	mov	r3, r0
    b824:	e3530000 	cmp	r3, #0
    b828:	0a000001 	beq	b834 <is_sorted+0x64>
    b82c:	e3a03000 	mov	r3, #0
    b830:	ea000007 	b	b854 <is_sorted+0x84>
    b834:	e51b0008 	ldr	r0, [fp, #-8]
    b838:	ebfffddd 	bl	afb4 <list_next>
    b83c:	e50b0008 	str	r0, [fp, #-8]
    b840:	e51b2008 	ldr	r2, [fp, #-8]
    b844:	e51b300c 	ldr	r3, [fp, #-12]
    b848:	e1520003 	cmp	r2, r3
    b84c:	1affffeb 	bne	b800 <is_sorted+0x30>
    b850:	e3a03001 	mov	r3, #1
    b854:	e1a00003 	mov	r0, r3
    b858:	e24bd004 	sub	sp, fp, #4
    b85c:	e8bd8800 	pop	{fp, pc}

0000b860 <find_end_of_run>:
    b860:	e92d4800 	push	{fp, lr}
    b864:	e28db004 	add	fp, sp, #4
    b868:	e24dd010 	sub	sp, sp, #16
    b86c:	e50b0008 	str	r0, [fp, #-8]
    b870:	e50b100c 	str	r1, [fp, #-12]
    b874:	e50b2010 	str	r2, [fp, #-16]
    b878:	e50b3014 	str	r3, [fp, #-20]
    b87c:	e51b3008 	ldr	r3, [fp, #-8]
    b880:	e3530000 	cmp	r3, #0
    b884:	1a000004 	bne	b89c <find_end_of_run+0x3c>
    b888:	e59f00d0 	ldr	r0, [pc, #208]	; b960 <find_end_of_run+0x100>
    b88c:	e59f10d0 	ldr	r1, [pc, #208]	; b964 <find_end_of_run+0x104>
    b890:	e59f20d0 	ldr	r2, [pc, #208]	; b968 <find_end_of_run+0x108>
    b894:	e59f30d0 	ldr	r3, [pc, #208]	; b96c <find_end_of_run+0x10c>
    b898:	ebfff6bb 	bl	938c <debug_panic>
    b89c:	e51b300c 	ldr	r3, [fp, #-12]
    b8a0:	e3530000 	cmp	r3, #0
    b8a4:	1a000004 	bne	b8bc <find_end_of_run+0x5c>
    b8a8:	e59f00b0 	ldr	r0, [pc, #176]	; b960 <find_end_of_run+0x100>
    b8ac:	e3a01f5b 	mov	r1, #364	; 0x16c
    b8b0:	e59f20b0 	ldr	r2, [pc, #176]	; b968 <find_end_of_run+0x108>
    b8b4:	e59f30b0 	ldr	r3, [pc, #176]	; b96c <find_end_of_run+0x10c>
    b8b8:	ebfff6b3 	bl	938c <debug_panic>
    b8bc:	e51b3010 	ldr	r3, [fp, #-16]
    b8c0:	e3530000 	cmp	r3, #0
    b8c4:	1a000004 	bne	b8dc <find_end_of_run+0x7c>
    b8c8:	e59f0090 	ldr	r0, [pc, #144]	; b960 <find_end_of_run+0x100>
    b8cc:	e59f109c 	ldr	r1, [pc, #156]	; b970 <find_end_of_run+0x110>
    b8d0:	e59f2090 	ldr	r2, [pc, #144]	; b968 <find_end_of_run+0x108>
    b8d4:	e59f3090 	ldr	r3, [pc, #144]	; b96c <find_end_of_run+0x10c>
    b8d8:	ebfff6ab 	bl	938c <debug_panic>
    b8dc:	e51b2008 	ldr	r2, [fp, #-8]
    b8e0:	e51b300c 	ldr	r3, [fp, #-12]
    b8e4:	e1520003 	cmp	r2, r3
    b8e8:	1a000004 	bne	b900 <find_end_of_run+0xa0>
    b8ec:	e59f006c 	ldr	r0, [pc, #108]	; b960 <find_end_of_run+0x100>
    b8f0:	e59f107c 	ldr	r1, [pc, #124]	; b974 <find_end_of_run+0x114>
    b8f4:	e59f206c 	ldr	r2, [pc, #108]	; b968 <find_end_of_run+0x108>
    b8f8:	e59f306c 	ldr	r3, [pc, #108]	; b96c <find_end_of_run+0x10c>
    b8fc:	ebfff6a2 	bl	938c <debug_panic>
    b900:	e51b0008 	ldr	r0, [fp, #-8]
    b904:	ebfffdaa 	bl	afb4 <list_next>
    b908:	e50b0008 	str	r0, [fp, #-8]
    b90c:	e51b2008 	ldr	r2, [fp, #-8]
    b910:	e51b300c 	ldr	r3, [fp, #-12]
    b914:	e1520003 	cmp	r2, r3
    b918:	0a00000c 	beq	b950 <find_end_of_run+0xf0>
    b91c:	e51b0008 	ldr	r0, [fp, #-8]
    b920:	ebfffde6 	bl	b0c0 <list_prev>
    b924:	e1a02000 	mov	r2, r0
    b928:	e51b3010 	ldr	r3, [fp, #-16]
    b92c:	e51b0008 	ldr	r0, [fp, #-8]
    b930:	e1a01002 	mov	r1, r2
    b934:	e51b2014 	ldr	r2, [fp, #-20]
    b938:	e12fff33 	blx	r3
    b93c:	e1a03000 	mov	r3, r0
    b940:	e2233001 	eor	r3, r3, #1
    b944:	e6ef3073 	uxtb	r3, r3
    b948:	e3530000 	cmp	r3, #0
    b94c:	1affffeb 	bne	b900 <find_end_of_run+0xa0>
    b950:	e51b3008 	ldr	r3, [fp, #-8]
    b954:	e1a00003 	mov	r0, r3
    b958:	e24bd004 	sub	sp, fp, #4
    b95c:	e8bd8800 	pop	{fp, pc}
    b960:	00015f08 	.word	0x00015f08
    b964:	0000016b 	.word	0x0000016b
    b968:	00015fd8 	.word	0x00015fd8
    b96c:	00015f1c 	.word	0x00015f1c
    b970:	0000016d 	.word	0x0000016d
    b974:	0000016e 	.word	0x0000016e

0000b978 <inplace_merge>:
    b978:	e92d4800 	push	{fp, lr}
    b97c:	e28db004 	add	fp, sp, #4
    b980:	e24dd010 	sub	sp, sp, #16
    b984:	e50b0008 	str	r0, [fp, #-8]
    b988:	e50b100c 	str	r1, [fp, #-12]
    b98c:	e50b2010 	str	r2, [fp, #-16]
    b990:	e50b3014 	str	r3, [fp, #-20]
    b994:	e51b3008 	ldr	r3, [fp, #-8]
    b998:	e3530000 	cmp	r3, #0
    b99c:	1a000004 	bne	b9b4 <inplace_merge+0x3c>
    b9a0:	e59f0160 	ldr	r0, [pc, #352]	; bb08 <inplace_merge+0x190>
    b9a4:	e59f1160 	ldr	r1, [pc, #352]	; bb0c <inplace_merge+0x194>
    b9a8:	e59f2160 	ldr	r2, [pc, #352]	; bb10 <inplace_merge+0x198>
    b9ac:	e59f3160 	ldr	r3, [pc, #352]	; bb14 <inplace_merge+0x19c>
    b9b0:	ebfff675 	bl	938c <debug_panic>
    b9b4:	e51b300c 	ldr	r3, [fp, #-12]
    b9b8:	e3530000 	cmp	r3, #0
    b9bc:	1a000004 	bne	b9d4 <inplace_merge+0x5c>
    b9c0:	e59f0140 	ldr	r0, [pc, #320]	; bb08 <inplace_merge+0x190>
    b9c4:	e59f114c 	ldr	r1, [pc, #332]	; bb18 <inplace_merge+0x1a0>
    b9c8:	e59f2140 	ldr	r2, [pc, #320]	; bb10 <inplace_merge+0x198>
    b9cc:	e59f3140 	ldr	r3, [pc, #320]	; bb14 <inplace_merge+0x19c>
    b9d0:	ebfff66d 	bl	938c <debug_panic>
    b9d4:	e51b3010 	ldr	r3, [fp, #-16]
    b9d8:	e3530000 	cmp	r3, #0
    b9dc:	1a000004 	bne	b9f4 <inplace_merge+0x7c>
    b9e0:	e59f0120 	ldr	r0, [pc, #288]	; bb08 <inplace_merge+0x190>
    b9e4:	e3a01f61 	mov	r1, #388	; 0x184
    b9e8:	e59f2120 	ldr	r2, [pc, #288]	; bb10 <inplace_merge+0x198>
    b9ec:	e59f3120 	ldr	r3, [pc, #288]	; bb14 <inplace_merge+0x19c>
    b9f0:	ebfff665 	bl	938c <debug_panic>
    b9f4:	e51b3014 	ldr	r3, [fp, #-20]
    b9f8:	e3530000 	cmp	r3, #0
    b9fc:	1a000004 	bne	ba14 <inplace_merge+0x9c>
    ba00:	e59f0100 	ldr	r0, [pc, #256]	; bb08 <inplace_merge+0x190>
    ba04:	e59f1110 	ldr	r1, [pc, #272]	; bb1c <inplace_merge+0x1a4>
    ba08:	e59f2100 	ldr	r2, [pc, #256]	; bb10 <inplace_merge+0x198>
    ba0c:	e59f3100 	ldr	r3, [pc, #256]	; bb14 <inplace_merge+0x19c>
    ba10:	ebfff65d 	bl	938c <debug_panic>
    ba14:	e51b0008 	ldr	r0, [fp, #-8]
    ba18:	e51b100c 	ldr	r1, [fp, #-12]
    ba1c:	e51b2014 	ldr	r2, [fp, #-20]
    ba20:	e59b3004 	ldr	r3, [fp, #4]
    ba24:	ebffff69 	bl	b7d0 <is_sorted>
    ba28:	e1a03000 	mov	r3, r0
    ba2c:	e3530000 	cmp	r3, #0
    ba30:	1a000004 	bne	ba48 <inplace_merge+0xd0>
    ba34:	e59f00cc 	ldr	r0, [pc, #204]	; bb08 <inplace_merge+0x190>
    ba38:	e59f10e0 	ldr	r1, [pc, #224]	; bb20 <inplace_merge+0x1a8>
    ba3c:	e59f20cc 	ldr	r2, [pc, #204]	; bb10 <inplace_merge+0x198>
    ba40:	e59f30cc 	ldr	r3, [pc, #204]	; bb14 <inplace_merge+0x19c>
    ba44:	ebfff650 	bl	938c <debug_panic>
    ba48:	e51b000c 	ldr	r0, [fp, #-12]
    ba4c:	e51b1010 	ldr	r1, [fp, #-16]
    ba50:	e51b2014 	ldr	r2, [fp, #-20]
    ba54:	e59b3004 	ldr	r3, [fp, #4]
    ba58:	ebffff5c 	bl	b7d0 <is_sorted>
    ba5c:	e1a03000 	mov	r3, r0
    ba60:	e3530000 	cmp	r3, #0
    ba64:	1a000004 	bne	ba7c <inplace_merge+0x104>
    ba68:	e59f0098 	ldr	r0, [pc, #152]	; bb08 <inplace_merge+0x190>
    ba6c:	e59f10b0 	ldr	r1, [pc, #176]	; bb24 <inplace_merge+0x1ac>
    ba70:	e59f2098 	ldr	r2, [pc, #152]	; bb10 <inplace_merge+0x198>
    ba74:	e59f3098 	ldr	r3, [pc, #152]	; bb14 <inplace_merge+0x19c>
    ba78:	ebfff643 	bl	938c <debug_panic>
    ba7c:	ea000017 	b	bae0 <inplace_merge+0x168>
    ba80:	e51b3014 	ldr	r3, [fp, #-20]
    ba84:	e51b000c 	ldr	r0, [fp, #-12]
    ba88:	e51b1008 	ldr	r1, [fp, #-8]
    ba8c:	e59b2004 	ldr	r2, [fp, #4]
    ba90:	e12fff33 	blx	r3
    ba94:	e1a03000 	mov	r3, r0
    ba98:	e2233001 	eor	r3, r3, #1
    ba9c:	e6ef3073 	uxtb	r3, r3
    baa0:	e3530000 	cmp	r3, #0
    baa4:	0a000003 	beq	bab8 <inplace_merge+0x140>
    baa8:	e51b0008 	ldr	r0, [fp, #-8]
    baac:	ebfffd40 	bl	afb4 <list_next>
    bab0:	e50b0008 	str	r0, [fp, #-8]
    bab4:	ea000009 	b	bae0 <inplace_merge+0x168>
    bab8:	e51b000c 	ldr	r0, [fp, #-12]
    babc:	ebfffd3c 	bl	afb4 <list_next>
    bac0:	e50b000c 	str	r0, [fp, #-12]
    bac4:	e51b000c 	ldr	r0, [fp, #-12]
    bac8:	ebfffd7c 	bl	b0c0 <list_prev>
    bacc:	e1a03000 	mov	r3, r0
    bad0:	e51b0008 	ldr	r0, [fp, #-8]
    bad4:	e1a01003 	mov	r1, r3
    bad8:	e51b200c 	ldr	r2, [fp, #-12]
    badc:	ebfffdfb 	bl	b2d0 <list_splice>
    bae0:	e51b2008 	ldr	r2, [fp, #-8]
    bae4:	e51b300c 	ldr	r3, [fp, #-12]
    bae8:	e1520003 	cmp	r2, r3
    baec:	0a000003 	beq	bb00 <inplace_merge+0x188>
    baf0:	e51b200c 	ldr	r2, [fp, #-12]
    baf4:	e51b3010 	ldr	r3, [fp, #-16]
    baf8:	e1520003 	cmp	r2, r3
    bafc:	1affffdf 	bne	ba80 <inplace_merge+0x108>
    bb00:	e24bd004 	sub	sp, fp, #4
    bb04:	e8bd8800 	pop	{fp, pc}
    bb08:	00015f08 	.word	0x00015f08
    bb0c:	00000182 	.word	0x00000182
    bb10:	00015fe8 	.word	0x00015fe8
    bb14:	00015f1c 	.word	0x00015f1c
    bb18:	00000183 	.word	0x00000183
    bb1c:	00000185 	.word	0x00000185
    bb20:	00000186 	.word	0x00000186
    bb24:	00000187 	.word	0x00000187

0000bb28 <list_sort>:
    bb28:	e92d4810 	push	{r4, fp, lr}
    bb2c:	e28db008 	add	fp, sp, #8
    bb30:	e24dd02c 	sub	sp, sp, #44	; 0x2c
    bb34:	e50b0020 	str	r0, [fp, #-32]
    bb38:	e50b1024 	str	r1, [fp, #-36]	; 0x24
    bb3c:	e50b2028 	str	r2, [fp, #-40]	; 0x28
    bb40:	e51b3020 	ldr	r3, [fp, #-32]
    bb44:	e3530000 	cmp	r3, #0
    bb48:	1a000004 	bne	bb60 <list_sort+0x38>
    bb4c:	e59f0150 	ldr	r0, [pc, #336]	; bca4 <list_sort+0x17c>
    bb50:	e59f1150 	ldr	r1, [pc, #336]	; bca8 <list_sort+0x180>
    bb54:	e59f2150 	ldr	r2, [pc, #336]	; bcac <list_sort+0x184>
    bb58:	e59f3150 	ldr	r3, [pc, #336]	; bcb0 <list_sort+0x188>
    bb5c:	ebfff60a 	bl	938c <debug_panic>
    bb60:	e51b3024 	ldr	r3, [fp, #-36]	; 0x24
    bb64:	e3530000 	cmp	r3, #0
    bb68:	1a000004 	bne	bb80 <list_sort+0x58>
    bb6c:	e59f0130 	ldr	r0, [pc, #304]	; bca4 <list_sort+0x17c>
    bb70:	e3a01f67 	mov	r1, #412	; 0x19c
    bb74:	e59f2130 	ldr	r2, [pc, #304]	; bcac <list_sort+0x184>
    bb78:	e59f3130 	ldr	r3, [pc, #304]	; bcb0 <list_sort+0x188>
    bb7c:	ebfff602 	bl	938c <debug_panic>
    bb80:	e3a03000 	mov	r3, #0
    bb84:	e50b3010 	str	r3, [fp, #-16]
    bb88:	e51b0020 	ldr	r0, [fp, #-32]
    bb8c:	ebfffcf4 	bl	af64 <list_begin>
    bb90:	e50b0014 	str	r0, [fp, #-20]
    bb94:	ea000024 	b	bc2c <list_sort+0x104>
    bb98:	e51b3010 	ldr	r3, [fp, #-16]
    bb9c:	e2833001 	add	r3, r3, #1
    bba0:	e50b3010 	str	r3, [fp, #-16]
    bba4:	e51b0020 	ldr	r0, [fp, #-32]
    bba8:	ebfffd1c 	bl	b020 <list_end>
    bbac:	e1a03000 	mov	r3, r0
    bbb0:	e51b0014 	ldr	r0, [fp, #-20]
    bbb4:	e1a01003 	mov	r1, r3
    bbb8:	e51b2024 	ldr	r2, [fp, #-36]	; 0x24
    bbbc:	e51b3028 	ldr	r3, [fp, #-40]	; 0x28
    bbc0:	ebffff26 	bl	b860 <find_end_of_run>
    bbc4:	e50b0018 	str	r0, [fp, #-24]
    bbc8:	e51b0020 	ldr	r0, [fp, #-32]
    bbcc:	ebfffd13 	bl	b020 <list_end>
    bbd0:	e1a02000 	mov	r2, r0
    bbd4:	e51b3018 	ldr	r3, [fp, #-24]
    bbd8:	e1520003 	cmp	r2, r3
    bbdc:	1a000000 	bne	bbe4 <list_sort+0xbc>
    bbe0:	ea000017 	b	bc44 <list_sort+0x11c>
    bbe4:	e51b0020 	ldr	r0, [fp, #-32]
    bbe8:	ebfffd0c 	bl	b020 <list_end>
    bbec:	e1a03000 	mov	r3, r0
    bbf0:	e51b0018 	ldr	r0, [fp, #-24]
    bbf4:	e1a01003 	mov	r1, r3
    bbf8:	e51b2024 	ldr	r2, [fp, #-36]	; 0x24
    bbfc:	e51b3028 	ldr	r3, [fp, #-40]	; 0x28
    bc00:	ebffff16 	bl	b860 <find_end_of_run>
    bc04:	e50b001c 	str	r0, [fp, #-28]
    bc08:	e51b3028 	ldr	r3, [fp, #-40]	; 0x28
    bc0c:	e58d3000 	str	r3, [sp]
    bc10:	e51b0014 	ldr	r0, [fp, #-20]
    bc14:	e51b1018 	ldr	r1, [fp, #-24]
    bc18:	e51b201c 	ldr	r2, [fp, #-28]
    bc1c:	e51b3024 	ldr	r3, [fp, #-36]	; 0x24
    bc20:	ebffff54 	bl	b978 <inplace_merge>
    bc24:	e51b301c 	ldr	r3, [fp, #-28]
    bc28:	e50b3014 	str	r3, [fp, #-20]
    bc2c:	e51b0020 	ldr	r0, [fp, #-32]
    bc30:	ebfffcfa 	bl	b020 <list_end>
    bc34:	e1a02000 	mov	r2, r0
    bc38:	e51b3014 	ldr	r3, [fp, #-20]
    bc3c:	e1520003 	cmp	r2, r3
    bc40:	1affffd4 	bne	bb98 <list_sort+0x70>
    bc44:	e51b3010 	ldr	r3, [fp, #-16]
    bc48:	e3530001 	cmp	r3, #1
    bc4c:	8affffcb 	bhi	bb80 <list_sort+0x58>
    bc50:	e51b0020 	ldr	r0, [fp, #-32]
    bc54:	ebfffcc2 	bl	af64 <list_begin>
    bc58:	e1a04000 	mov	r4, r0
    bc5c:	e51b0020 	ldr	r0, [fp, #-32]
    bc60:	ebfffcee 	bl	b020 <list_end>
    bc64:	e1a03000 	mov	r3, r0
    bc68:	e1a00004 	mov	r0, r4
    bc6c:	e1a01003 	mov	r1, r3
    bc70:	e51b2024 	ldr	r2, [fp, #-36]	; 0x24
    bc74:	e51b3028 	ldr	r3, [fp, #-40]	; 0x28
    bc78:	ebfffed4 	bl	b7d0 <is_sorted>
    bc7c:	e1a03000 	mov	r3, r0
    bc80:	e3530000 	cmp	r3, #0
    bc84:	1a000004 	bne	bc9c <list_sort+0x174>
    bc88:	e59f0014 	ldr	r0, [pc, #20]	; bca4 <list_sort+0x17c>
    bc8c:	e59f1020 	ldr	r1, [pc, #32]	; bcb4 <list_sort+0x18c>
    bc90:	e59f2014 	ldr	r2, [pc, #20]	; bcac <list_sort+0x184>
    bc94:	e59f3014 	ldr	r3, [pc, #20]	; bcb0 <list_sort+0x188>
    bc98:	ebfff5bb 	bl	938c <debug_panic>
    bc9c:	e24bd008 	sub	sp, fp, #8
    bca0:	e8bd8810 	pop	{r4, fp, pc}
    bca4:	00015f08 	.word	0x00015f08
    bca8:	0000019b 	.word	0x0000019b
    bcac:	00015ff8 	.word	0x00015ff8
    bcb0:	00015f1c 	.word	0x00015f1c
    bcb4:	000001b9 	.word	0x000001b9

0000bcb8 <list_insert_ordered>:
    bcb8:	e92d4800 	push	{fp, lr}
    bcbc:	e28db004 	add	fp, sp, #4
    bcc0:	e24dd018 	sub	sp, sp, #24
    bcc4:	e50b0010 	str	r0, [fp, #-16]
    bcc8:	e50b1014 	str	r1, [fp, #-20]
    bccc:	e50b2018 	str	r2, [fp, #-24]
    bcd0:	e50b301c 	str	r3, [fp, #-28]
    bcd4:	e51b3010 	ldr	r3, [fp, #-16]
    bcd8:	e3530000 	cmp	r3, #0
    bcdc:	1a000004 	bne	bcf4 <list_insert_ordered+0x3c>
    bce0:	e59f00bc 	ldr	r0, [pc, #188]	; bda4 <list_insert_ordered+0xec>
    bce4:	e59f10bc 	ldr	r1, [pc, #188]	; bda8 <list_insert_ordered+0xf0>
    bce8:	e59f20bc 	ldr	r2, [pc, #188]	; bdac <list_insert_ordered+0xf4>
    bcec:	e59f30bc 	ldr	r3, [pc, #188]	; bdb0 <list_insert_ordered+0xf8>
    bcf0:	ebfff5a5 	bl	938c <debug_panic>
    bcf4:	e51b3014 	ldr	r3, [fp, #-20]
    bcf8:	e3530000 	cmp	r3, #0
    bcfc:	1a000004 	bne	bd14 <list_insert_ordered+0x5c>
    bd00:	e59f009c 	ldr	r0, [pc, #156]	; bda4 <list_insert_ordered+0xec>
    bd04:	e59f10a8 	ldr	r1, [pc, #168]	; bdb4 <list_insert_ordered+0xfc>
    bd08:	e59f209c 	ldr	r2, [pc, #156]	; bdac <list_insert_ordered+0xf4>
    bd0c:	e59f309c 	ldr	r3, [pc, #156]	; bdb0 <list_insert_ordered+0xf8>
    bd10:	ebfff59d 	bl	938c <debug_panic>
    bd14:	e51b3018 	ldr	r3, [fp, #-24]
    bd18:	e3530000 	cmp	r3, #0
    bd1c:	1a000004 	bne	bd34 <list_insert_ordered+0x7c>
    bd20:	e59f007c 	ldr	r0, [pc, #124]	; bda4 <list_insert_ordered+0xec>
    bd24:	e59f108c 	ldr	r1, [pc, #140]	; bdb8 <list_insert_ordered+0x100>
    bd28:	e59f207c 	ldr	r2, [pc, #124]	; bdac <list_insert_ordered+0xf4>
    bd2c:	e59f307c 	ldr	r3, [pc, #124]	; bdb0 <list_insert_ordered+0xf8>
    bd30:	ebfff595 	bl	938c <debug_panic>
    bd34:	e51b0010 	ldr	r0, [fp, #-16]
    bd38:	ebfffc89 	bl	af64 <list_begin>
    bd3c:	e50b0008 	str	r0, [fp, #-8]
    bd40:	ea00000b 	b	bd74 <list_insert_ordered+0xbc>
    bd44:	e51b3018 	ldr	r3, [fp, #-24]
    bd48:	e51b0014 	ldr	r0, [fp, #-20]
    bd4c:	e51b1008 	ldr	r1, [fp, #-8]
    bd50:	e51b201c 	ldr	r2, [fp, #-28]
    bd54:	e12fff33 	blx	r3
    bd58:	e1a03000 	mov	r3, r0
    bd5c:	e3530000 	cmp	r3, #0
    bd60:	0a000000 	beq	bd68 <list_insert_ordered+0xb0>
    bd64:	ea000008 	b	bd8c <list_insert_ordered+0xd4>
    bd68:	e51b0008 	ldr	r0, [fp, #-8]
    bd6c:	ebfffc90 	bl	afb4 <list_next>
    bd70:	e50b0008 	str	r0, [fp, #-8]
    bd74:	e51b0010 	ldr	r0, [fp, #-16]
    bd78:	ebfffca8 	bl	b020 <list_end>
    bd7c:	e1a02000 	mov	r2, r0
    bd80:	e51b3008 	ldr	r3, [fp, #-8]
    bd84:	e1520003 	cmp	r2, r3
    bd88:	1affffed 	bne	bd44 <list_insert_ordered+0x8c>
    bd8c:	e51b0008 	ldr	r0, [fp, #-8]
    bd90:	e51b1014 	ldr	r1, [fp, #-20]
    bd94:	ebfffd1e 	bl	b214 <list_insert>
    bd98:	e1a00000 	nop			; (mov r0, r0)
    bd9c:	e24bd004 	sub	sp, fp, #4
    bda0:	e8bd8800 	pop	{fp, pc}
    bda4:	00015f08 	.word	0x00015f08
    bda8:	000001c5 	.word	0x000001c5
    bdac:	00016004 	.word	0x00016004
    bdb0:	00015f1c 	.word	0x00015f1c
    bdb4:	000001c6 	.word	0x000001c6
    bdb8:	000001c7 	.word	0x000001c7

0000bdbc <list_unique>:
    bdbc:	e92d4800 	push	{fp, lr}
    bdc0:	e28db004 	add	fp, sp, #4
    bdc4:	e24dd018 	sub	sp, sp, #24
    bdc8:	e50b0010 	str	r0, [fp, #-16]
    bdcc:	e50b1014 	str	r1, [fp, #-20]
    bdd0:	e50b2018 	str	r2, [fp, #-24]
    bdd4:	e50b301c 	str	r3, [fp, #-28]
    bdd8:	e51b3010 	ldr	r3, [fp, #-16]
    bddc:	e3530000 	cmp	r3, #0
    bde0:	1a000004 	bne	bdf8 <list_unique+0x3c>
    bde4:	e59f0100 	ldr	r0, [pc, #256]	; beec <list_unique+0x130>
    bde8:	e59f1100 	ldr	r1, [pc, #256]	; bef0 <list_unique+0x134>
    bdec:	e59f2100 	ldr	r2, [pc, #256]	; bef4 <list_unique+0x138>
    bdf0:	e59f3100 	ldr	r3, [pc, #256]	; bef8 <list_unique+0x13c>
    bdf4:	ebfff564 	bl	938c <debug_panic>
    bdf8:	e51b3018 	ldr	r3, [fp, #-24]
    bdfc:	e3530000 	cmp	r3, #0
    be00:	1a000004 	bne	be18 <list_unique+0x5c>
    be04:	e59f00e0 	ldr	r0, [pc, #224]	; beec <list_unique+0x130>
    be08:	e59f10ec 	ldr	r1, [pc, #236]	; befc <list_unique+0x140>
    be0c:	e59f20e0 	ldr	r2, [pc, #224]	; bef4 <list_unique+0x138>
    be10:	e59f30e0 	ldr	r3, [pc, #224]	; bef8 <list_unique+0x13c>
    be14:	ebfff55c 	bl	938c <debug_panic>
    be18:	e51b0010 	ldr	r0, [fp, #-16]
    be1c:	ebfffe18 	bl	b684 <list_empty>
    be20:	e1a03000 	mov	r3, r0
    be24:	e3530000 	cmp	r3, #0
    be28:	0a000000 	beq	be30 <list_unique+0x74>
    be2c:	ea00002c 	b	bee4 <list_unique+0x128>
    be30:	e51b0010 	ldr	r0, [fp, #-16]
    be34:	ebfffc4a 	bl	af64 <list_begin>
    be38:	e50b0008 	str	r0, [fp, #-8]
    be3c:	ea00001f 	b	bec0 <list_unique+0x104>
    be40:	e51b3018 	ldr	r3, [fp, #-24]
    be44:	e51b0008 	ldr	r0, [fp, #-8]
    be48:	e51b100c 	ldr	r1, [fp, #-12]
    be4c:	e51b201c 	ldr	r2, [fp, #-28]
    be50:	e12fff33 	blx	r3
    be54:	e1a03000 	mov	r3, r0
    be58:	e2233001 	eor	r3, r3, #1
    be5c:	e6ef3073 	uxtb	r3, r3
    be60:	e3530000 	cmp	r3, #0
    be64:	0a000013 	beq	beb8 <list_unique+0xfc>
    be68:	e51b3018 	ldr	r3, [fp, #-24]
    be6c:	e51b000c 	ldr	r0, [fp, #-12]
    be70:	e51b1008 	ldr	r1, [fp, #-8]
    be74:	e51b201c 	ldr	r2, [fp, #-28]
    be78:	e12fff33 	blx	r3
    be7c:	e1a03000 	mov	r3, r0
    be80:	e2233001 	eor	r3, r3, #1
    be84:	e6ef3073 	uxtb	r3, r3
    be88:	e3530000 	cmp	r3, #0
    be8c:	0a000009 	beq	beb8 <list_unique+0xfc>
    be90:	e51b000c 	ldr	r0, [fp, #-12]
    be94:	ebfffd75 	bl	b470 <list_remove>
    be98:	e51b3014 	ldr	r3, [fp, #-20]
    be9c:	e3530000 	cmp	r3, #0
    bea0:	0a000003 	beq	beb4 <list_unique+0xf8>
    bea4:	e51b0014 	ldr	r0, [fp, #-20]
    bea8:	e51b100c 	ldr	r1, [fp, #-12]
    beac:	ebfffd62 	bl	b43c <list_push_back>
    beb0:	ea000002 	b	bec0 <list_unique+0x104>
    beb4:	ea000001 	b	bec0 <list_unique+0x104>
    beb8:	e51b300c 	ldr	r3, [fp, #-12]
    bebc:	e50b3008 	str	r3, [fp, #-8]
    bec0:	e51b0008 	ldr	r0, [fp, #-8]
    bec4:	ebfffc3a 	bl	afb4 <list_next>
    bec8:	e50b000c 	str	r0, [fp, #-12]
    becc:	e51b0010 	ldr	r0, [fp, #-16]
    bed0:	ebfffc52 	bl	b020 <list_end>
    bed4:	e1a03000 	mov	r3, r0
    bed8:	e51b200c 	ldr	r2, [fp, #-12]
    bedc:	e1520003 	cmp	r2, r3
    bee0:	1affffd6 	bne	be40 <list_unique+0x84>
    bee4:	e24bd004 	sub	sp, fp, #4
    bee8:	e8bd8800 	pop	{fp, pc}
    beec:	00015f08 	.word	0x00015f08
    bef0:	000001d9 	.word	0x000001d9
    bef4:	00016018 	.word	0x00016018
    bef8:	00015f1c 	.word	0x00015f1c
    befc:	000001da 	.word	0x000001da

0000bf00 <list_max>:
    bf00:	e92d4800 	push	{fp, lr}
    bf04:	e28db004 	add	fp, sp, #4
    bf08:	e24dd018 	sub	sp, sp, #24
    bf0c:	e50b0010 	str	r0, [fp, #-16]
    bf10:	e50b1014 	str	r1, [fp, #-20]
    bf14:	e50b2018 	str	r2, [fp, #-24]
    bf18:	e51b0010 	ldr	r0, [fp, #-16]
    bf1c:	ebfffc10 	bl	af64 <list_begin>
    bf20:	e50b0008 	str	r0, [fp, #-8]
    bf24:	e51b0010 	ldr	r0, [fp, #-16]
    bf28:	ebfffc3c 	bl	b020 <list_end>
    bf2c:	e1a02000 	mov	r2, r0
    bf30:	e51b3008 	ldr	r3, [fp, #-8]
    bf34:	e1520003 	cmp	r2, r3
    bf38:	0a000016 	beq	bf98 <list_max+0x98>
    bf3c:	e51b0008 	ldr	r0, [fp, #-8]
    bf40:	ebfffc1b 	bl	afb4 <list_next>
    bf44:	e50b000c 	str	r0, [fp, #-12]
    bf48:	ea00000c 	b	bf80 <list_max+0x80>
    bf4c:	e51b3014 	ldr	r3, [fp, #-20]
    bf50:	e51b0008 	ldr	r0, [fp, #-8]
    bf54:	e51b100c 	ldr	r1, [fp, #-12]
    bf58:	e51b2018 	ldr	r2, [fp, #-24]
    bf5c:	e12fff33 	blx	r3
    bf60:	e1a03000 	mov	r3, r0
    bf64:	e3530000 	cmp	r3, #0
    bf68:	0a000001 	beq	bf74 <list_max+0x74>
    bf6c:	e51b300c 	ldr	r3, [fp, #-12]
    bf70:	e50b3008 	str	r3, [fp, #-8]
    bf74:	e51b000c 	ldr	r0, [fp, #-12]
    bf78:	ebfffc0d 	bl	afb4 <list_next>
    bf7c:	e50b000c 	str	r0, [fp, #-12]
    bf80:	e51b0010 	ldr	r0, [fp, #-16]
    bf84:	ebfffc25 	bl	b020 <list_end>
    bf88:	e1a02000 	mov	r2, r0
    bf8c:	e51b300c 	ldr	r3, [fp, #-12]
    bf90:	e1520003 	cmp	r2, r3
    bf94:	1affffec 	bne	bf4c <list_max+0x4c>
    bf98:	e51b3008 	ldr	r3, [fp, #-8]
    bf9c:	e1a00003 	mov	r0, r3
    bfa0:	e24bd004 	sub	sp, fp, #4
    bfa4:	e8bd8800 	pop	{fp, pc}

0000bfa8 <list_min>:
    bfa8:	e92d4800 	push	{fp, lr}
    bfac:	e28db004 	add	fp, sp, #4
    bfb0:	e24dd018 	sub	sp, sp, #24
    bfb4:	e50b0010 	str	r0, [fp, #-16]
    bfb8:	e50b1014 	str	r1, [fp, #-20]
    bfbc:	e50b2018 	str	r2, [fp, #-24]
    bfc0:	e51b0010 	ldr	r0, [fp, #-16]
    bfc4:	ebfffbe6 	bl	af64 <list_begin>
    bfc8:	e50b0008 	str	r0, [fp, #-8]
    bfcc:	e51b0010 	ldr	r0, [fp, #-16]
    bfd0:	ebfffc12 	bl	b020 <list_end>
    bfd4:	e1a02000 	mov	r2, r0
    bfd8:	e51b3008 	ldr	r3, [fp, #-8]
    bfdc:	e1520003 	cmp	r2, r3
    bfe0:	0a000016 	beq	c040 <list_min+0x98>
    bfe4:	e51b0008 	ldr	r0, [fp, #-8]
    bfe8:	ebfffbf1 	bl	afb4 <list_next>
    bfec:	e50b000c 	str	r0, [fp, #-12]
    bff0:	ea00000c 	b	c028 <list_min+0x80>
    bff4:	e51b3014 	ldr	r3, [fp, #-20]
    bff8:	e51b000c 	ldr	r0, [fp, #-12]
    bffc:	e51b1008 	ldr	r1, [fp, #-8]
    c000:	e51b2018 	ldr	r2, [fp, #-24]
    c004:	e12fff33 	blx	r3
    c008:	e1a03000 	mov	r3, r0
    c00c:	e3530000 	cmp	r3, #0
    c010:	0a000001 	beq	c01c <list_min+0x74>
    c014:	e51b300c 	ldr	r3, [fp, #-12]
    c018:	e50b3008 	str	r3, [fp, #-8]
    c01c:	e51b000c 	ldr	r0, [fp, #-12]
    c020:	ebfffbe3 	bl	afb4 <list_next>
    c024:	e50b000c 	str	r0, [fp, #-12]
    c028:	e51b0010 	ldr	r0, [fp, #-16]
    c02c:	ebfffbfb 	bl	b020 <list_end>
    c030:	e1a02000 	mov	r2, r0
    c034:	e51b300c 	ldr	r3, [fp, #-12]
    c038:	e1520003 	cmp	r2, r3
    c03c:	1affffec 	bne	bff4 <list_min+0x4c>
    c040:	e51b3008 	ldr	r3, [fp, #-8]
    c044:	e1a00003 	mov	r0, r3
    c048:	e24bd004 	sub	sp, fp, #4
    c04c:	e8bd8800 	pop	{fp, pc}

0000c050 <interrupts_init>:
    c050:	e92d4800 	push	{fp, lr}
    c054:	e28db004 	add	fp, sp, #4
    c058:	e24dd008 	sub	sp, sp, #8
    c05c:	e59f0074 	ldr	r0, [pc, #116]	; c0d8 <interrupts_init+0x88>
    c060:	eb00084b 	bl	e194 <printf>
    c064:	e59f3070 	ldr	r3, [pc, #112]	; c0dc <interrupts_init+0x8c>
    c068:	e3a02000 	mov	r2, #0
    c06c:	e5c32000 	strb	r2, [r3]
    c070:	e59f3068 	ldr	r3, [pc, #104]	; c0e0 <interrupts_init+0x90>
    c074:	e3a02000 	mov	r2, #0
    c078:	e5c32000 	strb	r2, [r3]
    c07c:	e59f3060 	ldr	r3, [pc, #96]	; c0e4 <interrupts_init+0x94>
    c080:	e3a02000 	mov	r2, #0
    c084:	e5c32000 	strb	r2, [r3]
    c088:	e3a03000 	mov	r3, #0
    c08c:	e50b3008 	str	r3, [fp, #-8]
    c090:	ea00000a 	b	c0c0 <interrupts_init+0x70>
    c094:	e59f304c 	ldr	r3, [pc, #76]	; c0e8 <interrupts_init+0x98>
    c098:	e51b2008 	ldr	r2, [fp, #-8]
    c09c:	e59f1048 	ldr	r1, [pc, #72]	; c0ec <interrupts_init+0x9c>
    c0a0:	e7831102 	str	r1, [r3, r2, lsl #2]
    c0a4:	e59f3044 	ldr	r3, [pc, #68]	; c0f0 <interrupts_init+0xa0>
    c0a8:	e51b2008 	ldr	r2, [fp, #-8]
    c0ac:	e59f1040 	ldr	r1, [pc, #64]	; c0f4 <interrupts_init+0xa4>
    c0b0:	e7831102 	str	r1, [r3, r2, lsl #2]
    c0b4:	e51b3008 	ldr	r3, [fp, #-8]
    c0b8:	e2833001 	add	r3, r3, #1
    c0bc:	e50b3008 	str	r3, [fp, #-8]
    c0c0:	e51b3008 	ldr	r3, [fp, #-8]
    c0c4:	e353003f 	cmp	r3, #63	; 0x3f
    c0c8:	dafffff1 	ble	c094 <interrupts_init+0x44>
    c0cc:	ebfff109 	bl	84f8 <disable_fiq_interruptions>
    c0d0:	e24bd004 	sub	sp, fp, #4
    c0d4:	e8bd8800 	pop	{fp, pc}
    c0d8:	00016024 	.word	0x00016024
    c0dc:	000192d1 	.word	0x000192d1
    c0e0:	000192d0 	.word	0x000192d0
    c0e4:	000192d2 	.word	0x000192d2
    c0e8:	000191c8 	.word	0x000191c8
    c0ec:	00016044 	.word	0x00016044
    c0f0:	000190c8 	.word	0x000190c8
    c0f4:	0000c8dc 	.word	0x0000c8dc

0000c0f8 <interrupts_register_irq>:
    c0f8:	e92d4800 	push	{fp, lr}
    c0fc:	e28db004 	add	fp, sp, #4
    c100:	e24dd010 	sub	sp, sp, #16
    c104:	e1a03000 	mov	r3, r0
    c108:	e50b100c 	str	r1, [fp, #-12]
    c10c:	e50b2010 	str	r2, [fp, #-16]
    c110:	e54b3005 	strb	r3, [fp, #-5]
    c114:	e55b3005 	ldrb	r3, [fp, #-5]
    c118:	e1a00003 	mov	r0, r3
    c11c:	eb0001f7 	bl	c900 <interrupts_is_valid_irq_number>
    c120:	e1a03000 	mov	r3, r0
    c124:	e2233001 	eor	r3, r3, #1
    c128:	e6ef3073 	uxtb	r3, r3
    c12c:	e3530000 	cmp	r3, #0
    c130:	0a000000 	beq	c138 <interrupts_register_irq+0x40>
    c134:	ea00000a 	b	c164 <interrupts_register_irq+0x6c>
    c138:	e55b2005 	ldrb	r2, [fp, #-5]
    c13c:	e59f3028 	ldr	r3, [pc, #40]	; c16c <interrupts_register_irq+0x74>
    c140:	e51b100c 	ldr	r1, [fp, #-12]
    c144:	e7831102 	str	r1, [r3, r2, lsl #2]
    c148:	e55b2005 	ldrb	r2, [fp, #-5]
    c14c:	e59f301c 	ldr	r3, [pc, #28]	; c170 <interrupts_register_irq+0x78>
    c150:	e51b1010 	ldr	r1, [fp, #-16]
    c154:	e7831102 	str	r1, [r3, r2, lsl #2]
    c158:	e55b3005 	ldrb	r3, [fp, #-5]
    c15c:	e1a00003 	mov	r0, r3
    c160:	eb0001f5 	bl	c93c <interrupts_enable_irq>
    c164:	e24bd004 	sub	sp, fp, #4
    c168:	e8bd8800 	pop	{fp, pc}
    c16c:	000190c8 	.word	0x000190c8
    c170:	000191c8 	.word	0x000191c8

0000c174 <interrupts_register_swi>:
    c174:	e52db004 	push	{fp}		; (str fp, [sp, #-4]!)
    c178:	e28db000 	add	fp, sp, #0
    c17c:	e24dd00c 	sub	sp, sp, #12
    c180:	e50b0008 	str	r0, [fp, #-8]
    c184:	e50b100c 	str	r1, [fp, #-12]
    c188:	e59f301c 	ldr	r3, [pc, #28]	; c1ac <interrupts_register_swi+0x38>
    c18c:	e51b2008 	ldr	r2, [fp, #-8]
    c190:	e5832000 	str	r2, [r3]
    c194:	e59f3014 	ldr	r3, [pc, #20]	; c1b0 <interrupts_register_swi+0x3c>
    c198:	e51b200c 	ldr	r2, [fp, #-12]
    c19c:	e5832000 	str	r2, [r3]
    c1a0:	e24bd000 	sub	sp, fp, #0
    c1a4:	e49db004 	pop	{fp}		; (ldr fp, [sp], #4)
    c1a8:	e12fff1e 	bx	lr
    c1ac:	000192c8 	.word	0x000192c8
    c1b0:	000192cc 	.word	0x000192cc

0000c1b4 <interrupts_get_irq_name>:
    c1b4:	e92d4800 	push	{fp, lr}
    c1b8:	e28db004 	add	fp, sp, #4
    c1bc:	e24dd008 	sub	sp, sp, #8
    c1c0:	e1a03000 	mov	r3, r0
    c1c4:	e54b3005 	strb	r3, [fp, #-5]
    c1c8:	e55b3005 	ldrb	r3, [fp, #-5]
    c1cc:	e1a00003 	mov	r0, r3
    c1d0:	eb0001ca 	bl	c900 <interrupts_is_valid_irq_number>
    c1d4:	e1a03000 	mov	r3, r0
    c1d8:	e2233001 	eor	r3, r3, #1
    c1dc:	e6ef3073 	uxtb	r3, r3
    c1e0:	e3530000 	cmp	r3, #0
    c1e4:	0a000001 	beq	c1f0 <interrupts_get_irq_name+0x3c>
    c1e8:	e3a03000 	mov	r3, #0
    c1ec:	ea000002 	b	c1fc <interrupts_get_irq_name+0x48>
    c1f0:	e55b2005 	ldrb	r2, [fp, #-5]
    c1f4:	e59f300c 	ldr	r3, [pc, #12]	; c208 <interrupts_get_irq_name+0x54>
    c1f8:	e7933102 	ldr	r3, [r3, r2, lsl #2]
    c1fc:	e1a00003 	mov	r0, r3
    c200:	e24bd004 	sub	sp, fp, #4
    c204:	e8bd8800 	pop	{fp, pc}
    c208:	000191c8 	.word	0x000191c8

0000c20c <interrupts_get_swi_name>:
    c20c:	e52db004 	push	{fp}		; (str fp, [sp, #-4]!)
    c210:	e28db000 	add	fp, sp, #0
    c214:	e59f3010 	ldr	r3, [pc, #16]	; c22c <interrupts_get_swi_name+0x20>
    c218:	e5933000 	ldr	r3, [r3]
    c21c:	e1a00003 	mov	r0, r3
    c220:	e24bd000 	sub	sp, fp, #0
    c224:	e49db004 	pop	{fp}		; (ldr fp, [sp], #4)
    c228:	e12fff1e 	bx	lr
    c22c:	000192cc 	.word	0x000192cc

0000c230 <interrupts_get_level>:
    c230:	e92d4800 	push	{fp, lr}
    c234:	e28db004 	add	fp, sp, #4
    c238:	e24dd008 	sub	sp, sp, #8
    c23c:	ebfff09f 	bl	84c0 <get_cpsr_value>
    c240:	e50b0008 	str	r0, [fp, #-8]
    c244:	e51b3008 	ldr	r3, [fp, #-8]
    c248:	e2033080 	and	r3, r3, #128	; 0x80
    c24c:	e3530000 	cmp	r3, #0
    c250:	13a03000 	movne	r3, #0
    c254:	03a03001 	moveq	r3, #1
    c258:	e6ef3073 	uxtb	r3, r3
    c25c:	e1a00003 	mov	r0, r3
    c260:	e24bd004 	sub	sp, fp, #4
    c264:	e8bd8800 	pop	{fp, pc}

0000c268 <interrupts_set_level>:
    c268:	e92d4800 	push	{fp, lr}
    c26c:	e28db004 	add	fp, sp, #4
    c270:	e24dd008 	sub	sp, sp, #8
    c274:	e1a03000 	mov	r3, r0
    c278:	e54b3005 	strb	r3, [fp, #-5]
    c27c:	e55b3005 	ldrb	r3, [fp, #-5]
    c280:	e3530001 	cmp	r3, #1
    c284:	1a000002 	bne	c294 <interrupts_set_level+0x2c>
    c288:	eb000006 	bl	c2a8 <interrupts_enable>
    c28c:	e1a03000 	mov	r3, r0
    c290:	ea000001 	b	c29c <interrupts_set_level+0x34>
    c294:	eb00000e 	bl	c2d4 <interrupts_disable>
    c298:	e1a03000 	mov	r3, r0
    c29c:	e1a00003 	mov	r0, r3
    c2a0:	e24bd004 	sub	sp, fp, #4
    c2a4:	e8bd8800 	pop	{fp, pc}

0000c2a8 <interrupts_enable>:
    c2a8:	e92d4800 	push	{fp, lr}
    c2ac:	e28db004 	add	fp, sp, #4
    c2b0:	e24dd008 	sub	sp, sp, #8
    c2b4:	ebffffdd 	bl	c230 <interrupts_get_level>
    c2b8:	e1a03000 	mov	r3, r0
    c2bc:	e54b3005 	strb	r3, [fp, #-5]
    c2c0:	ebfff080 	bl	84c8 <enable_irq_interruptions>
    c2c4:	e55b3005 	ldrb	r3, [fp, #-5]
    c2c8:	e1a00003 	mov	r0, r3
    c2cc:	e24bd004 	sub	sp, fp, #4
    c2d0:	e8bd8800 	pop	{fp, pc}

0000c2d4 <interrupts_disable>:
    c2d4:	e92d4800 	push	{fp, lr}
    c2d8:	e28db004 	add	fp, sp, #4
    c2dc:	e24dd008 	sub	sp, sp, #8
    c2e0:	ebffffd2 	bl	c230 <interrupts_get_level>
    c2e4:	e1a03000 	mov	r3, r0
    c2e8:	e54b3005 	strb	r3, [fp, #-5]
    c2ec:	ebfff079 	bl	84d8 <disable_irq_interruptions>
    c2f0:	e55b3005 	ldrb	r3, [fp, #-5]
    c2f4:	e1a00003 	mov	r0, r3
    c2f8:	e24bd004 	sub	sp, fp, #4
    c2fc:	e8bd8800 	pop	{fp, pc}

0000c300 <interrupts_print_status>:
    c300:	e92d4800 	push	{fp, lr}
    c304:	e28db004 	add	fp, sp, #4
    c308:	e24dd008 	sub	sp, sp, #8
    c30c:	ebfff06b 	bl	84c0 <get_cpsr_value>
    c310:	e50b0008 	str	r0, [fp, #-8]
    c314:	e51b3008 	ldr	r3, [fp, #-8]
    c318:	e2033080 	and	r3, r3, #128	; 0x80
    c31c:	e3530000 	cmp	r3, #0
    c320:	13a03000 	movne	r3, #0
    c324:	03a03001 	moveq	r3, #1
    c328:	e54b3009 	strb	r3, [fp, #-9]
    c32c:	e51b3008 	ldr	r3, [fp, #-8]
    c330:	e2033040 	and	r3, r3, #64	; 0x40
    c334:	e3530000 	cmp	r3, #0
    c338:	13a03000 	movne	r3, #0
    c33c:	03a03001 	moveq	r3, #1
    c340:	e54b300a 	strb	r3, [fp, #-10]
    c344:	e55b3009 	ldrb	r3, [fp, #-9]
    c348:	e3530000 	cmp	r3, #0
    c34c:	0a000002 	beq	c35c <interrupts_print_status+0x5c>
    c350:	e59f0034 	ldr	r0, [pc, #52]	; c38c <interrupts_print_status+0x8c>
    c354:	eb00078e 	bl	e194 <printf>
    c358:	ea000001 	b	c364 <interrupts_print_status+0x64>
    c35c:	e59f002c 	ldr	r0, [pc, #44]	; c390 <interrupts_print_status+0x90>
    c360:	eb00078b 	bl	e194 <printf>
    c364:	e55b300a 	ldrb	r3, [fp, #-10]
    c368:	e3530000 	cmp	r3, #0
    c36c:	0a000002 	beq	c37c <interrupts_print_status+0x7c>
    c370:	e59f001c 	ldr	r0, [pc, #28]	; c394 <interrupts_print_status+0x94>
    c374:	eb000786 	bl	e194 <printf>
    c378:	ea000001 	b	c384 <interrupts_print_status+0x84>
    c37c:	e59f0014 	ldr	r0, [pc, #20]	; c398 <interrupts_print_status+0x98>
    c380:	eb000783 	bl	e194 <printf>
    c384:	e24bd004 	sub	sp, fp, #4
    c388:	e8bd8800 	pop	{fp, pc}
    c38c:	0001604c 	.word	0x0001604c
    c390:	00016054 	.word	0x00016054
    c394:	00016060 	.word	0x00016060
    c398:	00016068 	.word	0x00016068

0000c39c <interrupts_context>:
    c39c:	e52db004 	push	{fp}		; (str fp, [sp, #-4]!)
    c3a0:	e28db000 	add	fp, sp, #0
    c3a4:	e59f3010 	ldr	r3, [pc, #16]	; c3bc <interrupts_context+0x20>
    c3a8:	e5d33000 	ldrb	r3, [r3]
    c3ac:	e1a00003 	mov	r0, r3
    c3b0:	e24bd000 	sub	sp, fp, #0
    c3b4:	e49db004 	pop	{fp}		; (ldr fp, [sp], #4)
    c3b8:	e12fff1e 	bx	lr
    c3bc:	000192d0 	.word	0x000192d0

0000c3c0 <interrupts_was_irq_generated>:
    c3c0:	e52db004 	push	{fp}		; (str fp, [sp, #-4]!)
    c3c4:	e28db000 	add	fp, sp, #0
    c3c8:	e59f3010 	ldr	r3, [pc, #16]	; c3e0 <interrupts_was_irq_generated+0x20>
    c3cc:	e5d33000 	ldrb	r3, [r3]
    c3d0:	e1a00003 	mov	r0, r3
    c3d4:	e24bd000 	sub	sp, fp, #0
    c3d8:	e49db004 	pop	{fp}		; (ldr fp, [sp], #4)
    c3dc:	e12fff1e 	bx	lr
    c3e0:	000192d1 	.word	0x000192d1

0000c3e4 <interrupts_yield_on_return>:
    c3e4:	e52db004 	push	{fp}		; (str fp, [sp, #-4]!)
    c3e8:	e28db000 	add	fp, sp, #0
    c3ec:	e59f3010 	ldr	r3, [pc, #16]	; c404 <interrupts_yield_on_return+0x20>
    c3f0:	e3a02001 	mov	r2, #1
    c3f4:	e5c32000 	strb	r2, [r3]
    c3f8:	e24bd000 	sub	sp, fp, #0
    c3fc:	e49db004 	pop	{fp}		; (ldr fp, [sp], #4)
    c400:	e12fff1e 	bx	lr
    c404:	000192d2 	.word	0x000192d2

0000c408 <interrupts_dispatch_irq>:
    c408:	e92d4800 	push	{fp, lr}
    c40c:	e28db004 	add	fp, sp, #4
    c410:	e24dd020 	sub	sp, sp, #32
    c414:	e50b0020 	str	r0, [fp, #-32]
    c418:	e3a0301f 	mov	r3, #31
    c41c:	e14b30ba 	strh	r3, [fp, #-10]
    c420:	ebffef59 	bl	818c <GetForeColour>
    c424:	e50b0010 	str	r0, [fp, #-16]
    c428:	e15b30ba 	ldrh	r3, [fp, #-10]
    c42c:	e1a00003 	mov	r0, r3
    c430:	ebffef4f 	bl	8174 <SetForeColour>
    c434:	ebffff7d 	bl	c230 <interrupts_get_level>
    c438:	e1a03000 	mov	r3, r0
    c43c:	e3530000 	cmp	r3, #0
    c440:	0a000004 	beq	c458 <interrupts_dispatch_irq+0x50>
    c444:	e59f01e4 	ldr	r0, [pc, #484]	; c630 <interrupts_dispatch_irq+0x228>
    c448:	e3a010d6 	mov	r1, #214	; 0xd6
    c44c:	e59f21e0 	ldr	r2, [pc, #480]	; c634 <interrupts_dispatch_irq+0x22c>
    c450:	e59f31e0 	ldr	r3, [pc, #480]	; c638 <interrupts_dispatch_irq+0x230>
    c454:	ebfff3cc 	bl	938c <debug_panic>
    c458:	ebffffcf 	bl	c39c <interrupts_context>
    c45c:	e1a03000 	mov	r3, r0
    c460:	e2233001 	eor	r3, r3, #1
    c464:	e6ef3073 	uxtb	r3, r3
    c468:	e3530000 	cmp	r3, #0
    c46c:	1a000004 	bne	c484 <interrupts_dispatch_irq+0x7c>
    c470:	e59f01b8 	ldr	r0, [pc, #440]	; c630 <interrupts_dispatch_irq+0x228>
    c474:	e3a010d7 	mov	r1, #215	; 0xd7
    c478:	e59f21b4 	ldr	r2, [pc, #436]	; c634 <interrupts_dispatch_irq+0x22c>
    c47c:	e59f31b4 	ldr	r3, [pc, #436]	; c638 <interrupts_dispatch_irq+0x230>
    c480:	ebfff3c1 	bl	938c <debug_panic>
    c484:	ebffffcd 	bl	c3c0 <interrupts_was_irq_generated>
    c488:	e1a03000 	mov	r3, r0
    c48c:	e2233001 	eor	r3, r3, #1
    c490:	e6ef3073 	uxtb	r3, r3
    c494:	e3530000 	cmp	r3, #0
    c498:	1a000004 	bne	c4b0 <interrupts_dispatch_irq+0xa8>
    c49c:	e59f018c 	ldr	r0, [pc, #396]	; c630 <interrupts_dispatch_irq+0x228>
    c4a0:	e3a010d8 	mov	r1, #216	; 0xd8
    c4a4:	e59f2188 	ldr	r2, [pc, #392]	; c634 <interrupts_dispatch_irq+0x22c>
    c4a8:	e59f3188 	ldr	r3, [pc, #392]	; c638 <interrupts_dispatch_irq+0x230>
    c4ac:	ebfff3b6 	bl	938c <debug_panic>
    c4b0:	e59f3184 	ldr	r3, [pc, #388]	; c63c <interrupts_dispatch_irq+0x234>
    c4b4:	e3a02001 	mov	r2, #1
    c4b8:	e5c32000 	strb	r2, [r3]
    c4bc:	e59f317c 	ldr	r3, [pc, #380]	; c640 <interrupts_dispatch_irq+0x238>
    c4c0:	e3a02001 	mov	r2, #1
    c4c4:	e5c32000 	strb	r2, [r3]
    c4c8:	e59f3174 	ldr	r3, [pc, #372]	; c644 <interrupts_dispatch_irq+0x23c>
    c4cc:	e3a02000 	mov	r2, #0
    c4d0:	e5c32000 	strb	r2, [r3]
    c4d4:	e59f316c 	ldr	r3, [pc, #364]	; c648 <interrupts_dispatch_irq+0x240>
    c4d8:	e50b3014 	str	r3, [fp, #-20]
    c4dc:	e3a03000 	mov	r3, #0
    c4e0:	e50b3008 	str	r3, [fp, #-8]
    c4e4:	ea000012 	b	c534 <interrupts_dispatch_irq+0x12c>
    c4e8:	e51b3014 	ldr	r3, [fp, #-20]
    c4ec:	e5932000 	ldr	r2, [r3]
    c4f0:	e3a01001 	mov	r1, #1
    c4f4:	e51b3008 	ldr	r3, [fp, #-8]
    c4f8:	e1a03311 	lsl	r3, r1, r3
    c4fc:	e0023003 	and	r3, r2, r3
    c500:	e3530000 	cmp	r3, #0
    c504:	03a03000 	moveq	r3, #0
    c508:	13a03001 	movne	r3, #1
    c50c:	e54b3015 	strb	r3, [fp, #-21]
    c510:	e55b3015 	ldrb	r3, [fp, #-21]
    c514:	e3530000 	cmp	r3, #0
    c518:	0a000002 	beq	c528 <interrupts_dispatch_irq+0x120>
    c51c:	e51b0020 	ldr	r0, [fp, #-32]
    c520:	e51b1008 	ldr	r1, [fp, #-8]
    c524:	eb0000df 	bl	c8a8 <interrupts_dispatch_pending_irq>
    c528:	e51b3008 	ldr	r3, [fp, #-8]
    c52c:	e2833001 	add	r3, r3, #1
    c530:	e50b3008 	str	r3, [fp, #-8]
    c534:	e51b3008 	ldr	r3, [fp, #-8]
    c538:	e353001f 	cmp	r3, #31
    c53c:	daffffe9 	ble	c4e8 <interrupts_dispatch_irq+0xe0>
    c540:	e59f3104 	ldr	r3, [pc, #260]	; c64c <interrupts_dispatch_irq+0x244>
    c544:	e50b3014 	str	r3, [fp, #-20]
    c548:	e3a03000 	mov	r3, #0
    c54c:	e50b3008 	str	r3, [fp, #-8]
    c550:	ea000012 	b	c5a0 <interrupts_dispatch_irq+0x198>
    c554:	e51b3014 	ldr	r3, [fp, #-20]
    c558:	e5932000 	ldr	r2, [r3]
    c55c:	e3a01001 	mov	r1, #1
    c560:	e51b3008 	ldr	r3, [fp, #-8]
    c564:	e1a03311 	lsl	r3, r1, r3
    c568:	e0023003 	and	r3, r2, r3
    c56c:	e3530000 	cmp	r3, #0
    c570:	03a03000 	moveq	r3, #0
    c574:	13a03001 	movne	r3, #1
    c578:	e54b3016 	strb	r3, [fp, #-22]
    c57c:	e55b3016 	ldrb	r3, [fp, #-22]
    c580:	e3530000 	cmp	r3, #0
    c584:	0a000002 	beq	c594 <interrupts_dispatch_irq+0x18c>
    c588:	e51b0020 	ldr	r0, [fp, #-32]
    c58c:	e51b1008 	ldr	r1, [fp, #-8]
    c590:	eb0000c4 	bl	c8a8 <interrupts_dispatch_pending_irq>
    c594:	e51b3008 	ldr	r3, [fp, #-8]
    c598:	e2833001 	add	r3, r3, #1
    c59c:	e50b3008 	str	r3, [fp, #-8]
    c5a0:	e51b3008 	ldr	r3, [fp, #-8]
    c5a4:	e353001f 	cmp	r3, #31
    c5a8:	daffffe9 	ble	c554 <interrupts_dispatch_irq+0x14c>
    c5ac:	e51b0010 	ldr	r0, [fp, #-16]
    c5b0:	ebffeeef 	bl	8174 <SetForeColour>
    c5b4:	ebffff1d 	bl	c230 <interrupts_get_level>
    c5b8:	e1a03000 	mov	r3, r0
    c5bc:	e3530000 	cmp	r3, #0
    c5c0:	0a000004 	beq	c5d8 <interrupts_dispatch_irq+0x1d0>
    c5c4:	e59f0064 	ldr	r0, [pc, #100]	; c630 <interrupts_dispatch_irq+0x228>
    c5c8:	e3a010f3 	mov	r1, #243	; 0xf3
    c5cc:	e59f2060 	ldr	r2, [pc, #96]	; c634 <interrupts_dispatch_irq+0x22c>
    c5d0:	e59f3060 	ldr	r3, [pc, #96]	; c638 <interrupts_dispatch_irq+0x230>
    c5d4:	ebfff36c 	bl	938c <debug_panic>
    c5d8:	ebffff6f 	bl	c39c <interrupts_context>
    c5dc:	e1a03000 	mov	r3, r0
    c5e0:	e3530000 	cmp	r3, #0
    c5e4:	1a000004 	bne	c5fc <interrupts_dispatch_irq+0x1f4>
    c5e8:	e59f0040 	ldr	r0, [pc, #64]	; c630 <interrupts_dispatch_irq+0x228>
    c5ec:	e3a010f4 	mov	r1, #244	; 0xf4
    c5f0:	e59f203c 	ldr	r2, [pc, #60]	; c634 <interrupts_dispatch_irq+0x22c>
    c5f4:	e59f303c 	ldr	r3, [pc, #60]	; c638 <interrupts_dispatch_irq+0x230>
    c5f8:	ebfff363 	bl	938c <debug_panic>
    c5fc:	e59f303c 	ldr	r3, [pc, #60]	; c640 <interrupts_dispatch_irq+0x238>
    c600:	e3a02000 	mov	r2, #0
    c604:	e5c32000 	strb	r2, [r3]
    c608:	e59f3034 	ldr	r3, [pc, #52]	; c644 <interrupts_dispatch_irq+0x23c>
    c60c:	e5d33000 	ldrb	r3, [r3]
    c610:	e3530000 	cmp	r3, #0
    c614:	0a000000 	beq	c61c <interrupts_dispatch_irq+0x214>
    c618:	eb0016b3 	bl	120ec <thread_yield>
    c61c:	e59f3018 	ldr	r3, [pc, #24]	; c63c <interrupts_dispatch_irq+0x234>
    c620:	e3a02000 	mov	r2, #0
    c624:	e5c32000 	strb	r2, [r3]
    c628:	e24bd004 	sub	sp, fp, #4
    c62c:	e8bd8800 	pop	{fp, pc}
    c630:	00016074 	.word	0x00016074
    c634:	0001615c 	.word	0x0001615c
    c638:	00016088 	.word	0x00016088
    c63c:	000192d1 	.word	0x000192d1
    c640:	000192d0 	.word	0x000192d0
    c644:	000192d2 	.word	0x000192d2
    c648:	2000b204 	.word	0x2000b204
    c64c:	2000b208 	.word	0x2000b208

0000c650 <interrupts_dispatch_swi>:
    c650:	e92d4800 	push	{fp, lr}
    c654:	e28db004 	add	fp, sp, #4
    c658:	e24dd010 	sub	sp, sp, #16
    c65c:	e50b0010 	str	r0, [fp, #-16]
    c660:	e50b1014 	str	r1, [fp, #-20]
    c664:	ebfffef1 	bl	c230 <interrupts_get_level>
    c668:	e1a03000 	mov	r3, r0
    c66c:	e3530000 	cmp	r3, #0
    c670:	0a000004 	beq	c688 <interrupts_dispatch_swi+0x38>
    c674:	e59f0064 	ldr	r0, [pc, #100]	; c6e0 <interrupts_dispatch_swi+0x90>
    c678:	e59f1064 	ldr	r1, [pc, #100]	; c6e4 <interrupts_dispatch_swi+0x94>
    c67c:	e59f2064 	ldr	r2, [pc, #100]	; c6e8 <interrupts_dispatch_swi+0x98>
    c680:	e59f3064 	ldr	r3, [pc, #100]	; c6ec <interrupts_dispatch_swi+0x9c>
    c684:	ebfff340 	bl	938c <debug_panic>
    c688:	ebffff43 	bl	c39c <interrupts_context>
    c68c:	e1a03000 	mov	r3, r0
    c690:	e2233001 	eor	r3, r3, #1
    c694:	e6ef3073 	uxtb	r3, r3
    c698:	e3530000 	cmp	r3, #0
    c69c:	1a000004 	bne	c6b4 <interrupts_dispatch_swi+0x64>
    c6a0:	e59f0038 	ldr	r0, [pc, #56]	; c6e0 <interrupts_dispatch_swi+0x90>
    c6a4:	e59f1044 	ldr	r1, [pc, #68]	; c6f0 <interrupts_dispatch_swi+0xa0>
    c6a8:	e59f2038 	ldr	r2, [pc, #56]	; c6e8 <interrupts_dispatch_swi+0x98>
    c6ac:	e59f3038 	ldr	r3, [pc, #56]	; c6ec <interrupts_dispatch_swi+0x9c>
    c6b0:	ebfff335 	bl	938c <debug_panic>
    c6b4:	e3a03e7e 	mov	r3, #2016	; 0x7e0
    c6b8:	e14b30b6 	strh	r3, [fp, #-6]
    c6bc:	ebffeeb2 	bl	818c <GetForeColour>
    c6c0:	e50b000c 	str	r0, [fp, #-12]
    c6c4:	e15b30b6 	ldrh	r3, [fp, #-6]
    c6c8:	e1a00003 	mov	r0, r3
    c6cc:	ebffeea8 	bl	8174 <SetForeColour>
    c6d0:	e51b000c 	ldr	r0, [fp, #-12]
    c6d4:	ebffeea6 	bl	8174 <SetForeColour>
    c6d8:	e24bd004 	sub	sp, fp, #4
    c6dc:	e8bd8800 	pop	{fp, pc}
    c6e0:	00016074 	.word	0x00016074
    c6e4:	00000102 	.word	0x00000102
    c6e8:	00016174 	.word	0x00016174
    c6ec:	00016088 	.word	0x00016088
    c6f0:	00000103 	.word	0x00000103

0000c6f4 <interrupts_debug>:
    c6f4:	e92d4800 	push	{fp, lr}
    c6f8:	e28db004 	add	fp, sp, #4
    c6fc:	e24dd008 	sub	sp, sp, #8
    c700:	e50b0008 	str	r0, [fp, #-8]
    c704:	e59f0158 	ldr	r0, [pc, #344]	; c864 <interrupts_debug+0x170>
    c708:	eb0006a1 	bl	e194 <printf>
    c70c:	e51b3008 	ldr	r3, [fp, #-8]
    c710:	e5933000 	ldr	r3, [r3]
    c714:	e1a00003 	mov	r0, r3
    c718:	ebfff33c 	bl	9410 <debug_print_bits_int>
    c71c:	e51b3008 	ldr	r3, [fp, #-8]
    c720:	e5933004 	ldr	r3, [r3, #4]
    c724:	e59f013c 	ldr	r0, [pc, #316]	; c868 <interrupts_debug+0x174>
    c728:	e1a01003 	mov	r1, r3
    c72c:	eb000698 	bl	e194 <printf>
    c730:	e51b3008 	ldr	r3, [fp, #-8]
    c734:	e5933008 	ldr	r3, [r3, #8]
    c738:	e59f012c 	ldr	r0, [pc, #300]	; c86c <interrupts_debug+0x178>
    c73c:	e1a01003 	mov	r1, r3
    c740:	eb000693 	bl	e194 <printf>
    c744:	e51b3008 	ldr	r3, [fp, #-8]
    c748:	e593300c 	ldr	r3, [r3, #12]
    c74c:	e59f011c 	ldr	r0, [pc, #284]	; c870 <interrupts_debug+0x17c>
    c750:	e1a01003 	mov	r1, r3
    c754:	eb00068e 	bl	e194 <printf>
    c758:	e51b3008 	ldr	r3, [fp, #-8]
    c75c:	e5933010 	ldr	r3, [r3, #16]
    c760:	e59f010c 	ldr	r0, [pc, #268]	; c874 <interrupts_debug+0x180>
    c764:	e1a01003 	mov	r1, r3
    c768:	eb000689 	bl	e194 <printf>
    c76c:	e51b3008 	ldr	r3, [fp, #-8]
    c770:	e5933014 	ldr	r3, [r3, #20]
    c774:	e59f00fc 	ldr	r0, [pc, #252]	; c878 <interrupts_debug+0x184>
    c778:	e1a01003 	mov	r1, r3
    c77c:	eb000684 	bl	e194 <printf>
    c780:	e51b3008 	ldr	r3, [fp, #-8]
    c784:	e5933018 	ldr	r3, [r3, #24]
    c788:	e59f00ec 	ldr	r0, [pc, #236]	; c87c <interrupts_debug+0x188>
    c78c:	e1a01003 	mov	r1, r3
    c790:	eb00067f 	bl	e194 <printf>
    c794:	e51b3008 	ldr	r3, [fp, #-8]
    c798:	e593301c 	ldr	r3, [r3, #28]
    c79c:	e59f00dc 	ldr	r0, [pc, #220]	; c880 <interrupts_debug+0x18c>
    c7a0:	e1a01003 	mov	r1, r3
    c7a4:	eb00067a 	bl	e194 <printf>
    c7a8:	e51b3008 	ldr	r3, [fp, #-8]
    c7ac:	e5933020 	ldr	r3, [r3, #32]
    c7b0:	e59f00cc 	ldr	r0, [pc, #204]	; c884 <interrupts_debug+0x190>
    c7b4:	e1a01003 	mov	r1, r3
    c7b8:	eb000675 	bl	e194 <printf>
    c7bc:	e51b3008 	ldr	r3, [fp, #-8]
    c7c0:	e5933024 	ldr	r3, [r3, #36]	; 0x24
    c7c4:	e59f00bc 	ldr	r0, [pc, #188]	; c888 <interrupts_debug+0x194>
    c7c8:	e1a01003 	mov	r1, r3
    c7cc:	eb000670 	bl	e194 <printf>
    c7d0:	e51b3008 	ldr	r3, [fp, #-8]
    c7d4:	e5933028 	ldr	r3, [r3, #40]	; 0x28
    c7d8:	e59f00ac 	ldr	r0, [pc, #172]	; c88c <interrupts_debug+0x198>
    c7dc:	e1a01003 	mov	r1, r3
    c7e0:	eb00066b 	bl	e194 <printf>
    c7e4:	e51b3008 	ldr	r3, [fp, #-8]
    c7e8:	e593302c 	ldr	r3, [r3, #44]	; 0x2c
    c7ec:	e59f009c 	ldr	r0, [pc, #156]	; c890 <interrupts_debug+0x19c>
    c7f0:	e1a01003 	mov	r1, r3
    c7f4:	eb000666 	bl	e194 <printf>
    c7f8:	e51b3008 	ldr	r3, [fp, #-8]
    c7fc:	e5933030 	ldr	r3, [r3, #48]	; 0x30
    c800:	e59f008c 	ldr	r0, [pc, #140]	; c894 <interrupts_debug+0x1a0>
    c804:	e1a01003 	mov	r1, r3
    c808:	eb000661 	bl	e194 <printf>
    c80c:	e51b3008 	ldr	r3, [fp, #-8]
    c810:	e5933034 	ldr	r3, [r3, #52]	; 0x34
    c814:	e59f007c 	ldr	r0, [pc, #124]	; c898 <interrupts_debug+0x1a4>
    c818:	e1a01003 	mov	r1, r3
    c81c:	eb00065c 	bl	e194 <printf>
    c820:	e51b3008 	ldr	r3, [fp, #-8]
    c824:	e5933038 	ldr	r3, [r3, #56]	; 0x38
    c828:	e59f006c 	ldr	r0, [pc, #108]	; c89c <interrupts_debug+0x1a8>
    c82c:	e1a01003 	mov	r1, r3
    c830:	eb000657 	bl	e194 <printf>
    c834:	e51b3008 	ldr	r3, [fp, #-8]
    c838:	e593303c 	ldr	r3, [r3, #60]	; 0x3c
    c83c:	e59f005c 	ldr	r0, [pc, #92]	; c8a0 <interrupts_debug+0x1ac>
    c840:	e1a01003 	mov	r1, r3
    c844:	eb000652 	bl	e194 <printf>
    c848:	e51b3008 	ldr	r3, [fp, #-8]
    c84c:	e5933040 	ldr	r3, [r3, #64]	; 0x40
    c850:	e59f004c 	ldr	r0, [pc, #76]	; c8a4 <interrupts_debug+0x1b0>
    c854:	e1a01003 	mov	r1, r3
    c858:	eb00064d 	bl	e194 <printf>
    c85c:	e24bd004 	sub	sp, fp, #4
    c860:	e8bd8800 	pop	{fp, pc}
    c864:	0001609c 	.word	0x0001609c
    c868:	000160a4 	.word	0x000160a4
    c86c:	000160b0 	.word	0x000160b0
    c870:	000160bc 	.word	0x000160bc
    c874:	000160c8 	.word	0x000160c8
    c878:	000160d0 	.word	0x000160d0
    c87c:	000160d8 	.word	0x000160d8
    c880:	000160e0 	.word	0x000160e0
    c884:	000160e8 	.word	0x000160e8
    c888:	000160f0 	.word	0x000160f0
    c88c:	000160f8 	.word	0x000160f8
    c890:	00016100 	.word	0x00016100
    c894:	00016108 	.word	0x00016108
    c898:	00016110 	.word	0x00016110
    c89c:	00016118 	.word	0x00016118
    c8a0:	00016124 	.word	0x00016124
    c8a4:	00016130 	.word	0x00016130

0000c8a8 <interrupts_dispatch_pending_irq>:
    c8a8:	e92d4800 	push	{fp, lr}
    c8ac:	e28db004 	add	fp, sp, #4
    c8b0:	e24dd008 	sub	sp, sp, #8
    c8b4:	e50b0008 	str	r0, [fp, #-8]
    c8b8:	e50b100c 	str	r1, [fp, #-12]
    c8bc:	e59f3014 	ldr	r3, [pc, #20]	; c8d8 <interrupts_dispatch_pending_irq+0x30>
    c8c0:	e51b200c 	ldr	r2, [fp, #-12]
    c8c4:	e7933102 	ldr	r3, [r3, r2, lsl #2]
    c8c8:	e51b0008 	ldr	r0, [fp, #-8]
    c8cc:	e12fff33 	blx	r3
    c8d0:	e24bd004 	sub	sp, fp, #4
    c8d4:	e8bd8800 	pop	{fp, pc}
    c8d8:	000190c8 	.word	0x000190c8

0000c8dc <dummy_handler>:
    c8dc:	e92d4800 	push	{fp, lr}
    c8e0:	e28db004 	add	fp, sp, #4
    c8e4:	e24dd008 	sub	sp, sp, #8
    c8e8:	e50b0008 	str	r0, [fp, #-8]
    c8ec:	e59f0008 	ldr	r0, [pc, #8]	; c8fc <dummy_handler+0x20>
    c8f0:	eb000627 	bl	e194 <printf>
    c8f4:	e24bd004 	sub	sp, fp, #4
    c8f8:	e8bd8800 	pop	{fp, pc}
    c8fc:	0001613c 	.word	0x0001613c

0000c900 <interrupts_is_valid_irq_number>:
    c900:	e52db004 	push	{fp}		; (str fp, [sp, #-4]!)
    c904:	e28db000 	add	fp, sp, #0
    c908:	e24dd00c 	sub	sp, sp, #12
    c90c:	e1a03000 	mov	r3, r0
    c910:	e54b3005 	strb	r3, [fp, #-5]
    c914:	e55b3005 	ldrb	r3, [fp, #-5]
    c918:	e353003f 	cmp	r3, #63	; 0x3f
    c91c:	9a000001 	bls	c928 <interrupts_is_valid_irq_number+0x28>
    c920:	e3a03000 	mov	r3, #0
    c924:	ea000000 	b	c92c <interrupts_is_valid_irq_number+0x2c>
    c928:	e3a03001 	mov	r3, #1
    c92c:	e1a00003 	mov	r0, r3
    c930:	e24bd000 	sub	sp, fp, #0
    c934:	e49db004 	pop	{fp}		; (ldr fp, [sp], #4)
    c938:	e12fff1e 	bx	lr

0000c93c <interrupts_enable_irq>:
    c93c:	e92d4800 	push	{fp, lr}
    c940:	e28db004 	add	fp, sp, #4
    c944:	e24dd010 	sub	sp, sp, #16
    c948:	e1a03000 	mov	r3, r0
    c94c:	e54b300d 	strb	r3, [fp, #-13]
    c950:	e55b300d 	ldrb	r3, [fp, #-13]
    c954:	e1a00003 	mov	r0, r3
    c958:	ebffffe8 	bl	c900 <interrupts_is_valid_irq_number>
    c95c:	e1a03000 	mov	r3, r0
    c960:	e2233001 	eor	r3, r3, #1
    c964:	e6ef3073 	uxtb	r3, r3
    c968:	e3530000 	cmp	r3, #0
    c96c:	0a000000 	beq	c974 <interrupts_enable_irq+0x38>
    c970:	ea00001f 	b	c9f4 <interrupts_enable_irq+0xb8>
    c974:	e3a03020 	mov	r3, #32
    c978:	e50b3008 	str	r3, [fp, #-8]
    c97c:	e55b200d 	ldrb	r2, [fp, #-13]
    c980:	e51b3008 	ldr	r3, [fp, #-8]
    c984:	e1520003 	cmp	r2, r3
    c988:	aa00000a 	bge	c9b8 <interrupts_enable_irq+0x7c>
    c98c:	e59f3068 	ldr	r3, [pc, #104]	; c9fc <interrupts_enable_irq+0xc0>
    c990:	e50b300c 	str	r3, [fp, #-12]
    c994:	e51b300c 	ldr	r3, [fp, #-12]
    c998:	e5932000 	ldr	r2, [r3]
    c99c:	e55b300d 	ldrb	r3, [fp, #-13]
    c9a0:	e3a01001 	mov	r1, #1
    c9a4:	e1a03311 	lsl	r3, r1, r3
    c9a8:	e1822003 	orr	r2, r2, r3
    c9ac:	e51b300c 	ldr	r3, [fp, #-12]
    c9b0:	e5832000 	str	r2, [r3]
    c9b4:	ea00000e 	b	c9f4 <interrupts_enable_irq+0xb8>
    c9b8:	e51b3008 	ldr	r3, [fp, #-8]
    c9bc:	e6ef3073 	uxtb	r3, r3
    c9c0:	e55b200d 	ldrb	r2, [fp, #-13]
    c9c4:	e0633002 	rsb	r3, r3, r2
    c9c8:	e54b300d 	strb	r3, [fp, #-13]
    c9cc:	e59f302c 	ldr	r3, [pc, #44]	; ca00 <interrupts_enable_irq+0xc4>
    c9d0:	e50b300c 	str	r3, [fp, #-12]
    c9d4:	e51b300c 	ldr	r3, [fp, #-12]
    c9d8:	e5932000 	ldr	r2, [r3]
    c9dc:	e55b300d 	ldrb	r3, [fp, #-13]
    c9e0:	e3a01001 	mov	r1, #1
    c9e4:	e1a03311 	lsl	r3, r1, r3
    c9e8:	e1822003 	orr	r2, r2, r3
    c9ec:	e51b300c 	ldr	r3, [fp, #-12]
    c9f0:	e5832000 	str	r2, [r3]
    c9f4:	e24bd004 	sub	sp, fp, #4
    c9f8:	e8bd8800 	pop	{fp, pc}
    c9fc:	2000b210 	.word	0x2000b210
    ca00:	2000b214 	.word	0x2000b214

0000ca04 <pg_ofs>:
    ca04:	e52db004 	push	{fp}		; (str fp, [sp, #-4]!)
    ca08:	e28db000 	add	fp, sp, #0
    ca0c:	e24dd00c 	sub	sp, sp, #12
    ca10:	e50b0008 	str	r0, [fp, #-8]
    ca14:	e51b3008 	ldr	r3, [fp, #-8]
    ca18:	e1a03a03 	lsl	r3, r3, #20
    ca1c:	e1a03a23 	lsr	r3, r3, #20
    ca20:	e1a00003 	mov	r0, r3
    ca24:	e24bd000 	sub	sp, fp, #0
    ca28:	e49db004 	pop	{fp}		; (ldr fp, [sp], #4)
    ca2c:	e12fff1e 	bx	lr

0000ca30 <pg_round_down>:
    ca30:	e52db004 	push	{fp}		; (str fp, [sp, #-4]!)
    ca34:	e28db000 	add	fp, sp, #0
    ca38:	e24dd00c 	sub	sp, sp, #12
    ca3c:	e50b0008 	str	r0, [fp, #-8]
    ca40:	e51b3008 	ldr	r3, [fp, #-8]
    ca44:	e3c33eff 	bic	r3, r3, #4080	; 0xff0
    ca48:	e3c3300f 	bic	r3, r3, #15
    ca4c:	e1a00003 	mov	r0, r3
    ca50:	e24bd000 	sub	sp, fp, #0
    ca54:	e49db004 	pop	{fp}		; (ldr fp, [sp], #4)
    ca58:	e12fff1e 	bx	lr

0000ca5c <malloc_init>:
    ca5c:	e92d4800 	push	{fp, lr}
    ca60:	e28db004 	add	fp, sp, #4
    ca64:	e24dd008 	sub	sp, sp, #8
    ca68:	e59f00d8 	ldr	r0, [pc, #216]	; cb48 <malloc_init+0xec>
    ca6c:	eb0005c8 	bl	e194 <printf>
    ca70:	e59f30d4 	ldr	r3, [pc, #212]	; cb4c <malloc_init+0xf0>
    ca74:	e3a02000 	mov	r2, #0
    ca78:	e5832000 	str	r2, [r3]
    ca7c:	e3a03010 	mov	r3, #16
    ca80:	e50b3008 	str	r3, [fp, #-8]
    ca84:	ea00002a 	b	cb34 <malloc_init+0xd8>
    ca88:	e59f30bc 	ldr	r3, [pc, #188]	; cb4c <malloc_init+0xf0>
    ca8c:	e5933000 	ldr	r3, [r3]
    ca90:	e1a02003 	mov	r2, r3
    ca94:	e2821001 	add	r1, r2, #1
    ca98:	e59f30ac 	ldr	r3, [pc, #172]	; cb4c <malloc_init+0xf0>
    ca9c:	e5831000 	str	r1, [r3]
    caa0:	e1a03002 	mov	r3, r2
    caa4:	e1a03083 	lsl	r3, r3, #1
    caa8:	e0833002 	add	r3, r3, r2
    caac:	e1a03203 	lsl	r3, r3, #4
    cab0:	e59f2098 	ldr	r2, [pc, #152]	; cb50 <malloc_init+0xf4>
    cab4:	e0833002 	add	r3, r3, r2
    cab8:	e50b300c 	str	r3, [fp, #-12]
    cabc:	e59f3088 	ldr	r3, [pc, #136]	; cb4c <malloc_init+0xf0>
    cac0:	e5933000 	ldr	r3, [r3]
    cac4:	e353000a 	cmp	r3, #10
    cac8:	9a000004 	bls	cae0 <malloc_init+0x84>
    cacc:	e59f0080 	ldr	r0, [pc, #128]	; cb54 <malloc_init+0xf8>
    cad0:	e3a01051 	mov	r1, #81	; 0x51
    cad4:	e59f207c 	ldr	r2, [pc, #124]	; cb58 <malloc_init+0xfc>
    cad8:	e59f307c 	ldr	r3, [pc, #124]	; cb5c <malloc_init+0x100>
    cadc:	ebfff22a 	bl	938c <debug_panic>
    cae0:	e51b300c 	ldr	r3, [fp, #-12]
    cae4:	e51b2008 	ldr	r2, [fp, #-8]
    cae8:	e5832000 	str	r2, [r3]
    caec:	e59f006c 	ldr	r0, [pc, #108]	; cb60 <malloc_init+0x104>
    caf0:	e51b1008 	ldr	r1, [fp, #-8]
    caf4:	eb001ab5 	bl	135d0 <__aeabi_uidiv>
    caf8:	e1a03000 	mov	r3, r0
    cafc:	e1a02003 	mov	r2, r3
    cb00:	e51b300c 	ldr	r3, [fp, #-12]
    cb04:	e5832004 	str	r2, [r3, #4]
    cb08:	e51b300c 	ldr	r3, [fp, #-12]
    cb0c:	e2833008 	add	r3, r3, #8
    cb10:	e1a00003 	mov	r0, r3
    cb14:	ebfff8f4 	bl	aeec <list_init>
    cb18:	e51b300c 	ldr	r3, [fp, #-12]
    cb1c:	e2833018 	add	r3, r3, #24
    cb20:	e1a00003 	mov	r0, r3
    cb24:	eb0010f3 	bl	10ef8 <lock_init>
    cb28:	e51b3008 	ldr	r3, [fp, #-8]
    cb2c:	e1a03083 	lsl	r3, r3, #1
    cb30:	e50b3008 	str	r3, [fp, #-8]
    cb34:	e51b3008 	ldr	r3, [fp, #-8]
    cb38:	e3530b02 	cmp	r3, #2048	; 0x800
    cb3c:	3affffd1 	bcc	ca88 <malloc_init+0x2c>
    cb40:	e24bd004 	sub	sp, fp, #4
    cb44:	e8bd8800 	pop	{fp, pc}
    cb48:	0001618c 	.word	0x0001618c
    cb4c:	000194b4 	.word	0x000194b4
    cb50:	000192d4 	.word	0x000192d4
    cb54:	000161a8 	.word	0x000161a8
    cb58:	000161d0 	.word	0x000161d0
    cb5c:	000161bc 	.word	0x000161bc
    cb60:	00000ff4 	.word	0x00000ff4

0000cb64 <malloc>:
    cb64:	e92d4800 	push	{fp, lr}
    cb68:	e28db004 	add	fp, sp, #4
    cb6c:	e24dd020 	sub	sp, sp, #32
    cb70:	e50b0020 	str	r0, [fp, #-32]
    cb74:	e51b3020 	ldr	r3, [fp, #-32]
    cb78:	e3530000 	cmp	r3, #0
    cb7c:	1a000001 	bne	cb88 <malloc+0x24>
    cb80:	e3a03000 	mov	r3, #0
    cb84:	ea000088 	b	cdac <malloc+0x248>
    cb88:	e59f3228 	ldr	r3, [pc, #552]	; cdb8 <malloc+0x254>
    cb8c:	e50b3008 	str	r3, [fp, #-8]
    cb90:	ea000008 	b	cbb8 <malloc+0x54>
    cb94:	e51b3008 	ldr	r3, [fp, #-8]
    cb98:	e5932000 	ldr	r2, [r3]
    cb9c:	e51b3020 	ldr	r3, [fp, #-32]
    cba0:	e1520003 	cmp	r2, r3
    cba4:	3a000000 	bcc	cbac <malloc+0x48>
    cba8:	ea00000e 	b	cbe8 <malloc+0x84>
    cbac:	e51b3008 	ldr	r3, [fp, #-8]
    cbb0:	e2833030 	add	r3, r3, #48	; 0x30
    cbb4:	e50b3008 	str	r3, [fp, #-8]
    cbb8:	e59f31fc 	ldr	r3, [pc, #508]	; cdbc <malloc+0x258>
    cbbc:	e5932000 	ldr	r2, [r3]
    cbc0:	e1a03002 	mov	r3, r2
    cbc4:	e1a03083 	lsl	r3, r3, #1
    cbc8:	e0833002 	add	r3, r3, r2
    cbcc:	e1a03203 	lsl	r3, r3, #4
    cbd0:	e1a02003 	mov	r2, r3
    cbd4:	e59f31dc 	ldr	r3, [pc, #476]	; cdb8 <malloc+0x254>
    cbd8:	e0822003 	add	r2, r2, r3
    cbdc:	e51b3008 	ldr	r3, [fp, #-8]
    cbe0:	e1520003 	cmp	r2, r3
    cbe4:	8affffea 	bhi	cb94 <malloc+0x30>
    cbe8:	e59f31cc 	ldr	r3, [pc, #460]	; cdbc <malloc+0x258>
    cbec:	e5932000 	ldr	r2, [r3]
    cbf0:	e1a03002 	mov	r3, r2
    cbf4:	e1a03083 	lsl	r3, r3, #1
    cbf8:	e0833002 	add	r3, r3, r2
    cbfc:	e1a03203 	lsl	r3, r3, #4
    cc00:	e1a02003 	mov	r2, r3
    cc04:	e59f31ac 	ldr	r3, [pc, #428]	; cdb8 <malloc+0x254>
    cc08:	e0822003 	add	r2, r2, r3
    cc0c:	e51b3008 	ldr	r3, [fp, #-8]
    cc10:	e1520003 	cmp	r2, r3
    cc14:	1a000019 	bne	cc80 <malloc+0x11c>
    cc18:	e51b3020 	ldr	r3, [fp, #-32]
    cc1c:	e2833a01 	add	r3, r3, #4096	; 0x1000
    cc20:	e283300b 	add	r3, r3, #11
    cc24:	e1a03623 	lsr	r3, r3, #12
    cc28:	e50b3010 	str	r3, [fp, #-16]
    cc2c:	e3a00000 	mov	r0, #0
    cc30:	e51b1010 	ldr	r1, [fp, #-16]
    cc34:	eb0001e8 	bl	d3dc <palloc_get_multiple>
    cc38:	e50b0014 	str	r0, [fp, #-20]
    cc3c:	e51b3014 	ldr	r3, [fp, #-20]
    cc40:	e3530000 	cmp	r3, #0
    cc44:	1a000001 	bne	cc50 <malloc+0xec>
    cc48:	e3a03000 	mov	r3, #0
    cc4c:	ea000056 	b	cdac <malloc+0x248>
    cc50:	e51b3014 	ldr	r3, [fp, #-20]
    cc54:	e59f2164 	ldr	r2, [pc, #356]	; cdc0 <malloc+0x25c>
    cc58:	e5832000 	str	r2, [r3]
    cc5c:	e51b3014 	ldr	r3, [fp, #-20]
    cc60:	e3a02000 	mov	r2, #0
    cc64:	e5832004 	str	r2, [r3, #4]
    cc68:	e51b3014 	ldr	r3, [fp, #-20]
    cc6c:	e51b2010 	ldr	r2, [fp, #-16]
    cc70:	e5832008 	str	r2, [r3, #8]
    cc74:	e51b3014 	ldr	r3, [fp, #-20]
    cc78:	e283300c 	add	r3, r3, #12
    cc7c:	ea00004a 	b	cdac <malloc+0x248>
    cc80:	e51b3008 	ldr	r3, [fp, #-8]
    cc84:	e2833018 	add	r3, r3, #24
    cc88:	e1a00003 	mov	r0, r3
    cc8c:	eb0010b2 	bl	10f5c <lock_acquire>
    cc90:	e51b3008 	ldr	r3, [fp, #-8]
    cc94:	e2833008 	add	r3, r3, #8
    cc98:	e1a00003 	mov	r0, r3
    cc9c:	ebfffa78 	bl	b684 <list_empty>
    cca0:	e1a03000 	mov	r3, r0
    cca4:	e3530000 	cmp	r3, #0
    cca8:	0a00002a 	beq	cd58 <malloc+0x1f4>
    ccac:	e3a00000 	mov	r0, #0
    ccb0:	eb000216 	bl	d510 <palloc_get_page>
    ccb4:	e50b0014 	str	r0, [fp, #-20]
    ccb8:	e51b3014 	ldr	r3, [fp, #-20]
    ccbc:	e3530000 	cmp	r3, #0
    ccc0:	1a000005 	bne	ccdc <malloc+0x178>
    ccc4:	e51b3008 	ldr	r3, [fp, #-8]
    ccc8:	e2833018 	add	r3, r3, #24
    cccc:	e1a00003 	mov	r0, r3
    ccd0:	eb0010fd 	bl	110cc <lock_release>
    ccd4:	e3a03000 	mov	r3, #0
    ccd8:	ea000033 	b	cdac <malloc+0x248>
    ccdc:	e51b3014 	ldr	r3, [fp, #-20]
    cce0:	e59f20d8 	ldr	r2, [pc, #216]	; cdc0 <malloc+0x25c>
    cce4:	e5832000 	str	r2, [r3]
    cce8:	e51b3014 	ldr	r3, [fp, #-20]
    ccec:	e51b2008 	ldr	r2, [fp, #-8]
    ccf0:	e5832004 	str	r2, [r3, #4]
    ccf4:	e51b3008 	ldr	r3, [fp, #-8]
    ccf8:	e5932004 	ldr	r2, [r3, #4]
    ccfc:	e51b3014 	ldr	r3, [fp, #-20]
    cd00:	e5832008 	str	r2, [r3, #8]
    cd04:	e3a03000 	mov	r3, #0
    cd08:	e50b300c 	str	r3, [fp, #-12]
    cd0c:	ea00000c 	b	cd44 <malloc+0x1e0>
    cd10:	e51b0014 	ldr	r0, [fp, #-20]
    cd14:	e51b100c 	ldr	r1, [fp, #-12]
    cd18:	eb000132 	bl	d1e8 <arena_to_block>
    cd1c:	e50b0018 	str	r0, [fp, #-24]
    cd20:	e51b3008 	ldr	r3, [fp, #-8]
    cd24:	e2832008 	add	r2, r3, #8
    cd28:	e51b3018 	ldr	r3, [fp, #-24]
    cd2c:	e1a00002 	mov	r0, r2
    cd30:	e1a01003 	mov	r1, r3
    cd34:	ebfff9c0 	bl	b43c <list_push_back>
    cd38:	e51b300c 	ldr	r3, [fp, #-12]
    cd3c:	e2833001 	add	r3, r3, #1
    cd40:	e50b300c 	str	r3, [fp, #-12]
    cd44:	e51b3008 	ldr	r3, [fp, #-8]
    cd48:	e5932004 	ldr	r2, [r3, #4]
    cd4c:	e51b300c 	ldr	r3, [fp, #-12]
    cd50:	e1520003 	cmp	r2, r3
    cd54:	8affffed 	bhi	cd10 <malloc+0x1ac>
    cd58:	e51b3008 	ldr	r3, [fp, #-8]
    cd5c:	e2833008 	add	r3, r3, #8
    cd60:	e1a00003 	mov	r0, r3
    cd64:	ebfff9e1 	bl	b4f0 <list_pop_front>
    cd68:	e1a03000 	mov	r3, r0
    cd6c:	e2833004 	add	r3, r3, #4
    cd70:	e2433004 	sub	r3, r3, #4
    cd74:	e50b301c 	str	r3, [fp, #-28]
    cd78:	e51b001c 	ldr	r0, [fp, #-28]
    cd7c:	eb0000d2 	bl	d0cc <block_to_arena>
    cd80:	e50b0014 	str	r0, [fp, #-20]
    cd84:	e51b3014 	ldr	r3, [fp, #-20]
    cd88:	e5933008 	ldr	r3, [r3, #8]
    cd8c:	e2432001 	sub	r2, r3, #1
    cd90:	e51b3014 	ldr	r3, [fp, #-20]
    cd94:	e5832008 	str	r2, [r3, #8]
    cd98:	e51b3008 	ldr	r3, [fp, #-8]
    cd9c:	e2833018 	add	r3, r3, #24
    cda0:	e1a00003 	mov	r0, r3
    cda4:	eb0010c8 	bl	110cc <lock_release>
    cda8:	e51b301c 	ldr	r3, [fp, #-28]
    cdac:	e1a00003 	mov	r0, r3
    cdb0:	e24bd004 	sub	sp, fp, #4
    cdb4:	e8bd8800 	pop	{fp, pc}
    cdb8:	000192d4 	.word	0x000192d4
    cdbc:	000194b4 	.word	0x000194b4
    cdc0:	9a548eed 	.word	0x9a548eed

0000cdc4 <calloc>:
    cdc4:	e92d4800 	push	{fp, lr}
    cdc8:	e28db004 	add	fp, sp, #4
    cdcc:	e24dd010 	sub	sp, sp, #16
    cdd0:	e50b0010 	str	r0, [fp, #-16]
    cdd4:	e50b1014 	str	r1, [fp, #-20]
    cdd8:	e51b3010 	ldr	r3, [fp, #-16]
    cddc:	e51b2014 	ldr	r2, [fp, #-20]
    cde0:	e0030392 	mul	r3, r2, r3
    cde4:	e50b3008 	str	r3, [fp, #-8]
    cde8:	e51b2008 	ldr	r2, [fp, #-8]
    cdec:	e51b3010 	ldr	r3, [fp, #-16]
    cdf0:	e1520003 	cmp	r2, r3
    cdf4:	3a000003 	bcc	ce08 <calloc+0x44>
    cdf8:	e51b2008 	ldr	r2, [fp, #-8]
    cdfc:	e51b3014 	ldr	r3, [fp, #-20]
    ce00:	e1520003 	cmp	r2, r3
    ce04:	2a000001 	bcs	ce10 <calloc+0x4c>
    ce08:	e3a03000 	mov	r3, #0
    ce0c:	ea00000b 	b	ce40 <calloc+0x7c>
    ce10:	e51b0008 	ldr	r0, [fp, #-8]
    ce14:	ebffff52 	bl	cb64 <malloc>
    ce18:	e1a03000 	mov	r3, r0
    ce1c:	e50b300c 	str	r3, [fp, #-12]
    ce20:	e51b300c 	ldr	r3, [fp, #-12]
    ce24:	e3530000 	cmp	r3, #0
    ce28:	0a000003 	beq	ce3c <calloc+0x78>
    ce2c:	e51b000c 	ldr	r0, [fp, #-12]
    ce30:	e3a01000 	mov	r1, #0
    ce34:	e51b2008 	ldr	r2, [fp, #-8]
    ce38:	eb000e71 	bl	10804 <memset>
    ce3c:	e51b300c 	ldr	r3, [fp, #-12]
    ce40:	e1a00003 	mov	r0, r3
    ce44:	e24bd004 	sub	sp, fp, #4
    ce48:	e8bd8800 	pop	{fp, pc}

0000ce4c <block_size>:
    ce4c:	e92d4810 	push	{r4, fp, lr}
    ce50:	e28db008 	add	fp, sp, #8
    ce54:	e24dd01c 	sub	sp, sp, #28
    ce58:	e50b0020 	str	r0, [fp, #-32]
    ce5c:	e51b3020 	ldr	r3, [fp, #-32]
    ce60:	e50b3010 	str	r3, [fp, #-16]
    ce64:	e51b0010 	ldr	r0, [fp, #-16]
    ce68:	eb000097 	bl	d0cc <block_to_arena>
    ce6c:	e50b0014 	str	r0, [fp, #-20]
    ce70:	e51b3014 	ldr	r3, [fp, #-20]
    ce74:	e5933004 	ldr	r3, [r3, #4]
    ce78:	e50b3018 	str	r3, [fp, #-24]
    ce7c:	e51b3018 	ldr	r3, [fp, #-24]
    ce80:	e3530000 	cmp	r3, #0
    ce84:	0a000002 	beq	ce94 <block_size+0x48>
    ce88:	e51b3018 	ldr	r3, [fp, #-24]
    ce8c:	e5933000 	ldr	r3, [r3]
    ce90:	ea000006 	b	ceb0 <block_size+0x64>
    ce94:	e51b3014 	ldr	r3, [fp, #-20]
    ce98:	e5933008 	ldr	r3, [r3, #8]
    ce9c:	e1a04603 	lsl	r4, r3, #12
    cea0:	e51b0020 	ldr	r0, [fp, #-32]
    cea4:	ebfffed6 	bl	ca04 <pg_ofs>
    cea8:	e1a03000 	mov	r3, r0
    ceac:	e0633004 	rsb	r3, r3, r4
    ceb0:	e1a00003 	mov	r0, r3
    ceb4:	e24bd008 	sub	sp, fp, #8
    ceb8:	e8bd8810 	pop	{r4, fp, pc}

0000cebc <realloc>:
    cebc:	e92d4800 	push	{fp, lr}
    cec0:	e28db004 	add	fp, sp, #4
    cec4:	e24dd018 	sub	sp, sp, #24
    cec8:	e50b0018 	str	r0, [fp, #-24]
    cecc:	e50b101c 	str	r1, [fp, #-28]
    ced0:	e51b301c 	ldr	r3, [fp, #-28]
    ced4:	e3530000 	cmp	r3, #0
    ced8:	1a000003 	bne	ceec <realloc+0x30>
    cedc:	e51b0018 	ldr	r0, [fp, #-24]
    cee0:	eb00001d 	bl	cf5c <free>
    cee4:	e3a03000 	mov	r3, #0
    cee8:	ea000018 	b	cf50 <realloc+0x94>
    ceec:	e51b001c 	ldr	r0, [fp, #-28]
    cef0:	ebffff1b 	bl	cb64 <malloc>
    cef4:	e1a03000 	mov	r3, r0
    cef8:	e50b3008 	str	r3, [fp, #-8]
    cefc:	e51b3018 	ldr	r3, [fp, #-24]
    cf00:	e3530000 	cmp	r3, #0
    cf04:	0a000010 	beq	cf4c <realloc+0x90>
    cf08:	e51b3008 	ldr	r3, [fp, #-8]
    cf0c:	e3530000 	cmp	r3, #0
    cf10:	0a00000d 	beq	cf4c <realloc+0x90>
    cf14:	e51b0018 	ldr	r0, [fp, #-24]
    cf18:	ebffffcb 	bl	ce4c <block_size>
    cf1c:	e50b000c 	str	r0, [fp, #-12]
    cf20:	e51b200c 	ldr	r2, [fp, #-12]
    cf24:	e51b301c 	ldr	r3, [fp, #-28]
    cf28:	e1520003 	cmp	r2, r3
    cf2c:	31a03002 	movcc	r3, r2
    cf30:	e50b3010 	str	r3, [fp, #-16]
    cf34:	e51b0008 	ldr	r0, [fp, #-8]
    cf38:	e51b1018 	ldr	r1, [fp, #-24]
    cf3c:	e51b2010 	ldr	r2, [fp, #-16]
    cf40:	eb000bd1 	bl	fe8c <memcpy>
    cf44:	e51b0018 	ldr	r0, [fp, #-24]
    cf48:	eb000003 	bl	cf5c <free>
    cf4c:	e51b3008 	ldr	r3, [fp, #-8]
    cf50:	e1a00003 	mov	r0, r3
    cf54:	e24bd004 	sub	sp, fp, #4
    cf58:	e8bd8800 	pop	{fp, pc}

0000cf5c <free>:
    cf5c:	e92d4800 	push	{fp, lr}
    cf60:	e28db004 	add	fp, sp, #4
    cf64:	e24dd020 	sub	sp, sp, #32
    cf68:	e50b0020 	str	r0, [fp, #-32]
    cf6c:	e51b3020 	ldr	r3, [fp, #-32]
    cf70:	e3530000 	cmp	r3, #0
    cf74:	0a00004f 	beq	d0b8 <free+0x15c>
    cf78:	e51b3020 	ldr	r3, [fp, #-32]
    cf7c:	e50b300c 	str	r3, [fp, #-12]
    cf80:	e51b000c 	ldr	r0, [fp, #-12]
    cf84:	eb000050 	bl	d0cc <block_to_arena>
    cf88:	e50b0010 	str	r0, [fp, #-16]
    cf8c:	e51b3010 	ldr	r3, [fp, #-16]
    cf90:	e5933004 	ldr	r3, [r3, #4]
    cf94:	e50b3014 	str	r3, [fp, #-20]
    cf98:	e51b3014 	ldr	r3, [fp, #-20]
    cf9c:	e3530000 	cmp	r3, #0
    cfa0:	0a00003e 	beq	d0a0 <free+0x144>
    cfa4:	e51b3014 	ldr	r3, [fp, #-20]
    cfa8:	e5933000 	ldr	r3, [r3]
    cfac:	e51b000c 	ldr	r0, [fp, #-12]
    cfb0:	e3a010cc 	mov	r1, #204	; 0xcc
    cfb4:	e1a02003 	mov	r2, r3
    cfb8:	eb000e11 	bl	10804 <memset>
    cfbc:	e51b3014 	ldr	r3, [fp, #-20]
    cfc0:	e2833018 	add	r3, r3, #24
    cfc4:	e1a00003 	mov	r0, r3
    cfc8:	eb000fe3 	bl	10f5c <lock_acquire>
    cfcc:	e51b3014 	ldr	r3, [fp, #-20]
    cfd0:	e2832008 	add	r2, r3, #8
    cfd4:	e51b300c 	ldr	r3, [fp, #-12]
    cfd8:	e1a00002 	mov	r0, r2
    cfdc:	e1a01003 	mov	r1, r3
    cfe0:	ebfff908 	bl	b408 <list_push_front>
    cfe4:	e51b3010 	ldr	r3, [fp, #-16]
    cfe8:	e5933008 	ldr	r3, [r3, #8]
    cfec:	e2832001 	add	r2, r3, #1
    cff0:	e51b3010 	ldr	r3, [fp, #-16]
    cff4:	e5832008 	str	r2, [r3, #8]
    cff8:	e51b3010 	ldr	r3, [fp, #-16]
    cffc:	e5932008 	ldr	r2, [r3, #8]
    d000:	e51b3014 	ldr	r3, [fp, #-20]
    d004:	e5933004 	ldr	r3, [r3, #4]
    d008:	e1520003 	cmp	r2, r3
    d00c:	3a00001e 	bcc	d08c <free+0x130>
    d010:	e51b3010 	ldr	r3, [fp, #-16]
    d014:	e5932008 	ldr	r2, [r3, #8]
    d018:	e51b3014 	ldr	r3, [fp, #-20]
    d01c:	e5933004 	ldr	r3, [r3, #4]
    d020:	e1520003 	cmp	r2, r3
    d024:	0a000004 	beq	d03c <free+0xe0>
    d028:	e59f0090 	ldr	r0, [pc, #144]	; d0c0 <free+0x164>
    d02c:	e3a010f8 	mov	r1, #248	; 0xf8
    d030:	e59f208c 	ldr	r2, [pc, #140]	; d0c4 <free+0x168>
    d034:	e59f308c 	ldr	r3, [pc, #140]	; d0c8 <free+0x16c>
    d038:	ebfff0d3 	bl	938c <debug_panic>
    d03c:	e3a03000 	mov	r3, #0
    d040:	e50b3008 	str	r3, [fp, #-8]
    d044:	ea000009 	b	d070 <free+0x114>
    d048:	e51b0010 	ldr	r0, [fp, #-16]
    d04c:	e51b1008 	ldr	r1, [fp, #-8]
    d050:	eb000064 	bl	d1e8 <arena_to_block>
    d054:	e50b0018 	str	r0, [fp, #-24]
    d058:	e51b3018 	ldr	r3, [fp, #-24]
    d05c:	e1a00003 	mov	r0, r3
    d060:	ebfff902 	bl	b470 <list_remove>
    d064:	e51b3008 	ldr	r3, [fp, #-8]
    d068:	e2833001 	add	r3, r3, #1
    d06c:	e50b3008 	str	r3, [fp, #-8]
    d070:	e51b3014 	ldr	r3, [fp, #-20]
    d074:	e5932004 	ldr	r2, [r3, #4]
    d078:	e51b3008 	ldr	r3, [fp, #-8]
    d07c:	e1520003 	cmp	r2, r3
    d080:	8afffff0 	bhi	d048 <free+0xec>
    d084:	e51b0010 	ldr	r0, [fp, #-16]
    d088:	eb000187 	bl	d6ac <palloc_free_page>
    d08c:	e51b3014 	ldr	r3, [fp, #-20]
    d090:	e2833018 	add	r3, r3, #24
    d094:	e1a00003 	mov	r0, r3
    d098:	eb00100b 	bl	110cc <lock_release>
    d09c:	ea000005 	b	d0b8 <free+0x15c>
    d0a0:	e51b3010 	ldr	r3, [fp, #-16]
    d0a4:	e5933008 	ldr	r3, [r3, #8]
    d0a8:	e51b0010 	ldr	r0, [fp, #-16]
    d0ac:	e1a01003 	mov	r1, r3
    d0b0:	eb000123 	bl	d544 <palloc_free_multiple>
    d0b4:	e1a00000 	nop			; (mov r0, r0)
    d0b8:	e24bd004 	sub	sp, fp, #4
    d0bc:	e8bd8800 	pop	{fp, pc}
    d0c0:	000161a8 	.word	0x000161a8
    d0c4:	000161dc 	.word	0x000161dc
    d0c8:	000161bc 	.word	0x000161bc

0000d0cc <block_to_arena>:
    d0cc:	e92d4800 	push	{fp, lr}
    d0d0:	e28db004 	add	fp, sp, #4
    d0d4:	e24dd010 	sub	sp, sp, #16
    d0d8:	e50b0010 	str	r0, [fp, #-16]
    d0dc:	e51b0010 	ldr	r0, [fp, #-16]
    d0e0:	ebfffe52 	bl	ca30 <pg_round_down>
    d0e4:	e50b0008 	str	r0, [fp, #-8]
    d0e8:	e51b3008 	ldr	r3, [fp, #-8]
    d0ec:	e3530000 	cmp	r3, #0
    d0f0:	1a000004 	bne	d108 <block_to_arena+0x3c>
    d0f4:	e59f00d4 	ldr	r0, [pc, #212]	; d1d0 <block_to_arena+0x104>
    d0f8:	e59f10d4 	ldr	r1, [pc, #212]	; d1d4 <block_to_arena+0x108>
    d0fc:	e59f20d4 	ldr	r2, [pc, #212]	; d1d8 <block_to_arena+0x10c>
    d100:	e59f30d4 	ldr	r3, [pc, #212]	; d1dc <block_to_arena+0x110>
    d104:	ebfff0a0 	bl	938c <debug_panic>
    d108:	e51b3008 	ldr	r3, [fp, #-8]
    d10c:	e5932000 	ldr	r2, [r3]
    d110:	e59f30c8 	ldr	r3, [pc, #200]	; d1e0 <block_to_arena+0x114>
    d114:	e1520003 	cmp	r2, r3
    d118:	0a000004 	beq	d130 <block_to_arena+0x64>
    d11c:	e59f00ac 	ldr	r0, [pc, #172]	; d1d0 <block_to_arena+0x104>
    d120:	e3a01f45 	mov	r1, #276	; 0x114
    d124:	e59f20ac 	ldr	r2, [pc, #172]	; d1d8 <block_to_arena+0x10c>
    d128:	e59f30ac 	ldr	r3, [pc, #172]	; d1dc <block_to_arena+0x110>
    d12c:	ebfff096 	bl	938c <debug_panic>
    d130:	e51b3008 	ldr	r3, [fp, #-8]
    d134:	e5933004 	ldr	r3, [r3, #4]
    d138:	e3530000 	cmp	r3, #0
    d13c:	0a000011 	beq	d188 <block_to_arena+0xbc>
    d140:	e51b0010 	ldr	r0, [fp, #-16]
    d144:	ebfffe2e 	bl	ca04 <pg_ofs>
    d148:	e1a03000 	mov	r3, r0
    d14c:	e243200c 	sub	r2, r3, #12
    d150:	e51b3008 	ldr	r3, [fp, #-8]
    d154:	e5933004 	ldr	r3, [r3, #4]
    d158:	e5933000 	ldr	r3, [r3]
    d15c:	e1a00002 	mov	r0, r2
    d160:	e1a01003 	mov	r1, r3
    d164:	eb001956 	bl	136c4 <__aeabi_uidivmod>
    d168:	e1a03001 	mov	r3, r1
    d16c:	e3530000 	cmp	r3, #0
    d170:	0a000004 	beq	d188 <block_to_arena+0xbc>
    d174:	e59f0054 	ldr	r0, [pc, #84]	; d1d0 <block_to_arena+0x104>
    d178:	e3a01f46 	mov	r1, #280	; 0x118
    d17c:	e59f2054 	ldr	r2, [pc, #84]	; d1d8 <block_to_arena+0x10c>
    d180:	e59f3054 	ldr	r3, [pc, #84]	; d1dc <block_to_arena+0x110>
    d184:	ebfff080 	bl	938c <debug_panic>
    d188:	e51b3008 	ldr	r3, [fp, #-8]
    d18c:	e5933004 	ldr	r3, [r3, #4]
    d190:	e3530000 	cmp	r3, #0
    d194:	1a000009 	bne	d1c0 <block_to_arena+0xf4>
    d198:	e51b0010 	ldr	r0, [fp, #-16]
    d19c:	ebfffe18 	bl	ca04 <pg_ofs>
    d1a0:	e1a03000 	mov	r3, r0
    d1a4:	e353000c 	cmp	r3, #12
    d1a8:	0a000004 	beq	d1c0 <block_to_arena+0xf4>
    d1ac:	e59f001c 	ldr	r0, [pc, #28]	; d1d0 <block_to_arena+0x104>
    d1b0:	e59f102c 	ldr	r1, [pc, #44]	; d1e4 <block_to_arena+0x118>
    d1b4:	e59f201c 	ldr	r2, [pc, #28]	; d1d8 <block_to_arena+0x10c>
    d1b8:	e59f301c 	ldr	r3, [pc, #28]	; d1dc <block_to_arena+0x110>
    d1bc:	ebfff072 	bl	938c <debug_panic>
    d1c0:	e51b3008 	ldr	r3, [fp, #-8]
    d1c4:	e1a00003 	mov	r0, r3
    d1c8:	e24bd004 	sub	sp, fp, #4
    d1cc:	e8bd8800 	pop	{fp, pc}
    d1d0:	000161a8 	.word	0x000161a8
    d1d4:	00000113 	.word	0x00000113
    d1d8:	000161e4 	.word	0x000161e4
    d1dc:	000161bc 	.word	0x000161bc
    d1e0:	9a548eed 	.word	0x9a548eed
    d1e4:	00000119 	.word	0x00000119

0000d1e8 <arena_to_block>:
    d1e8:	e92d4800 	push	{fp, lr}
    d1ec:	e28db004 	add	fp, sp, #4
    d1f0:	e24dd008 	sub	sp, sp, #8
    d1f4:	e50b0008 	str	r0, [fp, #-8]
    d1f8:	e50b100c 	str	r1, [fp, #-12]
    d1fc:	e51b3008 	ldr	r3, [fp, #-8]
    d200:	e3530000 	cmp	r3, #0
    d204:	1a000004 	bne	d21c <arena_to_block+0x34>
    d208:	e59f008c 	ldr	r0, [pc, #140]	; d29c <arena_to_block+0xb4>
    d20c:	e59f108c 	ldr	r1, [pc, #140]	; d2a0 <arena_to_block+0xb8>
    d210:	e59f208c 	ldr	r2, [pc, #140]	; d2a4 <arena_to_block+0xbc>
    d214:	e59f308c 	ldr	r3, [pc, #140]	; d2a8 <arena_to_block+0xc0>
    d218:	ebfff05b 	bl	938c <debug_panic>
    d21c:	e51b3008 	ldr	r3, [fp, #-8]
    d220:	e5932000 	ldr	r2, [r3]
    d224:	e59f3080 	ldr	r3, [pc, #128]	; d2ac <arena_to_block+0xc4>
    d228:	e1520003 	cmp	r2, r3
    d22c:	0a000004 	beq	d244 <arena_to_block+0x5c>
    d230:	e59f0064 	ldr	r0, [pc, #100]	; d29c <arena_to_block+0xb4>
    d234:	e59f1074 	ldr	r1, [pc, #116]	; d2b0 <arena_to_block+0xc8>
    d238:	e59f2064 	ldr	r2, [pc, #100]	; d2a4 <arena_to_block+0xbc>
    d23c:	e59f3064 	ldr	r3, [pc, #100]	; d2a8 <arena_to_block+0xc0>
    d240:	ebfff051 	bl	938c <debug_panic>
    d244:	e51b3008 	ldr	r3, [fp, #-8]
    d248:	e5933004 	ldr	r3, [r3, #4]
    d24c:	e5932004 	ldr	r2, [r3, #4]
    d250:	e51b300c 	ldr	r3, [fp, #-12]
    d254:	e1520003 	cmp	r2, r3
    d258:	8a000004 	bhi	d270 <arena_to_block+0x88>
    d25c:	e59f0038 	ldr	r0, [pc, #56]	; d29c <arena_to_block+0xb4>
    d260:	e3a01f49 	mov	r1, #292	; 0x124
    d264:	e59f2038 	ldr	r2, [pc, #56]	; d2a4 <arena_to_block+0xbc>
    d268:	e59f3038 	ldr	r3, [pc, #56]	; d2a8 <arena_to_block+0xc0>
    d26c:	ebfff046 	bl	938c <debug_panic>
    d270:	e51b3008 	ldr	r3, [fp, #-8]
    d274:	e5933004 	ldr	r3, [r3, #4]
    d278:	e5933000 	ldr	r3, [r3]
    d27c:	e51b200c 	ldr	r2, [fp, #-12]
    d280:	e0030392 	mul	r3, r2, r3
    d284:	e283300c 	add	r3, r3, #12
    d288:	e51b2008 	ldr	r2, [fp, #-8]
    d28c:	e0823003 	add	r3, r2, r3
    d290:	e1a00003 	mov	r0, r3
    d294:	e24bd004 	sub	sp, fp, #4
    d298:	e8bd8800 	pop	{fp, pc}
    d29c:	000161a8 	.word	0x000161a8
    d2a0:	00000122 	.word	0x00000122
    d2a4:	000161f4 	.word	0x000161f4
    d2a8:	000161bc 	.word	0x000161bc
    d2ac:	9a548eed 	.word	0x9a548eed
    d2b0:	00000123 	.word	0x00000123

0000d2b4 <pg_ofs>:
    d2b4:	e52db004 	push	{fp}		; (str fp, [sp, #-4]!)
    d2b8:	e28db000 	add	fp, sp, #0
    d2bc:	e24dd00c 	sub	sp, sp, #12
    d2c0:	e50b0008 	str	r0, [fp, #-8]
    d2c4:	e51b3008 	ldr	r3, [fp, #-8]
    d2c8:	e1a03a03 	lsl	r3, r3, #20
    d2cc:	e1a03a23 	lsr	r3, r3, #20
    d2d0:	e1a00003 	mov	r0, r3
    d2d4:	e24bd000 	sub	sp, fp, #0
    d2d8:	e49db004 	pop	{fp}		; (ldr fp, [sp], #4)
    d2dc:	e12fff1e 	bx	lr

0000d2e0 <pg_no>:
    d2e0:	e52db004 	push	{fp}		; (str fp, [sp, #-4]!)
    d2e4:	e28db000 	add	fp, sp, #0
    d2e8:	e24dd00c 	sub	sp, sp, #12
    d2ec:	e50b0008 	str	r0, [fp, #-8]
    d2f0:	e51b3008 	ldr	r3, [fp, #-8]
    d2f4:	e1a03623 	lsr	r3, r3, #12
    d2f8:	e1a00003 	mov	r0, r3
    d2fc:	e24bd000 	sub	sp, fp, #0
    d300:	e49db004 	pop	{fp}		; (ldr fp, [sp], #4)
    d304:	e12fff1e 	bx	lr

0000d308 <palloc_init>:
    d308:	e92d4800 	push	{fp, lr}
    d30c:	e28db004 	add	fp, sp, #4
    d310:	e24dd020 	sub	sp, sp, #32
    d314:	e50b0020 	str	r0, [fp, #-32]
    d318:	e59f00a8 	ldr	r0, [pc, #168]	; d3c8 <palloc_init+0xc0>
    d31c:	eb00039c 	bl	e194 <printf>
    d320:	e3a03701 	mov	r3, #262144	; 0x40000
    d324:	e50b300c 	str	r3, [fp, #-12]
    d328:	e3a03202 	mov	r3, #536870912	; 0x20000000
    d32c:	e50b3010 	str	r3, [fp, #-16]
    d330:	e51b2010 	ldr	r2, [fp, #-16]
    d334:	e51b300c 	ldr	r3, [fp, #-12]
    d338:	e0633002 	rsb	r3, r3, r2
    d33c:	e2832eff 	add	r2, r3, #4080	; 0xff0
    d340:	e282200f 	add	r2, r2, #15
    d344:	e3530000 	cmp	r3, #0
    d348:	b1a03002 	movlt	r3, r2
    d34c:	e1a03643 	asr	r3, r3, #12
    d350:	e50b3014 	str	r3, [fp, #-20]
    d354:	e51b3014 	ldr	r3, [fp, #-20]
    d358:	e1a030a3 	lsr	r3, r3, #1
    d35c:	e50b3008 	str	r3, [fp, #-8]
    d360:	e51b2008 	ldr	r2, [fp, #-8]
    d364:	e51b3020 	ldr	r3, [fp, #-32]
    d368:	e1520003 	cmp	r2, r3
    d36c:	9a000001 	bls	d378 <palloc_init+0x70>
    d370:	e51b3020 	ldr	r3, [fp, #-32]
    d374:	e50b3008 	str	r3, [fp, #-8]
    d378:	e51b2014 	ldr	r2, [fp, #-20]
    d37c:	e51b3008 	ldr	r3, [fp, #-8]
    d380:	e0633002 	rsb	r3, r3, r2
    d384:	e50b3018 	str	r3, [fp, #-24]
    d388:	e59f003c 	ldr	r0, [pc, #60]	; d3cc <palloc_init+0xc4>
    d38c:	e51b100c 	ldr	r1, [fp, #-12]
    d390:	e51b2018 	ldr	r2, [fp, #-24]
    d394:	e59f3034 	ldr	r3, [pc, #52]	; d3d0 <palloc_init+0xc8>
    d398:	eb0000cc 	bl	d6d0 <init_pool>
    d39c:	e51b3018 	ldr	r3, [fp, #-24]
    d3a0:	e1a03603 	lsl	r3, r3, #12
    d3a4:	e51b200c 	ldr	r2, [fp, #-12]
    d3a8:	e0823003 	add	r3, r2, r3
    d3ac:	e59f0020 	ldr	r0, [pc, #32]	; d3d4 <palloc_init+0xcc>
    d3b0:	e1a01003 	mov	r1, r3
    d3b4:	e51b2008 	ldr	r2, [fp, #-8]
    d3b8:	e59f3018 	ldr	r3, [pc, #24]	; d3d8 <palloc_init+0xd0>
    d3bc:	eb0000c3 	bl	d6d0 <init_pool>
    d3c0:	e24bd004 	sub	sp, fp, #4
    d3c4:	e8bd8800 	pop	{fp, pc}
    d3c8:	00016204 	.word	0x00016204
    d3cc:	000194b8 	.word	0x000194b8
    d3d0:	00016220 	.word	0x00016220
    d3d4:	000194d8 	.word	0x000194d8
    d3d8:	0001622c 	.word	0x0001622c

0000d3dc <palloc_get_multiple>:
    d3dc:	e92d4800 	push	{fp, lr}
    d3e0:	e28db004 	add	fp, sp, #4
    d3e4:	e24dd018 	sub	sp, sp, #24
    d3e8:	e1a03000 	mov	r3, r0
    d3ec:	e50b101c 	str	r1, [fp, #-28]
    d3f0:	e54b3015 	strb	r3, [fp, #-21]
    d3f4:	e55b3015 	ldrb	r3, [fp, #-21]
    d3f8:	e2033004 	and	r3, r3, #4
    d3fc:	e3530000 	cmp	r3, #0
    d400:	0a000001 	beq	d40c <palloc_get_multiple+0x30>
    d404:	e59f30f0 	ldr	r3, [pc, #240]	; d4fc <palloc_get_multiple+0x120>
    d408:	ea000000 	b	d410 <palloc_get_multiple+0x34>
    d40c:	e59f30ec 	ldr	r3, [pc, #236]	; d500 <palloc_get_multiple+0x124>
    d410:	e50b300c 	str	r3, [fp, #-12]
    d414:	e51b301c 	ldr	r3, [fp, #-28]
    d418:	e3530000 	cmp	r3, #0
    d41c:	1a000001 	bne	d428 <palloc_get_multiple+0x4c>
    d420:	e3a03000 	mov	r3, #0
    d424:	ea000031 	b	d4f0 <palloc_get_multiple+0x114>
    d428:	e51b300c 	ldr	r3, [fp, #-12]
    d42c:	e1a00003 	mov	r0, r3
    d430:	eb000ec9 	bl	10f5c <lock_acquire>
    d434:	e51b300c 	ldr	r3, [fp, #-12]
    d438:	e5933018 	ldr	r3, [r3, #24]
    d43c:	e1a00003 	mov	r0, r3
    d440:	e3a01000 	mov	r1, #0
    d444:	e51b201c 	ldr	r2, [fp, #-28]
    d448:	e3a03000 	mov	r3, #0
    d44c:	ebffeead 	bl	8f08 <bitmap_scan_and_flip>
    d450:	e50b0010 	str	r0, [fp, #-16]
    d454:	e51b300c 	ldr	r3, [fp, #-12]
    d458:	e1a00003 	mov	r0, r3
    d45c:	eb000f1a 	bl	110cc <lock_release>
    d460:	e51b3010 	ldr	r3, [fp, #-16]
    d464:	e3730001 	cmn	r3, #1
    d468:	0a000006 	beq	d488 <palloc_get_multiple+0xac>
    d46c:	e51b300c 	ldr	r3, [fp, #-12]
    d470:	e593201c 	ldr	r2, [r3, #28]
    d474:	e51b3010 	ldr	r3, [fp, #-16]
    d478:	e1a03603 	lsl	r3, r3, #12
    d47c:	e0823003 	add	r3, r2, r3
    d480:	e50b3008 	str	r3, [fp, #-8]
    d484:	ea000001 	b	d490 <palloc_get_multiple+0xb4>
    d488:	e3a03000 	mov	r3, #0
    d48c:	e50b3008 	str	r3, [fp, #-8]
    d490:	e51b3008 	ldr	r3, [fp, #-8]
    d494:	e3530000 	cmp	r3, #0
    d498:	0a00000a 	beq	d4c8 <palloc_get_multiple+0xec>
    d49c:	e55b3015 	ldrb	r3, [fp, #-21]
    d4a0:	e2033002 	and	r3, r3, #2
    d4a4:	e3530000 	cmp	r3, #0
    d4a8:	0a00000f 	beq	d4ec <palloc_get_multiple+0x110>
    d4ac:	e51b301c 	ldr	r3, [fp, #-28]
    d4b0:	e1a03603 	lsl	r3, r3, #12
    d4b4:	e51b0008 	ldr	r0, [fp, #-8]
    d4b8:	e3a01000 	mov	r1, #0
    d4bc:	e1a02003 	mov	r2, r3
    d4c0:	eb000ccf 	bl	10804 <memset>
    d4c4:	ea000008 	b	d4ec <palloc_get_multiple+0x110>
    d4c8:	e55b3015 	ldrb	r3, [fp, #-21]
    d4cc:	e2033001 	and	r3, r3, #1
    d4d0:	e3530000 	cmp	r3, #0
    d4d4:	0a000004 	beq	d4ec <palloc_get_multiple+0x110>
    d4d8:	e59f0024 	ldr	r0, [pc, #36]	; d504 <palloc_get_multiple+0x128>
    d4dc:	e3a0105a 	mov	r1, #90	; 0x5a
    d4e0:	e59f2020 	ldr	r2, [pc, #32]	; d508 <palloc_get_multiple+0x12c>
    d4e4:	e59f3020 	ldr	r3, [pc, #32]	; d50c <palloc_get_multiple+0x130>
    d4e8:	ebffefa7 	bl	938c <debug_panic>
    d4ec:	e51b3008 	ldr	r3, [fp, #-8]
    d4f0:	e1a00003 	mov	r0, r3
    d4f4:	e24bd004 	sub	sp, fp, #4
    d4f8:	e8bd8800 	pop	{fp, pc}
    d4fc:	000194d8 	.word	0x000194d8
    d500:	000194b8 	.word	0x000194b8
    d504:	00016238 	.word	0x00016238
    d508:	000162c4 	.word	0x000162c4
    d50c:	0001624c 	.word	0x0001624c

0000d510 <palloc_get_page>:
    d510:	e92d4800 	push	{fp, lr}
    d514:	e28db004 	add	fp, sp, #4
    d518:	e24dd008 	sub	sp, sp, #8
    d51c:	e1a03000 	mov	r3, r0
    d520:	e54b3005 	strb	r3, [fp, #-5]
    d524:	e55b3005 	ldrb	r3, [fp, #-5]
    d528:	e1a00003 	mov	r0, r3
    d52c:	e3a01001 	mov	r1, #1
    d530:	ebffffa9 	bl	d3dc <palloc_get_multiple>
    d534:	e1a03000 	mov	r3, r0
    d538:	e1a00003 	mov	r0, r3
    d53c:	e24bd004 	sub	sp, fp, #4
    d540:	e8bd8800 	pop	{fp, pc}

0000d544 <palloc_free_multiple>:
    d544:	e92d4810 	push	{r4, fp, lr}
    d548:	e28db008 	add	fp, sp, #8
    d54c:	e24dd014 	sub	sp, sp, #20
    d550:	e50b0018 	str	r0, [fp, #-24]
    d554:	e50b101c 	str	r1, [fp, #-28]
    d558:	e51b0018 	ldr	r0, [fp, #-24]
    d55c:	ebffff54 	bl	d2b4 <pg_ofs>
    d560:	e1a03000 	mov	r3, r0
    d564:	e3530000 	cmp	r3, #0
    d568:	0a000004 	beq	d580 <palloc_free_multiple+0x3c>
    d56c:	e59f0120 	ldr	r0, [pc, #288]	; d694 <palloc_free_multiple+0x150>
    d570:	e3a0106d 	mov	r1, #109	; 0x6d
    d574:	e59f211c 	ldr	r2, [pc, #284]	; d698 <palloc_free_multiple+0x154>
    d578:	e59f311c 	ldr	r3, [pc, #284]	; d69c <palloc_free_multiple+0x158>
    d57c:	ebffef82 	bl	938c <debug_panic>
    d580:	e51b3018 	ldr	r3, [fp, #-24]
    d584:	e3530000 	cmp	r3, #0
    d588:	0a000002 	beq	d598 <palloc_free_multiple+0x54>
    d58c:	e51b301c 	ldr	r3, [fp, #-28]
    d590:	e3530000 	cmp	r3, #0
    d594:	1a000000 	bne	d59c <palloc_free_multiple+0x58>
    d598:	ea00003b 	b	d68c <palloc_free_multiple+0x148>
    d59c:	e59f00fc 	ldr	r0, [pc, #252]	; d6a0 <palloc_free_multiple+0x15c>
    d5a0:	e51b1018 	ldr	r1, [fp, #-24]
    d5a4:	eb00007b 	bl	d798 <page_from_pool>
    d5a8:	e1a03000 	mov	r3, r0
    d5ac:	e3530000 	cmp	r3, #0
    d5b0:	0a000002 	beq	d5c0 <palloc_free_multiple+0x7c>
    d5b4:	e59f30e4 	ldr	r3, [pc, #228]	; d6a0 <palloc_free_multiple+0x15c>
    d5b8:	e50b3010 	str	r3, [fp, #-16]
    d5bc:	ea00000d 	b	d5f8 <palloc_free_multiple+0xb4>
    d5c0:	e59f00dc 	ldr	r0, [pc, #220]	; d6a4 <palloc_free_multiple+0x160>
    d5c4:	e51b1018 	ldr	r1, [fp, #-24]
    d5c8:	eb000072 	bl	d798 <page_from_pool>
    d5cc:	e1a03000 	mov	r3, r0
    d5d0:	e3530000 	cmp	r3, #0
    d5d4:	0a000002 	beq	d5e4 <palloc_free_multiple+0xa0>
    d5d8:	e59f30c4 	ldr	r3, [pc, #196]	; d6a4 <palloc_free_multiple+0x160>
    d5dc:	e50b3010 	str	r3, [fp, #-16]
    d5e0:	ea000004 	b	d5f8 <palloc_free_multiple+0xb4>
    d5e4:	e59f00a8 	ldr	r0, [pc, #168]	; d694 <palloc_free_multiple+0x150>
    d5e8:	e3a01076 	mov	r1, #118	; 0x76
    d5ec:	e59f20a4 	ldr	r2, [pc, #164]	; d698 <palloc_free_multiple+0x154>
    d5f0:	e59f30b0 	ldr	r3, [pc, #176]	; d6a8 <palloc_free_multiple+0x164>
    d5f4:	ebffef64 	bl	938c <debug_panic>
    d5f8:	e51b0018 	ldr	r0, [fp, #-24]
    d5fc:	ebffff37 	bl	d2e0 <pg_no>
    d600:	e1a04000 	mov	r4, r0
    d604:	e51b3010 	ldr	r3, [fp, #-16]
    d608:	e593301c 	ldr	r3, [r3, #28]
    d60c:	e1a00003 	mov	r0, r3
    d610:	ebffff32 	bl	d2e0 <pg_no>
    d614:	e1a03000 	mov	r3, r0
    d618:	e0633004 	rsb	r3, r3, r4
    d61c:	e50b3014 	str	r3, [fp, #-20]
    d620:	e51b301c 	ldr	r3, [fp, #-28]
    d624:	e1a03603 	lsl	r3, r3, #12
    d628:	e51b0018 	ldr	r0, [fp, #-24]
    d62c:	e3a010cc 	mov	r1, #204	; 0xcc
    d630:	e1a02003 	mov	r2, r3
    d634:	eb000c72 	bl	10804 <memset>
    d638:	e51b3010 	ldr	r3, [fp, #-16]
    d63c:	e5933018 	ldr	r3, [r3, #24]
    d640:	e1a00003 	mov	r0, r3
    d644:	e51b1014 	ldr	r1, [fp, #-20]
    d648:	e51b201c 	ldr	r2, [fp, #-28]
    d64c:	ebffedce 	bl	8d8c <bitmap_all>
    d650:	e1a03000 	mov	r3, r0
    d654:	e3530000 	cmp	r3, #0
    d658:	1a000004 	bne	d670 <palloc_free_multiple+0x12c>
    d65c:	e59f0030 	ldr	r0, [pc, #48]	; d694 <palloc_free_multiple+0x150>
    d660:	e3a0107e 	mov	r1, #126	; 0x7e
    d664:	e59f202c 	ldr	r2, [pc, #44]	; d698 <palloc_free_multiple+0x154>
    d668:	e59f302c 	ldr	r3, [pc, #44]	; d69c <palloc_free_multiple+0x158>
    d66c:	ebffef46 	bl	938c <debug_panic>
    d670:	e51b3010 	ldr	r3, [fp, #-16]
    d674:	e5933018 	ldr	r3, [r3, #24]
    d678:	e1a00003 	mov	r0, r3
    d67c:	e51b1014 	ldr	r1, [fp, #-20]
    d680:	e51b201c 	ldr	r2, [fp, #-28]
    d684:	e3a03000 	mov	r3, #0
    d688:	ebffece4 	bl	8a20 <bitmap_set_multiple>
    d68c:	e24bd008 	sub	sp, fp, #8
    d690:	e8bd8810 	pop	{r4, fp, pc}
    d694:	00016238 	.word	0x00016238
    d698:	000162d8 	.word	0x000162d8
    d69c:	00016268 	.word	0x00016268
    d6a0:	000194b8 	.word	0x000194b8
    d6a4:	000194d8 	.word	0x000194d8
    d6a8:	0001627c 	.word	0x0001627c

0000d6ac <palloc_free_page>:
    d6ac:	e92d4800 	push	{fp, lr}
    d6b0:	e28db004 	add	fp, sp, #4
    d6b4:	e24dd008 	sub	sp, sp, #8
    d6b8:	e50b0008 	str	r0, [fp, #-8]
    d6bc:	e51b0008 	ldr	r0, [fp, #-8]
    d6c0:	e3a01001 	mov	r1, #1
    d6c4:	ebffff9e 	bl	d544 <palloc_free_multiple>
    d6c8:	e24bd004 	sub	sp, fp, #4
    d6cc:	e8bd8800 	pop	{fp, pc}

0000d6d0 <init_pool>:
    d6d0:	e92d4800 	push	{fp, lr}
    d6d4:	e28db004 	add	fp, sp, #4
    d6d8:	e24dd018 	sub	sp, sp, #24
    d6dc:	e50b0010 	str	r0, [fp, #-16]
    d6e0:	e50b1014 	str	r1, [fp, #-20]
    d6e4:	e50b2018 	str	r2, [fp, #-24]
    d6e8:	e50b301c 	str	r3, [fp, #-28]
    d6ec:	e51b0018 	ldr	r0, [fp, #-24]
    d6f0:	ebffec37 	bl	87d4 <bitmap_buf_size>
    d6f4:	e1a03000 	mov	r3, r0
    d6f8:	e2833eff 	add	r3, r3, #4080	; 0xff0
    d6fc:	e283300f 	add	r3, r3, #15
    d700:	e1a03623 	lsr	r3, r3, #12
    d704:	e50b3008 	str	r3, [fp, #-8]
    d708:	e51b2008 	ldr	r2, [fp, #-8]
    d70c:	e51b3018 	ldr	r3, [fp, #-24]
    d710:	e1520003 	cmp	r2, r3
    d714:	9a000004 	bls	d72c <init_pool+0x5c>
    d718:	e59f006c 	ldr	r0, [pc, #108]	; d78c <init_pool+0xbc>
    d71c:	e3a0108e 	mov	r1, #142	; 0x8e
    d720:	e59f2068 	ldr	r2, [pc, #104]	; d790 <init_pool+0xc0>
    d724:	e59f3068 	ldr	r3, [pc, #104]	; d794 <init_pool+0xc4>
    d728:	ebffef17 	bl	938c <debug_panic>
    d72c:	e51b2018 	ldr	r2, [fp, #-24]
    d730:	e51b3008 	ldr	r3, [fp, #-8]
    d734:	e0633002 	rsb	r3, r3, r2
    d738:	e50b3018 	str	r3, [fp, #-24]
    d73c:	e51b3010 	ldr	r3, [fp, #-16]
    d740:	e1a00003 	mov	r0, r3
    d744:	eb000deb 	bl	10ef8 <lock_init>
    d748:	e51b3008 	ldr	r3, [fp, #-8]
    d74c:	e1a03603 	lsl	r3, r3, #12
    d750:	e51b0018 	ldr	r0, [fp, #-24]
    d754:	e51b1014 	ldr	r1, [fp, #-20]
    d758:	e1a02003 	mov	r2, r3
    d75c:	ebffebf8 	bl	8744 <bitmap_create_in_buf>
    d760:	e1a02000 	mov	r2, r0
    d764:	e51b3010 	ldr	r3, [fp, #-16]
    d768:	e5832018 	str	r2, [r3, #24]
    d76c:	e51b3008 	ldr	r3, [fp, #-8]
    d770:	e1a03603 	lsl	r3, r3, #12
    d774:	e51b2014 	ldr	r2, [fp, #-20]
    d778:	e0822003 	add	r2, r2, r3
    d77c:	e51b3010 	ldr	r3, [fp, #-16]
    d780:	e583201c 	str	r2, [r3, #28]
    d784:	e24bd004 	sub	sp, fp, #4
    d788:	e8bd8800 	pop	{fp, pc}
    d78c:	00016238 	.word	0x00016238
    d790:	000162f0 	.word	0x000162f0
    d794:	000162a0 	.word	0x000162a0

0000d798 <page_from_pool>:
    d798:	e92d4800 	push	{fp, lr}
    d79c:	e28db004 	add	fp, sp, #4
    d7a0:	e24dd018 	sub	sp, sp, #24
    d7a4:	e50b0018 	str	r0, [fp, #-24]
    d7a8:	e50b101c 	str	r1, [fp, #-28]
    d7ac:	e51b001c 	ldr	r0, [fp, #-28]
    d7b0:	ebfffeca 	bl	d2e0 <pg_no>
    d7b4:	e50b0008 	str	r0, [fp, #-8]
    d7b8:	e51b3018 	ldr	r3, [fp, #-24]
    d7bc:	e593301c 	ldr	r3, [r3, #28]
    d7c0:	e1a00003 	mov	r0, r3
    d7c4:	ebfffec5 	bl	d2e0 <pg_no>
    d7c8:	e50b000c 	str	r0, [fp, #-12]
    d7cc:	e51b3018 	ldr	r3, [fp, #-24]
    d7d0:	e5933018 	ldr	r3, [r3, #24]
    d7d4:	e1a00003 	mov	r0, r3
    d7d8:	ebffec17 	bl	883c <bitmap_size>
    d7dc:	e1a02000 	mov	r2, r0
    d7e0:	e51b300c 	ldr	r3, [fp, #-12]
    d7e4:	e0823003 	add	r3, r2, r3
    d7e8:	e50b3010 	str	r3, [fp, #-16]
    d7ec:	e51b2008 	ldr	r2, [fp, #-8]
    d7f0:	e51b300c 	ldr	r3, [fp, #-12]
    d7f4:	e1520003 	cmp	r2, r3
    d7f8:	3a000005 	bcc	d814 <page_from_pool+0x7c>
    d7fc:	e51b2008 	ldr	r2, [fp, #-8]
    d800:	e51b3010 	ldr	r3, [fp, #-16]
    d804:	e1520003 	cmp	r2, r3
    d808:	2a000001 	bcs	d814 <page_from_pool+0x7c>
    d80c:	e3a03001 	mov	r3, #1
    d810:	ea000000 	b	d818 <page_from_pool+0x80>
    d814:	e3a03000 	mov	r3, #0
    d818:	e2033001 	and	r3, r3, #1
    d81c:	e6ef3073 	uxtb	r3, r3
    d820:	e1a00003 	mov	r0, r3
    d824:	e24bd004 	sub	sp, fp, #4
    d828:	e8bd8800 	pop	{fp, pc}

0000d82c <swap_byte>:
    d82c:	e52db004 	push	{fp}		; (str fp, [sp, #-4]!)
    d830:	e28db000 	add	fp, sp, #0
    d834:	e24dd014 	sub	sp, sp, #20
    d838:	e50b0010 	str	r0, [fp, #-16]
    d83c:	e50b1014 	str	r1, [fp, #-20]
    d840:	e51b3010 	ldr	r3, [fp, #-16]
    d844:	e5d33000 	ldrb	r3, [r3]
    d848:	e54b3005 	strb	r3, [fp, #-5]
    d84c:	e51b3014 	ldr	r3, [fp, #-20]
    d850:	e5d32000 	ldrb	r2, [r3]
    d854:	e51b3010 	ldr	r3, [fp, #-16]
    d858:	e5c32000 	strb	r2, [r3]
    d85c:	e51b3014 	ldr	r3, [fp, #-20]
    d860:	e55b2005 	ldrb	r2, [fp, #-5]
    d864:	e5c32000 	strb	r2, [r3]
    d868:	e24bd000 	sub	sp, fp, #0
    d86c:	e49db004 	pop	{fp}		; (ldr fp, [sp], #4)
    d870:	e12fff1e 	bx	lr

0000d874 <random_init>:
    d874:	e92d4800 	push	{fp, lr}
    d878:	e28db004 	add	fp, sp, #4
    d87c:	e24dd018 	sub	sp, sp, #24
    d880:	e50b0018 	str	r0, [fp, #-24]
    d884:	e24b3018 	sub	r3, fp, #24
    d888:	e50b3010 	str	r3, [fp, #-16]
    d88c:	e3a03000 	mov	r3, #0
    d890:	e50b3008 	str	r3, [fp, #-8]
    d894:	ea000008 	b	d8bc <random_init+0x48>
    d898:	e51b3008 	ldr	r3, [fp, #-8]
    d89c:	e6ef2073 	uxtb	r2, r3
    d8a0:	e59f10d8 	ldr	r1, [pc, #216]	; d980 <random_init+0x10c>
    d8a4:	e51b3008 	ldr	r3, [fp, #-8]
    d8a8:	e0813003 	add	r3, r1, r3
    d8ac:	e5c32000 	strb	r2, [r3]
    d8b0:	e51b3008 	ldr	r3, [fp, #-8]
    d8b4:	e2833001 	add	r3, r3, #1
    d8b8:	e50b3008 	str	r3, [fp, #-8]
    d8bc:	e51b3008 	ldr	r3, [fp, #-8]
    d8c0:	e35300ff 	cmp	r3, #255	; 0xff
    d8c4:	dafffff3 	ble	d898 <random_init+0x24>
    d8c8:	e3a03000 	mov	r3, #0
    d8cc:	e54b3009 	strb	r3, [fp, #-9]
    d8d0:	e3a03000 	mov	r3, #0
    d8d4:	e50b3008 	str	r3, [fp, #-8]
    d8d8:	ea000019 	b	d944 <random_init+0xd0>
    d8dc:	e59f209c 	ldr	r2, [pc, #156]	; d980 <random_init+0x10c>
    d8e0:	e51b3008 	ldr	r3, [fp, #-8]
    d8e4:	e0823003 	add	r3, r2, r3
    d8e8:	e5d32000 	ldrb	r2, [r3]
    d8ec:	e51b3008 	ldr	r3, [fp, #-8]
    d8f0:	e2033003 	and	r3, r3, #3
    d8f4:	e51b1010 	ldr	r1, [fp, #-16]
    d8f8:	e0813003 	add	r3, r1, r3
    d8fc:	e5d33000 	ldrb	r3, [r3]
    d900:	e0823003 	add	r3, r2, r3
    d904:	e6ef2073 	uxtb	r2, r3
    d908:	e55b3009 	ldrb	r3, [fp, #-9]
    d90c:	e0823003 	add	r3, r2, r3
    d910:	e54b3009 	strb	r3, [fp, #-9]
    d914:	e51b2008 	ldr	r2, [fp, #-8]
    d918:	e59f3060 	ldr	r3, [pc, #96]	; d980 <random_init+0x10c>
    d91c:	e0822003 	add	r2, r2, r3
    d920:	e55b1009 	ldrb	r1, [fp, #-9]
    d924:	e59f3054 	ldr	r3, [pc, #84]	; d980 <random_init+0x10c>
    d928:	e0813003 	add	r3, r1, r3
    d92c:	e1a00002 	mov	r0, r2
    d930:	e1a01003 	mov	r1, r3
    d934:	ebffffbc 	bl	d82c <swap_byte>
    d938:	e51b3008 	ldr	r3, [fp, #-8]
    d93c:	e2833001 	add	r3, r3, #1
    d940:	e50b3008 	str	r3, [fp, #-8]
    d944:	e51b3008 	ldr	r3, [fp, #-8]
    d948:	e35300ff 	cmp	r3, #255	; 0xff
    d94c:	daffffe2 	ble	d8dc <random_init+0x68>
    d950:	e59f302c 	ldr	r3, [pc, #44]	; d984 <random_init+0x110>
    d954:	e3a02000 	mov	r2, #0
    d958:	e5c32000 	strb	r2, [r3]
    d95c:	e59f3020 	ldr	r3, [pc, #32]	; d984 <random_init+0x110>
    d960:	e5d32000 	ldrb	r2, [r3]
    d964:	e59f301c 	ldr	r3, [pc, #28]	; d988 <random_init+0x114>
    d968:	e5c32000 	strb	r2, [r3]
    d96c:	e59f3018 	ldr	r3, [pc, #24]	; d98c <random_init+0x118>
    d970:	e3a02001 	mov	r2, #1
    d974:	e5c32000 	strb	r2, [r3]
    d978:	e24bd004 	sub	sp, fp, #4
    d97c:	e8bd8800 	pop	{fp, pc}
    d980:	000194f8 	.word	0x000194f8
    d984:	000195f9 	.word	0x000195f9
    d988:	000195f8 	.word	0x000195f8
    d98c:	000195fa 	.word	0x000195fa

0000d990 <random_bytes>:
    d990:	e92d4800 	push	{fp, lr}
    d994:	e28db004 	add	fp, sp, #4
    d998:	e24dd010 	sub	sp, sp, #16
    d99c:	e50b0010 	str	r0, [fp, #-16]
    d9a0:	e50b1014 	str	r1, [fp, #-20]
    d9a4:	e59f30fc 	ldr	r3, [pc, #252]	; daa8 <random_bytes+0x118>
    d9a8:	e5d33000 	ldrb	r3, [r3]
    d9ac:	e2233001 	eor	r3, r3, #1
    d9b0:	e6ef3073 	uxtb	r3, r3
    d9b4:	e3530000 	cmp	r3, #0
    d9b8:	0a000001 	beq	d9c4 <random_bytes+0x34>
    d9bc:	e3a00000 	mov	r0, #0
    d9c0:	ebffffab 	bl	d874 <random_init>
    d9c4:	e51b3010 	ldr	r3, [fp, #-16]
    d9c8:	e50b3008 	str	r3, [fp, #-8]
    d9cc:	ea00002e 	b	da8c <random_bytes+0xfc>
    d9d0:	e59f30d4 	ldr	r3, [pc, #212]	; daac <random_bytes+0x11c>
    d9d4:	e5d33000 	ldrb	r3, [r3]
    d9d8:	e2833001 	add	r3, r3, #1
    d9dc:	e6ef2073 	uxtb	r2, r3
    d9e0:	e59f30c4 	ldr	r3, [pc, #196]	; daac <random_bytes+0x11c>
    d9e4:	e5c32000 	strb	r2, [r3]
    d9e8:	e59f30bc 	ldr	r3, [pc, #188]	; daac <random_bytes+0x11c>
    d9ec:	e5d33000 	ldrb	r3, [r3]
    d9f0:	e59f20b8 	ldr	r2, [pc, #184]	; dab0 <random_bytes+0x120>
    d9f4:	e7d22003 	ldrb	r2, [r2, r3]
    d9f8:	e59f30b4 	ldr	r3, [pc, #180]	; dab4 <random_bytes+0x124>
    d9fc:	e5d33000 	ldrb	r3, [r3]
    da00:	e0823003 	add	r3, r2, r3
    da04:	e6ef2073 	uxtb	r2, r3
    da08:	e59f30a4 	ldr	r3, [pc, #164]	; dab4 <random_bytes+0x124>
    da0c:	e5c32000 	strb	r2, [r3]
    da10:	e59f3094 	ldr	r3, [pc, #148]	; daac <random_bytes+0x11c>
    da14:	e5d33000 	ldrb	r3, [r3]
    da18:	e1a02003 	mov	r2, r3
    da1c:	e59f308c 	ldr	r3, [pc, #140]	; dab0 <random_bytes+0x120>
    da20:	e0822003 	add	r2, r2, r3
    da24:	e59f3088 	ldr	r3, [pc, #136]	; dab4 <random_bytes+0x124>
    da28:	e5d33000 	ldrb	r3, [r3]
    da2c:	e1a01003 	mov	r1, r3
    da30:	e59f3078 	ldr	r3, [pc, #120]	; dab0 <random_bytes+0x120>
    da34:	e0813003 	add	r3, r1, r3
    da38:	e1a00002 	mov	r0, r2
    da3c:	e1a01003 	mov	r1, r3
    da40:	ebffff79 	bl	d82c <swap_byte>
    da44:	e59f3060 	ldr	r3, [pc, #96]	; daac <random_bytes+0x11c>
    da48:	e5d33000 	ldrb	r3, [r3]
    da4c:	e59f205c 	ldr	r2, [pc, #92]	; dab0 <random_bytes+0x120>
    da50:	e7d22003 	ldrb	r2, [r2, r3]
    da54:	e59f3058 	ldr	r3, [pc, #88]	; dab4 <random_bytes+0x124>
    da58:	e5d33000 	ldrb	r3, [r3]
    da5c:	e59f104c 	ldr	r1, [pc, #76]	; dab0 <random_bytes+0x120>
    da60:	e7d13003 	ldrb	r3, [r1, r3]
    da64:	e0823003 	add	r3, r2, r3
    da68:	e54b3009 	strb	r3, [fp, #-9]
    da6c:	e55b3009 	ldrb	r3, [fp, #-9]
    da70:	e59f2038 	ldr	r2, [pc, #56]	; dab0 <random_bytes+0x120>
    da74:	e7d22003 	ldrb	r2, [r2, r3]
    da78:	e51b3008 	ldr	r3, [fp, #-8]
    da7c:	e5c32000 	strb	r2, [r3]
    da80:	e51b3008 	ldr	r3, [fp, #-8]
    da84:	e2833001 	add	r3, r3, #1
    da88:	e50b3008 	str	r3, [fp, #-8]
    da8c:	e51b3014 	ldr	r3, [fp, #-20]
    da90:	e2432001 	sub	r2, r3, #1
    da94:	e50b2014 	str	r2, [fp, #-20]
    da98:	e3530000 	cmp	r3, #0
    da9c:	1affffcb 	bne	d9d0 <random_bytes+0x40>
    daa0:	e24bd004 	sub	sp, fp, #4
    daa4:	e8bd8800 	pop	{fp, pc}
    daa8:	000195fa 	.word	0x000195fa
    daac:	000195f8 	.word	0x000195f8
    dab0:	000194f8 	.word	0x000194f8
    dab4:	000195f9 	.word	0x000195f9

0000dab8 <random_ulong>:
    dab8:	e92d4800 	push	{fp, lr}
    dabc:	e28db004 	add	fp, sp, #4
    dac0:	e24dd008 	sub	sp, sp, #8
    dac4:	e24b3008 	sub	r3, fp, #8
    dac8:	e1a00003 	mov	r0, r3
    dacc:	e3a01004 	mov	r1, #4
    dad0:	ebffffae 	bl	d990 <random_bytes>
    dad4:	e51b3008 	ldr	r3, [fp, #-8]
    dad8:	e1a00003 	mov	r0, r3
    dadc:	e24bd004 	sub	sp, fp, #4
    dae0:	e8bd8800 	pop	{fp, pc}

0000dae4 <serial_init>:
    dae4:	e92d4800 	push	{fp, lr}
    dae8:	e28db004 	add	fp, sp, #4
    daec:	eb0000d5 	bl	de48 <test_serial>
    daf0:	e8bd8800 	pop	{fp, pc}

0000daf4 <serial_putc>:
    daf4:	e92d4800 	push	{fp, lr}
    daf8:	e28db004 	add	fp, sp, #4
    dafc:	e24dd008 	sub	sp, sp, #8
    db00:	e1a03000 	mov	r3, r0
    db04:	e54b3005 	strb	r3, [fp, #-5]
    db08:	e55b3005 	ldrb	r3, [fp, #-5]
    db0c:	e1a00003 	mov	r0, r3
    db10:	eb000074 	bl	dce8 <uart_putc>
    db14:	e24bd004 	sub	sp, fp, #4
    db18:	e8bd8800 	pop	{fp, pc}

0000db1c <serial_flush>:
    db1c:	e52db004 	push	{fp}		; (str fp, [sp, #-4]!)
    db20:	e28db000 	add	fp, sp, #0
    db24:	e24bd000 	sub	sp, fp, #0
    db28:	e49db004 	pop	{fp}		; (ldr fp, [sp], #4)
    db2c:	e12fff1e 	bx	lr

0000db30 <serial_notify>:
    db30:	e52db004 	push	{fp}		; (str fp, [sp, #-4]!)
    db34:	e28db000 	add	fp, sp, #0
    db38:	e24bd000 	sub	sp, fp, #0
    db3c:	e49db004 	pop	{fp}		; (ldr fp, [sp], #4)
    db40:	e12fff1e 	bx	lr

0000db44 <uart_init>:
    db44:	e92d4800 	push	{fp, lr}
    db48:	e28db004 	add	fp, sp, #4
    db4c:	e24dd008 	sub	sp, sp, #8
    db50:	e59f0134 	ldr	r0, [pc, #308]	; dc8c <uart_init+0x148>
    db54:	e3a01001 	mov	r1, #1
    db58:	ebffe94b 	bl	808c <PUT32>
    db5c:	e59f012c 	ldr	r0, [pc, #300]	; dc90 <uart_init+0x14c>
    db60:	e3a01000 	mov	r1, #0
    db64:	ebffe948 	bl	808c <PUT32>
    db68:	e59f0124 	ldr	r0, [pc, #292]	; dc94 <uart_init+0x150>
    db6c:	e3a01000 	mov	r1, #0
    db70:	ebffe945 	bl	808c <PUT32>
    db74:	e59f011c 	ldr	r0, [pc, #284]	; dc98 <uart_init+0x154>
    db78:	e3a01003 	mov	r1, #3
    db7c:	ebffe942 	bl	808c <PUT32>
    db80:	e59f0114 	ldr	r0, [pc, #276]	; dc9c <uart_init+0x158>
    db84:	e3a01000 	mov	r1, #0
    db88:	ebffe93f 	bl	808c <PUT32>
    db8c:	e59f00fc 	ldr	r0, [pc, #252]	; dc90 <uart_init+0x14c>
    db90:	e3a01005 	mov	r1, #5
    db94:	ebffe93c 	bl	808c <PUT32>
    db98:	e59f0100 	ldr	r0, [pc, #256]	; dca0 <uart_init+0x15c>
    db9c:	e3a010c6 	mov	r1, #198	; 0xc6
    dba0:	ebffe939 	bl	808c <PUT32>
    dba4:	e59f00f8 	ldr	r0, [pc, #248]	; dca4 <uart_init+0x160>
    dba8:	e59f10f8 	ldr	r1, [pc, #248]	; dca8 <uart_init+0x164>
    dbac:	ebffe936 	bl	808c <PUT32>
    dbb0:	e59f00f4 	ldr	r0, [pc, #244]	; dcac <uart_init+0x168>
    dbb4:	ebffe936 	bl	8094 <GET32>
    dbb8:	e1a03000 	mov	r3, r0
    dbbc:	e50b3008 	str	r3, [fp, #-8]
    dbc0:	e51b3008 	ldr	r3, [fp, #-8]
    dbc4:	e3c33a07 	bic	r3, r3, #28672	; 0x7000
    dbc8:	e50b3008 	str	r3, [fp, #-8]
    dbcc:	e51b3008 	ldr	r3, [fp, #-8]
    dbd0:	e3833a02 	orr	r3, r3, #8192	; 0x2000
    dbd4:	e50b3008 	str	r3, [fp, #-8]
    dbd8:	e51b3008 	ldr	r3, [fp, #-8]
    dbdc:	e3c3390e 	bic	r3, r3, #229376	; 0x38000
    dbe0:	e50b3008 	str	r3, [fp, #-8]
    dbe4:	e51b3008 	ldr	r3, [fp, #-8]
    dbe8:	e3833801 	orr	r3, r3, #65536	; 0x10000
    dbec:	e50b3008 	str	r3, [fp, #-8]
    dbf0:	e59f00b4 	ldr	r0, [pc, #180]	; dcac <uart_init+0x168>
    dbf4:	e51b1008 	ldr	r1, [fp, #-8]
    dbf8:	ebffe923 	bl	808c <PUT32>
    dbfc:	e59f00ac 	ldr	r0, [pc, #172]	; dcb0 <uart_init+0x16c>
    dc00:	e3a01000 	mov	r1, #0
    dc04:	ebffe920 	bl	808c <PUT32>
    dc08:	e3a03000 	mov	r3, #0
    dc0c:	e50b3008 	str	r3, [fp, #-8]
    dc10:	ea000004 	b	dc28 <uart_init+0xe4>
    dc14:	e51b0008 	ldr	r0, [fp, #-8]
    dc18:	ebffe91f 	bl	809c <dummy>
    dc1c:	e51b3008 	ldr	r3, [fp, #-8]
    dc20:	e2833001 	add	r3, r3, #1
    dc24:	e50b3008 	str	r3, [fp, #-8]
    dc28:	e51b3008 	ldr	r3, [fp, #-8]
    dc2c:	e3530095 	cmp	r3, #149	; 0x95
    dc30:	9afffff7 	bls	dc14 <uart_init+0xd0>
    dc34:	e59f0078 	ldr	r0, [pc, #120]	; dcb4 <uart_init+0x170>
    dc38:	e3a01903 	mov	r1, #49152	; 0xc000
    dc3c:	ebffe912 	bl	808c <PUT32>
    dc40:	e3a03000 	mov	r3, #0
    dc44:	e50b3008 	str	r3, [fp, #-8]
    dc48:	ea000004 	b	dc60 <uart_init+0x11c>
    dc4c:	e51b0008 	ldr	r0, [fp, #-8]
    dc50:	ebffe911 	bl	809c <dummy>
    dc54:	e51b3008 	ldr	r3, [fp, #-8]
    dc58:	e2833001 	add	r3, r3, #1
    dc5c:	e50b3008 	str	r3, [fp, #-8]
    dc60:	e51b3008 	ldr	r3, [fp, #-8]
    dc64:	e3530095 	cmp	r3, #149	; 0x95
    dc68:	9afffff7 	bls	dc4c <uart_init+0x108>
    dc6c:	e59f0040 	ldr	r0, [pc, #64]	; dcb4 <uart_init+0x170>
    dc70:	e3a01000 	mov	r1, #0
    dc74:	ebffe904 	bl	808c <PUT32>
    dc78:	e59f0014 	ldr	r0, [pc, #20]	; dc94 <uart_init+0x150>
    dc7c:	e3a01003 	mov	r1, #3
    dc80:	ebffe901 	bl	808c <PUT32>
    dc84:	e24bd004 	sub	sp, fp, #4
    dc88:	e8bd8800 	pop	{fp, pc}
    dc8c:	20215004 	.word	0x20215004
    dc90:	20215044 	.word	0x20215044
    dc94:	20215060 	.word	0x20215060
    dc98:	2021504c 	.word	0x2021504c
    dc9c:	20215050 	.word	0x20215050
    dca0:	20215048 	.word	0x20215048
    dca4:	20215068 	.word	0x20215068
    dca8:	0000010e 	.word	0x0000010e
    dcac:	20200004 	.word	0x20200004
    dcb0:	20200094 	.word	0x20200094
    dcb4:	20200098 	.word	0x20200098

0000dcb8 <uart_putc_helper>:
    dcb8:	e92d4800 	push	{fp, lr}
    dcbc:	e28db004 	add	fp, sp, #4
    dcc0:	e24dd008 	sub	sp, sp, #8
    dcc4:	e1a03000 	mov	r3, r0
    dcc8:	e54b3005 	strb	r3, [fp, #-5]
    dccc:	e55b3005 	ldrb	r3, [fp, #-5]
    dcd0:	e59f000c 	ldr	r0, [pc, #12]	; dce4 <uart_putc_helper+0x2c>
    dcd4:	e1a01003 	mov	r1, r3
    dcd8:	ebffe8eb 	bl	808c <PUT32>
    dcdc:	e24bd004 	sub	sp, fp, #4
    dce0:	e8bd8800 	pop	{fp, pc}
    dce4:	20215040 	.word	0x20215040

0000dce8 <uart_putc>:
    dce8:	e92d4800 	push	{fp, lr}
    dcec:	e28db004 	add	fp, sp, #4
    dcf0:	e24dd008 	sub	sp, sp, #8
    dcf4:	e1a03000 	mov	r3, r0
    dcf8:	e54b3005 	strb	r3, [fp, #-5]
    dcfc:	e55b3005 	ldrb	r3, [fp, #-5]
    dd00:	e353000a 	cmp	r3, #10
    dd04:	1a000004 	bne	dd1c <uart_putc+0x34>
    dd08:	e3a0000a 	mov	r0, #10
    dd0c:	ebffffe9 	bl	dcb8 <uart_putc_helper>
    dd10:	e3a0000d 	mov	r0, #13
    dd14:	ebffffe7 	bl	dcb8 <uart_putc_helper>
    dd18:	ea000002 	b	dd28 <uart_putc+0x40>
    dd1c:	e55b3005 	ldrb	r3, [fp, #-5]
    dd20:	e1a00003 	mov	r0, r3
    dd24:	ebffffe3 	bl	dcb8 <uart_putc_helper>
    dd28:	e24bd004 	sub	sp, fp, #4
    dd2c:	e8bd8800 	pop	{fp, pc}

0000dd30 <uart_getc>:
    dd30:	e92d4800 	push	{fp, lr}
    dd34:	e28db004 	add	fp, sp, #4
    dd38:	e24dd008 	sub	sp, sp, #8
    dd3c:	e59f306c 	ldr	r3, [pc, #108]	; ddb0 <uart_getc+0x80>
    dd40:	e5932000 	ldr	r2, [r3]
    dd44:	e59f3068 	ldr	r3, [pc, #104]	; ddb4 <uart_getc+0x84>
    dd48:	e5933000 	ldr	r3, [r3]
    dd4c:	e1520003 	cmp	r2, r3
    dd50:	1a000006 	bne	dd70 <uart_getc+0x40>
    dd54:	ebfff95e 	bl	c2d4 <interrupts_disable>
    dd58:	e1a03000 	mov	r3, r0
    dd5c:	e54b3005 	strb	r3, [fp, #-5]
    dd60:	eb001024 	bl	11df8 <thread_block>
    dd64:	e55b3005 	ldrb	r3, [fp, #-5]
    dd68:	e1a00003 	mov	r0, r3
    dd6c:	ebfff93d 	bl	c268 <interrupts_set_level>
    dd70:	e59f3038 	ldr	r3, [pc, #56]	; ddb0 <uart_getc+0x80>
    dd74:	e5933000 	ldr	r3, [r3]
    dd78:	e59f2038 	ldr	r2, [pc, #56]	; ddb8 <uart_getc+0x88>
    dd7c:	e7d23003 	ldrb	r3, [r2, r3]
    dd80:	e54b3006 	strb	r3, [fp, #-6]
    dd84:	e59f3024 	ldr	r3, [pc, #36]	; ddb0 <uart_getc+0x80>
    dd88:	e5933000 	ldr	r3, [r3]
    dd8c:	e2833001 	add	r3, r3, #1
    dd90:	e1a03a03 	lsl	r3, r3, #20
    dd94:	e1a03a23 	lsr	r3, r3, #20
    dd98:	e59f2010 	ldr	r2, [pc, #16]	; ddb0 <uart_getc+0x80>
    dd9c:	e5823000 	str	r3, [r2]
    dda0:	e55b3006 	ldrb	r3, [fp, #-6]
    dda4:	e1a00003 	mov	r0, r3
    dda8:	e24bd004 	sub	sp, fp, #4
    ddac:	e8bd8800 	pop	{fp, pc}
    ddb0:	00019600 	.word	0x00019600
    ddb4:	000195fc 	.word	0x000195fc
    ddb8:	00019604 	.word	0x00019604

0000ddbc <uart_write>:
    ddbc:	e92d4800 	push	{fp, lr}
    ddc0:	e28db004 	add	fp, sp, #4
    ddc4:	e24dd010 	sub	sp, sp, #16
    ddc8:	e50b0010 	str	r0, [fp, #-16]
    ddcc:	e50b1014 	str	r1, [fp, #-20]
    ddd0:	e3a03000 	mov	r3, #0
    ddd4:	e50b3008 	str	r3, [fp, #-8]
    ddd8:	ea000008 	b	de00 <uart_write+0x44>
    dddc:	e51b2010 	ldr	r2, [fp, #-16]
    dde0:	e51b3008 	ldr	r3, [fp, #-8]
    dde4:	e0823003 	add	r3, r2, r3
    dde8:	e5d33000 	ldrb	r3, [r3]
    ddec:	e1a00003 	mov	r0, r3
    ddf0:	ebffffbc 	bl	dce8 <uart_putc>
    ddf4:	e51b3008 	ldr	r3, [fp, #-8]
    ddf8:	e2833001 	add	r3, r3, #1
    ddfc:	e50b3008 	str	r3, [fp, #-8]
    de00:	e51b2008 	ldr	r2, [fp, #-8]
    de04:	e51b3014 	ldr	r3, [fp, #-20]
    de08:	e1520003 	cmp	r2, r3
    de0c:	3afffff2 	bcc	dddc <uart_write+0x20>
    de10:	e24bd004 	sub	sp, fp, #4
    de14:	e8bd8800 	pop	{fp, pc}

0000de18 <uart_puts>:
    de18:	e92d4800 	push	{fp, lr}
    de1c:	e28db004 	add	fp, sp, #4
    de20:	e24dd008 	sub	sp, sp, #8
    de24:	e50b0008 	str	r0, [fp, #-8]
    de28:	e51b0008 	ldr	r0, [fp, #-8]
    de2c:	eb000a9b 	bl	108a0 <strlen>
    de30:	e1a03000 	mov	r3, r0
    de34:	e51b0008 	ldr	r0, [fp, #-8]
    de38:	e1a01003 	mov	r1, r3
    de3c:	ebffffde 	bl	ddbc <uart_write>
    de40:	e24bd004 	sub	sp, fp, #4
    de44:	e8bd8800 	pop	{fp, pc}

0000de48 <test_serial>:
    de48:	e92d4800 	push	{fp, lr}
    de4c:	e28db004 	add	fp, sp, #4
    de50:	ebffff3b 	bl	db44 <uart_init>
    de54:	e8bd8800 	pop	{fp, pc}

0000de58 <keyboard_irq_handler>:
    de58:	e92d4800 	push	{fp, lr}
    de5c:	e28db004 	add	fp, sp, #4
    de60:	e24dd020 	sub	sp, sp, #32
    de64:	e50b0020 	str	r0, [fp, #-32]
    de68:	e59f0110 	ldr	r0, [pc, #272]	; df80 <keyboard_irq_handler+0x128>
    de6c:	ebffe888 	bl	8094 <GET32>
    de70:	e1a03000 	mov	r3, r0
    de74:	e50b300c 	str	r3, [fp, #-12]
    de78:	e51b300c 	ldr	r3, [fp, #-12]
    de7c:	e2033001 	and	r3, r3, #1
    de80:	e3530000 	cmp	r3, #0
    de84:	0a000006 	beq	dea4 <keyboard_irq_handler+0x4c>
    de88:	e1a00000 	nop			; (mov r0, r0)
    de8c:	eb001371 	bl	12c58 <get_all_list>
    de90:	e50b0010 	str	r0, [fp, #-16]
    de94:	e51b0010 	ldr	r0, [fp, #-16]
    de98:	ebfff431 	bl	af64 <list_begin>
    de9c:	e50b0008 	str	r0, [fp, #-8]
    dea0:	ea00002b 	b	df54 <keyboard_irq_handler+0xfc>
    dea4:	e51b300c 	ldr	r3, [fp, #-12]
    dea8:	e2033006 	and	r3, r3, #6
    deac:	e3530004 	cmp	r3, #4
    deb0:	1a000011 	bne	defc <keyboard_irq_handler+0xa4>
    deb4:	e59f00c8 	ldr	r0, [pc, #200]	; df84 <keyboard_irq_handler+0x12c>
    deb8:	ebffe875 	bl	8094 <GET32>
    debc:	e1a03000 	mov	r3, r0
    dec0:	e50b3018 	str	r3, [fp, #-24]
    dec4:	e59f30bc 	ldr	r3, [pc, #188]	; df88 <keyboard_irq_handler+0x130>
    dec8:	e5933000 	ldr	r3, [r3]
    decc:	e51b2018 	ldr	r2, [fp, #-24]
    ded0:	e6ef1072 	uxtb	r1, r2
    ded4:	e59f20b0 	ldr	r2, [pc, #176]	; df8c <keyboard_irq_handler+0x134>
    ded8:	e7c21003 	strb	r1, [r2, r3]
    dedc:	e59f30a4 	ldr	r3, [pc, #164]	; df88 <keyboard_irq_handler+0x130>
    dee0:	e5933000 	ldr	r3, [r3]
    dee4:	e2833001 	add	r3, r3, #1
    dee8:	e1a03a03 	lsl	r3, r3, #20
    deec:	e1a03a23 	lsr	r3, r3, #20
    def0:	e59f2090 	ldr	r2, [pc, #144]	; df88 <keyboard_irq_handler+0x130>
    def4:	e5823000 	str	r3, [r2]
    def8:	eaffffda 	b	de68 <keyboard_irq_handler+0x10>
    defc:	eaffffd9 	b	de68 <keyboard_irq_handler+0x10>
    df00:	e51b3008 	ldr	r3, [fp, #-8]
    df04:	e2833004 	add	r3, r3, #4
    df08:	e2433070 	sub	r3, r3, #112	; 0x70
    df0c:	e50b3014 	str	r3, [fp, #-20]
    df10:	e51b3014 	ldr	r3, [fp, #-20]
    df14:	e2833005 	add	r3, r3, #5
    df18:	e1a00003 	mov	r0, r3
    df1c:	e59f106c 	ldr	r1, [pc, #108]	; df90 <keyboard_irq_handler+0x138>
    df20:	eb0008a3 	bl	101b4 <strcmp>
    df24:	e1a03000 	mov	r3, r0
    df28:	e3530000 	cmp	r3, #0
    df2c:	1a000005 	bne	df48 <keyboard_irq_handler+0xf0>
    df30:	e51b3014 	ldr	r3, [fp, #-20]
    df34:	e5d33004 	ldrb	r3, [r3, #4]
    df38:	e3530002 	cmp	r3, #2
    df3c:	1a000001 	bne	df48 <keyboard_irq_handler+0xf0>
    df40:	e51b0014 	ldr	r0, [fp, #-20]
    df44:	eb000fcb 	bl	11e78 <thread_unblock>
    df48:	e51b0008 	ldr	r0, [fp, #-8]
    df4c:	ebfff418 	bl	afb4 <list_next>
    df50:	e50b0008 	str	r0, [fp, #-8]
    df54:	e51b0010 	ldr	r0, [fp, #-16]
    df58:	ebfff430 	bl	b020 <list_end>
    df5c:	e1a02000 	mov	r2, r0
    df60:	e51b3008 	ldr	r3, [fp, #-8]
    df64:	e1520003 	cmp	r2, r3
    df68:	1affffe4 	bne	df00 <keyboard_irq_handler+0xa8>
    df6c:	e51b0020 	ldr	r0, [fp, #-32]
    df70:	eb0012ad 	bl	12a2c <set_current_interrupts_stack_frame>
    df74:	ebfff91a 	bl	c3e4 <interrupts_yield_on_return>
    df78:	e24bd004 	sub	sp, fp, #4
    df7c:	e8bd8800 	pop	{fp, pc}
    df80:	20215048 	.word	0x20215048
    df84:	20215040 	.word	0x20215040
    df88:	000195fc 	.word	0x000195fc
    df8c:	00019604 	.word	0x00019604
    df90:	000162fc 	.word	0x000162fc

0000df94 <keyboard_init>:
    df94:	e92d4800 	push	{fp, lr}
    df98:	e28db004 	add	fp, sp, #4
    df9c:	e59f0014 	ldr	r0, [pc, #20]	; dfb8 <keyboard_init+0x24>
    dfa0:	eb00007b 	bl	e194 <printf>
    dfa4:	e3a0001d 	mov	r0, #29
    dfa8:	e59f100c 	ldr	r1, [pc, #12]	; dfbc <keyboard_init+0x28>
    dfac:	e59f200c 	ldr	r2, [pc, #12]	; dfc0 <keyboard_init+0x2c>
    dfb0:	ebfff850 	bl	c0f8 <interrupts_register_irq>
    dfb4:	e8bd8800 	pop	{fp, pc}
    dfb8:	00016304 	.word	0x00016304
    dfbc:	0000de58 	.word	0x0000de58
    dfc0:	00016320 	.word	0x00016320

0000dfc4 <isdigit>:
    dfc4:	e52db004 	push	{fp}		; (str fp, [sp, #-4]!)
    dfc8:	e28db000 	add	fp, sp, #0
    dfcc:	e24dd00c 	sub	sp, sp, #12
    dfd0:	e50b0008 	str	r0, [fp, #-8]
    dfd4:	e51b3008 	ldr	r3, [fp, #-8]
    dfd8:	e353002f 	cmp	r3, #47	; 0x2f
    dfdc:	da000004 	ble	dff4 <isdigit+0x30>
    dfe0:	e51b3008 	ldr	r3, [fp, #-8]
    dfe4:	e3530039 	cmp	r3, #57	; 0x39
    dfe8:	ca000001 	bgt	dff4 <isdigit+0x30>
    dfec:	e3a03001 	mov	r3, #1
    dff0:	ea000000 	b	dff8 <isdigit+0x34>
    dff4:	e3a03000 	mov	r3, #0
    dff8:	e1a00003 	mov	r0, r3
    dffc:	e24bd000 	sub	sp, fp, #0
    e000:	e49db004 	pop	{fp}		; (ldr fp, [sp], #4)
    e004:	e12fff1e 	bx	lr

0000e008 <isprint>:
    e008:	e52db004 	push	{fp}		; (str fp, [sp, #-4]!)
    e00c:	e28db000 	add	fp, sp, #0
    e010:	e24dd00c 	sub	sp, sp, #12
    e014:	e50b0008 	str	r0, [fp, #-8]
    e018:	e51b3008 	ldr	r3, [fp, #-8]
    e01c:	e353001f 	cmp	r3, #31
    e020:	da000004 	ble	e038 <isprint+0x30>
    e024:	e51b3008 	ldr	r3, [fp, #-8]
    e028:	e353007e 	cmp	r3, #126	; 0x7e
    e02c:	ca000001 	bgt	e038 <isprint+0x30>
    e030:	e3a03001 	mov	r3, #1
    e034:	ea000000 	b	e03c <isprint+0x34>
    e038:	e3a03000 	mov	r3, #0
    e03c:	e1a00003 	mov	r0, r3
    e040:	e24bd000 	sub	sp, fp, #0
    e044:	e49db004 	pop	{fp}		; (ldr fp, [sp], #4)
    e048:	e12fff1e 	bx	lr

0000e04c <vsnprintf>:
    e04c:	e92d4800 	push	{fp, lr}
    e050:	e28db004 	add	fp, sp, #4
    e054:	e24dd020 	sub	sp, sp, #32
    e058:	e50b0018 	str	r0, [fp, #-24]
    e05c:	e50b101c 	str	r1, [fp, #-28]
    e060:	e50b2020 	str	r2, [fp, #-32]
    e064:	e50b3024 	str	r3, [fp, #-36]	; 0x24
    e068:	e51b3018 	ldr	r3, [fp, #-24]
    e06c:	e50b3010 	str	r3, [fp, #-16]
    e070:	e3a03000 	mov	r3, #0
    e074:	e50b300c 	str	r3, [fp, #-12]
    e078:	e51b301c 	ldr	r3, [fp, #-28]
    e07c:	e3530000 	cmp	r3, #0
    e080:	0a000002 	beq	e090 <vsnprintf+0x44>
    e084:	e51b301c 	ldr	r3, [fp, #-28]
    e088:	e2433001 	sub	r3, r3, #1
    e08c:	ea000000 	b	e094 <vsnprintf+0x48>
    e090:	e3a03000 	mov	r3, #0
    e094:	e50b3008 	str	r3, [fp, #-8]
    e098:	e24b3010 	sub	r3, fp, #16
    e09c:	e51b0020 	ldr	r0, [fp, #-32]
    e0a0:	e51b1024 	ldr	r1, [fp, #-36]	; 0x24
    e0a4:	e59f2028 	ldr	r2, [pc, #40]	; e0d4 <vsnprintf+0x88>
    e0a8:	eb000049 	bl	e1d4 <__vprintf>
    e0ac:	e51b301c 	ldr	r3, [fp, #-28]
    e0b0:	e3530000 	cmp	r3, #0
    e0b4:	0a000002 	beq	e0c4 <vsnprintf+0x78>
    e0b8:	e51b3010 	ldr	r3, [fp, #-16]
    e0bc:	e3a02000 	mov	r2, #0
    e0c0:	e5c32000 	strb	r2, [r3]
    e0c4:	e51b300c 	ldr	r3, [fp, #-12]
    e0c8:	e1a00003 	mov	r0, r3
    e0cc:	e24bd004 	sub	sp, fp, #4
    e0d0:	e8bd8800 	pop	{fp, pc}
    e0d4:	0000e0d8 	.word	0x0000e0d8

0000e0d8 <vsnprintf_helper>:
    e0d8:	e52db004 	push	{fp}		; (str fp, [sp, #-4]!)
    e0dc:	e28db000 	add	fp, sp, #0
    e0e0:	e24dd014 	sub	sp, sp, #20
    e0e4:	e1a03000 	mov	r3, r0
    e0e8:	e50b1014 	str	r1, [fp, #-20]
    e0ec:	e54b300d 	strb	r3, [fp, #-13]
    e0f0:	e51b3014 	ldr	r3, [fp, #-20]
    e0f4:	e50b3008 	str	r3, [fp, #-8]
    e0f8:	e51b3008 	ldr	r3, [fp, #-8]
    e0fc:	e5933004 	ldr	r3, [r3, #4]
    e100:	e2831001 	add	r1, r3, #1
    e104:	e51b2008 	ldr	r2, [fp, #-8]
    e108:	e5821004 	str	r1, [r2, #4]
    e10c:	e51b2008 	ldr	r2, [fp, #-8]
    e110:	e5922008 	ldr	r2, [r2, #8]
    e114:	e1530002 	cmp	r3, r2
    e118:	aa000006 	bge	e138 <vsnprintf_helper+0x60>
    e11c:	e51b3008 	ldr	r3, [fp, #-8]
    e120:	e5933000 	ldr	r3, [r3]
    e124:	e2831001 	add	r1, r3, #1
    e128:	e51b2008 	ldr	r2, [fp, #-8]
    e12c:	e5821000 	str	r1, [r2]
    e130:	e55b200d 	ldrb	r2, [fp, #-13]
    e134:	e5c32000 	strb	r2, [r3]
    e138:	e24bd000 	sub	sp, fp, #0
    e13c:	e49db004 	pop	{fp}		; (ldr fp, [sp], #4)
    e140:	e12fff1e 	bx	lr

0000e144 <snprintf>:
    e144:	e92d000c 	push	{r2, r3}
    e148:	e92d4800 	push	{fp, lr}
    e14c:	e28db004 	add	fp, sp, #4
    e150:	e24dd010 	sub	sp, sp, #16
    e154:	e50b0010 	str	r0, [fp, #-16]
    e158:	e50b1014 	str	r1, [fp, #-20]
    e15c:	e28b3008 	add	r3, fp, #8
    e160:	e50b300c 	str	r3, [fp, #-12]
    e164:	e51b0010 	ldr	r0, [fp, #-16]
    e168:	e51b1014 	ldr	r1, [fp, #-20]
    e16c:	e59b2004 	ldr	r2, [fp, #4]
    e170:	e51b300c 	ldr	r3, [fp, #-12]
    e174:	ebffffb4 	bl	e04c <vsnprintf>
    e178:	e50b0008 	str	r0, [fp, #-8]
    e17c:	e51b3008 	ldr	r3, [fp, #-8]
    e180:	e1a00003 	mov	r0, r3
    e184:	e24bd004 	sub	sp, fp, #4
    e188:	e8bd4800 	pop	{fp, lr}
    e18c:	e28dd008 	add	sp, sp, #8
    e190:	e12fff1e 	bx	lr

0000e194 <printf>:
    e194:	e92d000f 	push	{r0, r1, r2, r3}
    e198:	e92d4800 	push	{fp, lr}
    e19c:	e28db004 	add	fp, sp, #4
    e1a0:	e24dd008 	sub	sp, sp, #8
    e1a4:	e28b3008 	add	r3, fp, #8
    e1a8:	e50b300c 	str	r3, [fp, #-12]
    e1ac:	e59b0004 	ldr	r0, [fp, #4]
    e1b0:	e51b100c 	ldr	r1, [fp, #-12]
    e1b4:	ebffebf5 	bl	9190 <vprintf>
    e1b8:	e50b0008 	str	r0, [fp, #-8]
    e1bc:	e51b3008 	ldr	r3, [fp, #-8]
    e1c0:	e1a00003 	mov	r0, r3
    e1c4:	e24bd004 	sub	sp, fp, #4
    e1c8:	e8bd4800 	pop	{fp, lr}
    e1cc:	e28dd010 	add	sp, sp, #16
    e1d0:	e12fff1e 	bx	lr

0000e1d4 <__vprintf>:
    e1d4:	e92d4830 	push	{r4, r5, fp, lr}
    e1d8:	e28db00c 	add	fp, sp, #12
    e1dc:	e24dd050 	sub	sp, sp, #80	; 0x50
    e1e0:	e50b0040 	str	r0, [fp, #-64]	; 0x40
    e1e4:	e50b1044 	str	r1, [fp, #-68]	; 0x44
    e1e8:	e50b2048 	str	r2, [fp, #-72]	; 0x48
    e1ec:	e50b304c 	str	r3, [fp, #-76]	; 0x4c
    e1f0:	ea0001c0 	b	e8f8 <__vprintf+0x724>
    e1f4:	e51b3040 	ldr	r3, [fp, #-64]	; 0x40
    e1f8:	e5d33000 	ldrb	r3, [r3]
    e1fc:	e3530025 	cmp	r3, #37	; 0x25
    e200:	0a000006 	beq	e220 <__vprintf+0x4c>
    e204:	e51b3040 	ldr	r3, [fp, #-64]	; 0x40
    e208:	e5d32000 	ldrb	r2, [r3]
    e20c:	e51b3048 	ldr	r3, [fp, #-72]	; 0x48
    e210:	e1a00002 	mov	r0, r2
    e214:	e51b104c 	ldr	r1, [fp, #-76]	; 0x4c
    e218:	e12fff33 	blx	r3
    e21c:	ea0001b2 	b	e8ec <__vprintf+0x718>
    e220:	e51b3040 	ldr	r3, [fp, #-64]	; 0x40
    e224:	e2833001 	add	r3, r3, #1
    e228:	e50b3040 	str	r3, [fp, #-64]	; 0x40
    e22c:	e51b3040 	ldr	r3, [fp, #-64]	; 0x40
    e230:	e5d33000 	ldrb	r3, [r3]
    e234:	e3530025 	cmp	r3, #37	; 0x25
    e238:	1a000004 	bne	e250 <__vprintf+0x7c>
    e23c:	e51b3048 	ldr	r3, [fp, #-72]	; 0x48
    e240:	e3a00025 	mov	r0, #37	; 0x25
    e244:	e51b104c 	ldr	r1, [fp, #-76]	; 0x4c
    e248:	e12fff33 	blx	r3
    e24c:	ea0001a6 	b	e8ec <__vprintf+0x718>
    e250:	e24b2038 	sub	r2, fp, #56	; 0x38
    e254:	e24b3044 	sub	r3, fp, #68	; 0x44
    e258:	e51b0040 	ldr	r0, [fp, #-64]	; 0x40
    e25c:	e1a01002 	mov	r1, r2
    e260:	e1a02003 	mov	r2, r3
    e264:	eb0001b3 	bl	e938 <parse_conversion>
    e268:	e50b0040 	str	r0, [fp, #-64]	; 0x40
    e26c:	e51b3040 	ldr	r3, [fp, #-64]	; 0x40
    e270:	e5d33000 	ldrb	r3, [r3]
    e274:	e2433045 	sub	r3, r3, #69	; 0x45
    e278:	e3530033 	cmp	r3, #51	; 0x33
    e27c:	979ff103 	ldrls	pc, [pc, r3, lsl #2]
    e280:	ea000192 	b	e8d0 <__vprintf+0x6fc>
    e284:	0000e8b4 	.word	0x0000e8b4
    e288:	0000e8d0 	.word	0x0000e8d0
    e28c:	0000e8b4 	.word	0x0000e8b4
    e290:	0000e8d0 	.word	0x0000e8d0
    e294:	0000e8d0 	.word	0x0000e8d0
    e298:	0000e8d0 	.word	0x0000e8d0
    e29c:	0000e8d0 	.word	0x0000e8d0
    e2a0:	0000e8d0 	.word	0x0000e8d0
    e2a4:	0000e8d0 	.word	0x0000e8d0
    e2a8:	0000e8d0 	.word	0x0000e8d0
    e2ac:	0000e8d0 	.word	0x0000e8d0
    e2b0:	0000e8d0 	.word	0x0000e8d0
    e2b4:	0000e8d0 	.word	0x0000e8d0
    e2b8:	0000e8d0 	.word	0x0000e8d0
    e2bc:	0000e8d0 	.word	0x0000e8d0
    e2c0:	0000e8d0 	.word	0x0000e8d0
    e2c4:	0000e8d0 	.word	0x0000e8d0
    e2c8:	0000e8d0 	.word	0x0000e8d0
    e2cc:	0000e8d0 	.word	0x0000e8d0
    e2d0:	0000e534 	.word	0x0000e534
    e2d4:	0000e8d0 	.word	0x0000e8d0
    e2d8:	0000e8d0 	.word	0x0000e8d0
    e2dc:	0000e8d0 	.word	0x0000e8d0
    e2e0:	0000e8d0 	.word	0x0000e8d0
    e2e4:	0000e8d0 	.word	0x0000e8d0
    e2e8:	0000e8d0 	.word	0x0000e8d0
    e2ec:	0000e8d0 	.word	0x0000e8d0
    e2f0:	0000e8d0 	.word	0x0000e8d0
    e2f4:	0000e8d0 	.word	0x0000e8d0
    e2f8:	0000e8d0 	.word	0x0000e8d0
    e2fc:	0000e7b0 	.word	0x0000e7b0
    e300:	0000e354 	.word	0x0000e354
    e304:	0000e8b4 	.word	0x0000e8b4
    e308:	0000e8b4 	.word	0x0000e8b4
    e30c:	0000e8b4 	.word	0x0000e8b4
    e310:	0000e8d0 	.word	0x0000e8d0
    e314:	0000e354 	.word	0x0000e354
    e318:	0000e8d0 	.word	0x0000e8d0
    e31c:	0000e8d0 	.word	0x0000e8d0
    e320:	0000e8d0 	.word	0x0000e8d0
    e324:	0000e8d0 	.word	0x0000e8d0
    e328:	0000e8b4 	.word	0x0000e8b4
    e32c:	0000e534 	.word	0x0000e534
    e330:	0000e854 	.word	0x0000e854
    e334:	0000e8d0 	.word	0x0000e8d0
    e338:	0000e8d0 	.word	0x0000e8d0
    e33c:	0000e7f0 	.word	0x0000e7f0
    e340:	0000e8d0 	.word	0x0000e8d0
    e344:	0000e534 	.word	0x0000e534
    e348:	0000e8d0 	.word	0x0000e8d0
    e34c:	0000e8d0 	.word	0x0000e8d0
    e350:	0000e534 	.word	0x0000e534
    e354:	e55b302c 	ldrb	r3, [fp, #-44]	; 0x2c
    e358:	e2433001 	sub	r3, r3, #1
    e35c:	e3530007 	cmp	r3, #7
    e360:	979ff103 	ldrls	pc, [pc, r3, lsl #2]
    e364:	ea000054 	b	e4bc <__vprintf+0x2e8>
    e368:	0000e388 	.word	0x0000e388
    e36c:	0000e3ac 	.word	0x0000e3ac
    e370:	0000e3d0 	.word	0x0000e3d0
    e374:	0000e3f0 	.word	0x0000e3f0
    e378:	0000e410 	.word	0x0000e410
    e37c:	0000e430 	.word	0x0000e430
    e380:	0000e450 	.word	0x0000e450
    e384:	0000e470 	.word	0x0000e470
    e388:	e51b3044 	ldr	r3, [fp, #-68]	; 0x44
    e38c:	e2832004 	add	r2, r3, #4
    e390:	e50b2044 	str	r2, [fp, #-68]	; 0x44
    e394:	e5933000 	ldr	r3, [r3]
    e398:	e6ef3073 	uxtb	r3, r3
    e39c:	e6af2073 	sxtb	r2, r3
    e3a0:	e1a03fc2 	asr	r3, r2, #31
    e3a4:	e14b21f4 	strd	r2, [fp, #-20]	; 0xffffffec
    e3a8:	ea000048 	b	e4d0 <__vprintf+0x2fc>
    e3ac:	e51b3044 	ldr	r3, [fp, #-68]	; 0x44
    e3b0:	e2832004 	add	r2, r3, #4
    e3b4:	e50b2044 	str	r2, [fp, #-68]	; 0x44
    e3b8:	e5933000 	ldr	r3, [r3]
    e3bc:	e6ff3073 	uxth	r3, r3
    e3c0:	e6bf2073 	sxth	r2, r3
    e3c4:	e1a03fc2 	asr	r3, r2, #31
    e3c8:	e14b21f4 	strd	r2, [fp, #-20]	; 0xffffffec
    e3cc:	ea00003f 	b	e4d0 <__vprintf+0x2fc>
    e3d0:	e51b3044 	ldr	r3, [fp, #-68]	; 0x44
    e3d4:	e2832004 	add	r2, r3, #4
    e3d8:	e50b2044 	str	r2, [fp, #-68]	; 0x44
    e3dc:	e5933000 	ldr	r3, [r3]
    e3e0:	e1a02003 	mov	r2, r3
    e3e4:	e1a03fc2 	asr	r3, r2, #31
    e3e8:	e14b21f4 	strd	r2, [fp, #-20]	; 0xffffffec
    e3ec:	ea000037 	b	e4d0 <__vprintf+0x2fc>
    e3f0:	e51b3044 	ldr	r3, [fp, #-68]	; 0x44
    e3f4:	e2833007 	add	r3, r3, #7
    e3f8:	e3c33007 	bic	r3, r3, #7
    e3fc:	e2832008 	add	r2, r3, #8
    e400:	e50b2044 	str	r2, [fp, #-68]	; 0x44
    e404:	e1c320d0 	ldrd	r2, [r3]
    e408:	e14b21f4 	strd	r2, [fp, #-20]	; 0xffffffec
    e40c:	ea00002f 	b	e4d0 <__vprintf+0x2fc>
    e410:	e51b3044 	ldr	r3, [fp, #-68]	; 0x44
    e414:	e2832004 	add	r2, r3, #4
    e418:	e50b2044 	str	r2, [fp, #-68]	; 0x44
    e41c:	e5933000 	ldr	r3, [r3]
    e420:	e1a02003 	mov	r2, r3
    e424:	e1a03fc2 	asr	r3, r2, #31
    e428:	e14b21f4 	strd	r2, [fp, #-20]	; 0xffffffec
    e42c:	ea000027 	b	e4d0 <__vprintf+0x2fc>
    e430:	e51b3044 	ldr	r3, [fp, #-68]	; 0x44
    e434:	e2833007 	add	r3, r3, #7
    e438:	e3c33007 	bic	r3, r3, #7
    e43c:	e2832008 	add	r2, r3, #8
    e440:	e50b2044 	str	r2, [fp, #-68]	; 0x44
    e444:	e1c320d0 	ldrd	r2, [r3]
    e448:	e14b21f4 	strd	r2, [fp, #-20]	; 0xffffffec
    e44c:	ea00001f 	b	e4d0 <__vprintf+0x2fc>
    e450:	e51b3044 	ldr	r3, [fp, #-68]	; 0x44
    e454:	e2832004 	add	r2, r3, #4
    e458:	e50b2044 	str	r2, [fp, #-68]	; 0x44
    e45c:	e5933000 	ldr	r3, [r3]
    e460:	e1a02003 	mov	r2, r3
    e464:	e1a03fc2 	asr	r3, r2, #31
    e468:	e14b21f4 	strd	r2, [fp, #-20]	; 0xffffffec
    e46c:	ea000017 	b	e4d0 <__vprintf+0x2fc>
    e470:	e51b3044 	ldr	r3, [fp, #-68]	; 0x44
    e474:	e2832004 	add	r2, r3, #4
    e478:	e50b2044 	str	r2, [fp, #-68]	; 0x44
    e47c:	e5933000 	ldr	r3, [r3]
    e480:	e1a02003 	mov	r2, r3
    e484:	e3a03000 	mov	r3, #0
    e488:	e14b21f4 	strd	r2, [fp, #-20]	; 0xffffffec
    e48c:	e14b21d4 	ldrd	r2, [fp, #-20]	; 0xffffffec
    e490:	e3e00102 	mvn	r0, #-2147483648	; 0x80000000
    e494:	e3a01000 	mov	r1, #0
    e498:	e1500002 	cmp	r0, r2
    e49c:	e0d1c003 	sbcs	ip, r1, r3
    e4a0:	aa000004 	bge	e4b8 <__vprintf+0x2e4>
    e4a4:	e14b21d4 	ldrd	r2, [fp, #-20]	; 0xffffffec
    e4a8:	e2922000 	adds	r2, r2, #0
    e4ac:	e2c33000 	sbc	r3, r3, #0
    e4b0:	e14b21f4 	strd	r2, [fp, #-20]	; 0xffffffec
    e4b4:	ea000005 	b	e4d0 <__vprintf+0x2fc>
    e4b8:	ea000004 	b	e4d0 <__vprintf+0x2fc>
    e4bc:	e59f044c 	ldr	r0, [pc, #1100]	; e910 <__vprintf+0x73c>
    e4c0:	e3a010cc 	mov	r1, #204	; 0xcc
    e4c4:	e59f2448 	ldr	r2, [pc, #1096]	; e914 <__vprintf+0x740>
    e4c8:	e59f3448 	ldr	r3, [pc, #1096]	; e918 <__vprintf+0x744>
    e4cc:	ebffebae 	bl	938c <debug_panic>
    e4d0:	e14b21d4 	ldrd	r2, [fp, #-20]	; 0xffffffec
    e4d4:	e1a04fc3 	asr	r4, r3, #31
    e4d8:	e1a05fc3 	asr	r5, r3, #31
    e4dc:	e14b21d4 	ldrd	r2, [fp, #-20]	; 0xffffffec
    e4e0:	e0222004 	eor	r2, r2, r4
    e4e4:	e0233005 	eor	r3, r3, r5
    e4e8:	e0522004 	subs	r2, r2, r4
    e4ec:	e0c33005 	sbc	r3, r3, r5
    e4f0:	e51b1010 	ldr	r1, [fp, #-16]
    e4f4:	e1a01fa1 	lsr	r1, r1, #31
    e4f8:	e6efc071 	uxtb	ip, r1
    e4fc:	e59f1418 	ldr	r1, [pc, #1048]	; e91c <__vprintf+0x748>
    e500:	e58d1000 	str	r1, [sp]
    e504:	e24b1038 	sub	r1, fp, #56	; 0x38
    e508:	e58d1004 	str	r1, [sp, #4]
    e50c:	e51b1048 	ldr	r1, [fp, #-72]	; 0x48
    e510:	e58d1008 	str	r1, [sp, #8]
    e514:	e51b104c 	ldr	r1, [fp, #-76]	; 0x4c
    e518:	e58d100c 	str	r1, [sp, #12]
    e51c:	e1a00002 	mov	r0, r2
    e520:	e1a01003 	mov	r1, r3
    e524:	e3a02001 	mov	r2, #1
    e528:	e1a0300c 	mov	r3, ip
    e52c:	eb000239 	bl	ee18 <format_integer>
    e530:	ea0000ed 	b	e8ec <__vprintf+0x718>
    e534:	e55b302c 	ldrb	r3, [fp, #-44]	; 0x2c
    e538:	e2433001 	sub	r3, r3, #1
    e53c:	e3530007 	cmp	r3, #7
    e540:	979ff103 	ldrls	pc, [pc, r3, lsl #2]
    e544:	ea00004f 	b	e688 <__vprintf+0x4b4>
    e548:	0000e568 	.word	0x0000e568
    e54c:	0000e58c 	.word	0x0000e58c
    e550:	0000e5b0 	.word	0x0000e5b0
    e554:	0000e5d0 	.word	0x0000e5d0
    e558:	0000e5f0 	.word	0x0000e5f0
    e55c:	0000e610 	.word	0x0000e610
    e560:	0000e630 	.word	0x0000e630
    e564:	0000e668 	.word	0x0000e668
    e568:	e51b3044 	ldr	r3, [fp, #-68]	; 0x44
    e56c:	e2832004 	add	r2, r3, #4
    e570:	e50b2044 	str	r2, [fp, #-68]	; 0x44
    e574:	e5933000 	ldr	r3, [r3]
    e578:	e6ef3073 	uxtb	r3, r3
    e57c:	e6ef2073 	uxtb	r2, r3
    e580:	e3a03000 	mov	r3, #0
    e584:	e14b21fc 	strd	r2, [fp, #-28]	; 0xffffffe4
    e588:	ea000043 	b	e69c <__vprintf+0x4c8>
    e58c:	e51b3044 	ldr	r3, [fp, #-68]	; 0x44
    e590:	e2832004 	add	r2, r3, #4
    e594:	e50b2044 	str	r2, [fp, #-68]	; 0x44
    e598:	e5933000 	ldr	r3, [r3]
    e59c:	e6ff3073 	uxth	r3, r3
    e5a0:	e6ff2073 	uxth	r2, r3
    e5a4:	e3a03000 	mov	r3, #0
    e5a8:	e14b21fc 	strd	r2, [fp, #-28]	; 0xffffffe4
    e5ac:	ea00003a 	b	e69c <__vprintf+0x4c8>
    e5b0:	e51b3044 	ldr	r3, [fp, #-68]	; 0x44
    e5b4:	e2832004 	add	r2, r3, #4
    e5b8:	e50b2044 	str	r2, [fp, #-68]	; 0x44
    e5bc:	e5933000 	ldr	r3, [r3]
    e5c0:	e1a02003 	mov	r2, r3
    e5c4:	e3a03000 	mov	r3, #0
    e5c8:	e14b21fc 	strd	r2, [fp, #-28]	; 0xffffffe4
    e5cc:	ea000032 	b	e69c <__vprintf+0x4c8>
    e5d0:	e51b3044 	ldr	r3, [fp, #-68]	; 0x44
    e5d4:	e2833007 	add	r3, r3, #7
    e5d8:	e3c33007 	bic	r3, r3, #7
    e5dc:	e2832008 	add	r2, r3, #8
    e5e0:	e50b2044 	str	r2, [fp, #-68]	; 0x44
    e5e4:	e1c320d0 	ldrd	r2, [r3]
    e5e8:	e14b21fc 	strd	r2, [fp, #-28]	; 0xffffffe4
    e5ec:	ea00002a 	b	e69c <__vprintf+0x4c8>
    e5f0:	e51b3044 	ldr	r3, [fp, #-68]	; 0x44
    e5f4:	e2832004 	add	r2, r3, #4
    e5f8:	e50b2044 	str	r2, [fp, #-68]	; 0x44
    e5fc:	e5933000 	ldr	r3, [r3]
    e600:	e1a02003 	mov	r2, r3
    e604:	e3a03000 	mov	r3, #0
    e608:	e14b21fc 	strd	r2, [fp, #-28]	; 0xffffffe4
    e60c:	ea000022 	b	e69c <__vprintf+0x4c8>
    e610:	e51b3044 	ldr	r3, [fp, #-68]	; 0x44
    e614:	e2833007 	add	r3, r3, #7
    e618:	e3c33007 	bic	r3, r3, #7
    e61c:	e2832008 	add	r2, r3, #8
    e620:	e50b2044 	str	r2, [fp, #-68]	; 0x44
    e624:	e1c320d0 	ldrd	r2, [r3]
    e628:	e14b21fc 	strd	r2, [fp, #-28]	; 0xffffffe4
    e62c:	ea00001a 	b	e69c <__vprintf+0x4c8>
    e630:	e51b3044 	ldr	r3, [fp, #-68]	; 0x44
    e634:	e2832004 	add	r2, r3, #4
    e638:	e50b2044 	str	r2, [fp, #-68]	; 0x44
    e63c:	e5933000 	ldr	r3, [r3]
    e640:	e1a02003 	mov	r2, r3
    e644:	e1a03fc2 	asr	r3, r2, #31
    e648:	e14b21fc 	strd	r2, [fp, #-28]	; 0xffffffe4
    e64c:	e14b01dc 	ldrd	r0, [fp, #-28]	; 0xffffffe4
    e650:	e3e02000 	mvn	r2, #0
    e654:	e3a03000 	mov	r3, #0
    e658:	e0022000 	and	r2, r2, r0
    e65c:	e0033001 	and	r3, r3, r1
    e660:	e14b21fc 	strd	r2, [fp, #-28]	; 0xffffffe4
    e664:	ea00000c 	b	e69c <__vprintf+0x4c8>
    e668:	e51b3044 	ldr	r3, [fp, #-68]	; 0x44
    e66c:	e2832004 	add	r2, r3, #4
    e670:	e50b2044 	str	r2, [fp, #-68]	; 0x44
    e674:	e5933000 	ldr	r3, [r3]
    e678:	e1a02003 	mov	r2, r3
    e67c:	e3a03000 	mov	r3, #0
    e680:	e14b21fc 	strd	r2, [fp, #-28]	; 0xffffffe4
    e684:	ea000004 	b	e69c <__vprintf+0x4c8>
    e688:	e59f0280 	ldr	r0, [pc, #640]	; e910 <__vprintf+0x73c>
    e68c:	e3a010fb 	mov	r1, #251	; 0xfb
    e690:	e59f227c 	ldr	r2, [pc, #636]	; e914 <__vprintf+0x740>
    e694:	e59f327c 	ldr	r3, [pc, #636]	; e918 <__vprintf+0x744>
    e698:	ebffeb3b 	bl	938c <debug_panic>
    e69c:	e51b3040 	ldr	r3, [fp, #-64]	; 0x40
    e6a0:	e5d33000 	ldrb	r3, [r3]
    e6a4:	e2433058 	sub	r3, r3, #88	; 0x58
    e6a8:	e3530020 	cmp	r3, #32
    e6ac:	979ff103 	ldrls	pc, [pc, r3, lsl #2]
    e6b0:	ea00002c 	b	e768 <__vprintf+0x594>
    e6b4:	0000e75c 	.word	0x0000e75c
    e6b8:	0000e768 	.word	0x0000e768
    e6bc:	0000e768 	.word	0x0000e768
    e6c0:	0000e768 	.word	0x0000e768
    e6c4:	0000e768 	.word	0x0000e768
    e6c8:	0000e768 	.word	0x0000e768
    e6cc:	0000e768 	.word	0x0000e768
    e6d0:	0000e768 	.word	0x0000e768
    e6d4:	0000e768 	.word	0x0000e768
    e6d8:	0000e768 	.word	0x0000e768
    e6dc:	0000e768 	.word	0x0000e768
    e6e0:	0000e768 	.word	0x0000e768
    e6e4:	0000e768 	.word	0x0000e768
    e6e8:	0000e768 	.word	0x0000e768
    e6ec:	0000e768 	.word	0x0000e768
    e6f0:	0000e768 	.word	0x0000e768
    e6f4:	0000e768 	.word	0x0000e768
    e6f8:	0000e768 	.word	0x0000e768
    e6fc:	0000e768 	.word	0x0000e768
    e700:	0000e768 	.word	0x0000e768
    e704:	0000e768 	.word	0x0000e768
    e708:	0000e768 	.word	0x0000e768
    e70c:	0000e768 	.word	0x0000e768
    e710:	0000e738 	.word	0x0000e738
    e714:	0000e768 	.word	0x0000e768
    e718:	0000e768 	.word	0x0000e768
    e71c:	0000e768 	.word	0x0000e768
    e720:	0000e768 	.word	0x0000e768
    e724:	0000e768 	.word	0x0000e768
    e728:	0000e744 	.word	0x0000e744
    e72c:	0000e768 	.word	0x0000e768
    e730:	0000e768 	.word	0x0000e768
    e734:	0000e750 	.word	0x0000e750
    e738:	e59f31e0 	ldr	r3, [pc, #480]	; e920 <__vprintf+0x74c>
    e73c:	e50b3020 	str	r3, [fp, #-32]
    e740:	ea00000d 	b	e77c <__vprintf+0x5a8>
    e744:	e59f31d0 	ldr	r3, [pc, #464]	; e91c <__vprintf+0x748>
    e748:	e50b3020 	str	r3, [fp, #-32]
    e74c:	ea00000a 	b	e77c <__vprintf+0x5a8>
    e750:	e59f31cc 	ldr	r3, [pc, #460]	; e924 <__vprintf+0x750>
    e754:	e50b3020 	str	r3, [fp, #-32]
    e758:	ea000007 	b	e77c <__vprintf+0x5a8>
    e75c:	e59f31c4 	ldr	r3, [pc, #452]	; e928 <__vprintf+0x754>
    e760:	e50b3020 	str	r3, [fp, #-32]
    e764:	ea000004 	b	e77c <__vprintf+0x5a8>
    e768:	e59f01a0 	ldr	r0, [pc, #416]	; e910 <__vprintf+0x73c>
    e76c:	e3a01f41 	mov	r1, #260	; 0x104
    e770:	e59f219c 	ldr	r2, [pc, #412]	; e914 <__vprintf+0x740>
    e774:	e59f319c 	ldr	r3, [pc, #412]	; e918 <__vprintf+0x744>
    e778:	ebffeb03 	bl	938c <debug_panic>
    e77c:	e51b3020 	ldr	r3, [fp, #-32]
    e780:	e58d3000 	str	r3, [sp]
    e784:	e24b3038 	sub	r3, fp, #56	; 0x38
    e788:	e58d3004 	str	r3, [sp, #4]
    e78c:	e51b3048 	ldr	r3, [fp, #-72]	; 0x48
    e790:	e58d3008 	str	r3, [sp, #8]
    e794:	e51b304c 	ldr	r3, [fp, #-76]	; 0x4c
    e798:	e58d300c 	str	r3, [sp, #12]
    e79c:	e14b01dc 	ldrd	r0, [fp, #-28]	; 0xffffffe4
    e7a0:	e3a02000 	mov	r2, #0
    e7a4:	e3a03000 	mov	r3, #0
    e7a8:	eb00019a 	bl	ee18 <format_integer>
    e7ac:	ea00004e 	b	e8ec <__vprintf+0x718>
    e7b0:	e51b3044 	ldr	r3, [fp, #-68]	; 0x44
    e7b4:	e2832004 	add	r2, r3, #4
    e7b8:	e50b2044 	str	r2, [fp, #-68]	; 0x44
    e7bc:	e5933000 	ldr	r3, [r3]
    e7c0:	e6ef3073 	uxtb	r3, r3
    e7c4:	e54b3039 	strb	r3, [fp, #-57]	; 0x39
    e7c8:	e24b2039 	sub	r2, fp, #57	; 0x39
    e7cc:	e24b3038 	sub	r3, fp, #56	; 0x38
    e7d0:	e51b104c 	ldr	r1, [fp, #-76]	; 0x4c
    e7d4:	e58d1000 	str	r1, [sp]
    e7d8:	e1a00002 	mov	r0, r2
    e7dc:	e3a01001 	mov	r1, #1
    e7e0:	e1a02003 	mov	r2, r3
    e7e4:	e51b3048 	ldr	r3, [fp, #-72]	; 0x48
    e7e8:	eb0002a1 	bl	f274 <format_string>
    e7ec:	ea00003e 	b	e8ec <__vprintf+0x718>
    e7f0:	e51b3044 	ldr	r3, [fp, #-68]	; 0x44
    e7f4:	e2832004 	add	r2, r3, #4
    e7f8:	e50b2044 	str	r2, [fp, #-68]	; 0x44
    e7fc:	e5933000 	ldr	r3, [r3]
    e800:	e50b3024 	str	r3, [fp, #-36]	; 0x24
    e804:	e51b3024 	ldr	r3, [fp, #-36]	; 0x24
    e808:	e3530000 	cmp	r3, #0
    e80c:	1a000001 	bne	e818 <__vprintf+0x644>
    e810:	e59f3114 	ldr	r3, [pc, #276]	; e92c <__vprintf+0x758>
    e814:	e50b3024 	str	r3, [fp, #-36]	; 0x24
    e818:	e51b3030 	ldr	r3, [fp, #-48]	; 0x30
    e81c:	e51b0024 	ldr	r0, [fp, #-36]	; 0x24
    e820:	e1a01003 	mov	r1, r3
    e824:	eb00083d 	bl	10920 <strnlen>
    e828:	e1a03000 	mov	r3, r0
    e82c:	e1a02003 	mov	r2, r3
    e830:	e24b3038 	sub	r3, fp, #56	; 0x38
    e834:	e51b104c 	ldr	r1, [fp, #-76]	; 0x4c
    e838:	e58d1000 	str	r1, [sp]
    e83c:	e51b0024 	ldr	r0, [fp, #-36]	; 0x24
    e840:	e1a01002 	mov	r1, r2
    e844:	e1a02003 	mov	r2, r3
    e848:	e51b3048 	ldr	r3, [fp, #-72]	; 0x48
    e84c:	eb000288 	bl	f274 <format_string>
    e850:	ea000025 	b	e8ec <__vprintf+0x718>
    e854:	e51b3044 	ldr	r3, [fp, #-68]	; 0x44
    e858:	e2832004 	add	r2, r3, #4
    e85c:	e50b2044 	str	r2, [fp, #-68]	; 0x44
    e860:	e5933000 	ldr	r3, [r3]
    e864:	e50b3028 	str	r3, [fp, #-40]	; 0x28
    e868:	e3a03008 	mov	r3, #8
    e86c:	e54b3038 	strb	r3, [fp, #-56]	; 0x38
    e870:	e51b3028 	ldr	r3, [fp, #-40]	; 0x28
    e874:	e1a02003 	mov	r2, r3
    e878:	e3a03000 	mov	r3, #0
    e87c:	e59f10a0 	ldr	r1, [pc, #160]	; e924 <__vprintf+0x750>
    e880:	e58d1000 	str	r1, [sp]
    e884:	e24b1038 	sub	r1, fp, #56	; 0x38
    e888:	e58d1004 	str	r1, [sp, #4]
    e88c:	e51b1048 	ldr	r1, [fp, #-72]	; 0x48
    e890:	e58d1008 	str	r1, [sp, #8]
    e894:	e51b104c 	ldr	r1, [fp, #-76]	; 0x4c
    e898:	e58d100c 	str	r1, [sp, #12]
    e89c:	e1a00002 	mov	r0, r2
    e8a0:	e1a01003 	mov	r1, r3
    e8a4:	e3a02000 	mov	r2, #0
    e8a8:	e3a03000 	mov	r3, #0
    e8ac:	eb000159 	bl	ee18 <format_integer>
    e8b0:	ea00000d 	b	e8ec <__vprintf+0x718>
    e8b4:	e51b3040 	ldr	r3, [fp, #-64]	; 0x40
    e8b8:	e5d33000 	ldrb	r3, [r3]
    e8bc:	e59f006c 	ldr	r0, [pc, #108]	; e930 <__vprintf+0x75c>
    e8c0:	e51b1048 	ldr	r1, [fp, #-72]	; 0x48
    e8c4:	e51b204c 	ldr	r2, [fp, #-76]	; 0x4c
    e8c8:	eb0002aa 	bl	f378 <__printf>
    e8cc:	ea000006 	b	e8ec <__vprintf+0x718>
    e8d0:	e51b3040 	ldr	r3, [fp, #-64]	; 0x40
    e8d4:	e5d33000 	ldrb	r3, [r3]
    e8d8:	e59f0054 	ldr	r0, [pc, #84]	; e934 <__vprintf+0x760>
    e8dc:	e51b1048 	ldr	r1, [fp, #-72]	; 0x48
    e8e0:	e51b204c 	ldr	r2, [fp, #-76]	; 0x4c
    e8e4:	eb0002a3 	bl	f378 <__printf>
    e8e8:	e1a00000 	nop			; (mov r0, r0)
    e8ec:	e51b3040 	ldr	r3, [fp, #-64]	; 0x40
    e8f0:	e2833001 	add	r3, r3, #1
    e8f4:	e50b3040 	str	r3, [fp, #-64]	; 0x40
    e8f8:	e51b3040 	ldr	r3, [fp, #-64]	; 0x40
    e8fc:	e5d33000 	ldrb	r3, [r3]
    e900:	e3530000 	cmp	r3, #0
    e904:	1afffe3a 	bne	e1f4 <__vprintf+0x20>
    e908:	e24bd00c 	sub	sp, fp, #12
    e90c:	e8bd8830 	pop	{r4, r5, fp, pc}
    e910:	000163ac 	.word	0x000163ac
    e914:	0001643c 	.word	0x0001643c
    e918:	000163b8 	.word	0x000163b8
    e91c:	00016338 	.word	0x00016338
    e920:	00016354 	.word	0x00016354
    e924:	00016378 	.word	0x00016378
    e928:	0001639c 	.word	0x0001639c
    e92c:	000163dc 	.word	0x000163dc
    e930:	000163e4 	.word	0x000163e4
    e934:	000163fc 	.word	0x000163fc

0000e938 <parse_conversion>:
    e938:	e92d4800 	push	{fp, lr}
    e93c:	e28db004 	add	fp, sp, #4
    e940:	e24dd010 	sub	sp, sp, #16
    e944:	e50b0008 	str	r0, [fp, #-8]
    e948:	e50b100c 	str	r1, [fp, #-12]
    e94c:	e50b2010 	str	r2, [fp, #-16]
    e950:	e51b300c 	ldr	r3, [fp, #-12]
    e954:	e3a02000 	mov	r2, #0
    e958:	e5c32000 	strb	r2, [r3]
    e95c:	e51b3008 	ldr	r3, [fp, #-8]
    e960:	e2832001 	add	r2, r3, #1
    e964:	e50b2008 	str	r2, [fp, #-8]
    e968:	e5d33000 	ldrb	r3, [r3]
    e96c:	e2433020 	sub	r3, r3, #32
    e970:	e3530010 	cmp	r3, #16
    e974:	979ff103 	ldrls	pc, [pc, r3, lsl #2]
    e978:	ea00003a 	b	ea68 <parse_conversion+0x130>
    e97c:	0000e9f8 	.word	0x0000e9f8
    e980:	0000ea68 	.word	0x0000ea68
    e984:	0000ea68 	.word	0x0000ea68
    e988:	0000ea14 	.word	0x0000ea14
    e98c:	0000ea68 	.word	0x0000ea68
    e990:	0000ea68 	.word	0x0000ea68
    e994:	0000ea68 	.word	0x0000ea68
    e998:	0000ea4c 	.word	0x0000ea4c
    e99c:	0000ea68 	.word	0x0000ea68
    e9a0:	0000ea68 	.word	0x0000ea68
    e9a4:	0000ea68 	.word	0x0000ea68
    e9a8:	0000e9dc 	.word	0x0000e9dc
    e9ac:	0000ea68 	.word	0x0000ea68
    e9b0:	0000e9c0 	.word	0x0000e9c0
    e9b4:	0000ea68 	.word	0x0000ea68
    e9b8:	0000ea68 	.word	0x0000ea68
    e9bc:	0000ea30 	.word	0x0000ea30
    e9c0:	e51b300c 	ldr	r3, [fp, #-12]
    e9c4:	e5d33000 	ldrb	r3, [r3]
    e9c8:	e3833001 	orr	r3, r3, #1
    e9cc:	e6ef2073 	uxtb	r2, r3
    e9d0:	e51b300c 	ldr	r3, [fp, #-12]
    e9d4:	e5c32000 	strb	r2, [r3]
    e9d8:	ea00002c 	b	ea90 <parse_conversion+0x158>
    e9dc:	e51b300c 	ldr	r3, [fp, #-12]
    e9e0:	e5d33000 	ldrb	r3, [r3]
    e9e4:	e3833002 	orr	r3, r3, #2
    e9e8:	e6ef2073 	uxtb	r2, r3
    e9ec:	e51b300c 	ldr	r3, [fp, #-12]
    e9f0:	e5c32000 	strb	r2, [r3]
    e9f4:	ea000025 	b	ea90 <parse_conversion+0x158>
    e9f8:	e51b300c 	ldr	r3, [fp, #-12]
    e9fc:	e5d33000 	ldrb	r3, [r3]
    ea00:	e3833004 	orr	r3, r3, #4
    ea04:	e6ef2073 	uxtb	r2, r3
    ea08:	e51b300c 	ldr	r3, [fp, #-12]
    ea0c:	e5c32000 	strb	r2, [r3]
    ea10:	ea00001e 	b	ea90 <parse_conversion+0x158>
    ea14:	e51b300c 	ldr	r3, [fp, #-12]
    ea18:	e5d33000 	ldrb	r3, [r3]
    ea1c:	e3833008 	orr	r3, r3, #8
    ea20:	e6ef2073 	uxtb	r2, r3
    ea24:	e51b300c 	ldr	r3, [fp, #-12]
    ea28:	e5c32000 	strb	r2, [r3]
    ea2c:	ea000017 	b	ea90 <parse_conversion+0x158>
    ea30:	e51b300c 	ldr	r3, [fp, #-12]
    ea34:	e5d33000 	ldrb	r3, [r3]
    ea38:	e3833010 	orr	r3, r3, #16
    ea3c:	e6ef2073 	uxtb	r2, r3
    ea40:	e51b300c 	ldr	r3, [fp, #-12]
    ea44:	e5c32000 	strb	r2, [r3]
    ea48:	ea000010 	b	ea90 <parse_conversion+0x158>
    ea4c:	e51b300c 	ldr	r3, [fp, #-12]
    ea50:	e5d33000 	ldrb	r3, [r3]
    ea54:	e3833020 	orr	r3, r3, #32
    ea58:	e6ef2073 	uxtb	r2, r3
    ea5c:	e51b300c 	ldr	r3, [fp, #-12]
    ea60:	e5c32000 	strb	r2, [r3]
    ea64:	ea000009 	b	ea90 <parse_conversion+0x158>
    ea68:	e51b3008 	ldr	r3, [fp, #-8]
    ea6c:	e2433001 	sub	r3, r3, #1
    ea70:	e50b3008 	str	r3, [fp, #-8]
    ea74:	e1a00000 	nop			; (mov r0, r0)
    ea78:	e51b300c 	ldr	r3, [fp, #-12]
    ea7c:	e5d33000 	ldrb	r3, [r3]
    ea80:	e2033001 	and	r3, r3, #1
    ea84:	e3530000 	cmp	r3, #0
    ea88:	0a000007 	beq	eaac <parse_conversion+0x174>
    ea8c:	ea000000 	b	ea94 <parse_conversion+0x15c>
    ea90:	eaffffb1 	b	e95c <parse_conversion+0x24>
    ea94:	e51b300c 	ldr	r3, [fp, #-12]
    ea98:	e5d33000 	ldrb	r3, [r3]
    ea9c:	e3c33010 	bic	r3, r3, #16
    eaa0:	e6ef2073 	uxtb	r2, r3
    eaa4:	e51b300c 	ldr	r3, [fp, #-12]
    eaa8:	e5c32000 	strb	r2, [r3]
    eaac:	e51b300c 	ldr	r3, [fp, #-12]
    eab0:	e5d33000 	ldrb	r3, [r3]
    eab4:	e2033002 	and	r3, r3, #2
    eab8:	e3530000 	cmp	r3, #0
    eabc:	0a000005 	beq	ead8 <parse_conversion+0x1a0>
    eac0:	e51b300c 	ldr	r3, [fp, #-12]
    eac4:	e5d33000 	ldrb	r3, [r3]
    eac8:	e3c33004 	bic	r3, r3, #4
    eacc:	e6ef2073 	uxtb	r2, r3
    ead0:	e51b300c 	ldr	r3, [fp, #-12]
    ead4:	e5c32000 	strb	r2, [r3]
    ead8:	e51b300c 	ldr	r3, [fp, #-12]
    eadc:	e3a02000 	mov	r2, #0
    eae0:	e5832004 	str	r2, [r3, #4]
    eae4:	e51b3008 	ldr	r3, [fp, #-8]
    eae8:	e5d33000 	ldrb	r3, [r3]
    eaec:	e353002a 	cmp	r3, #42	; 0x2a
    eaf0:	1a00000b 	bne	eb24 <parse_conversion+0x1ec>
    eaf4:	e51b3008 	ldr	r3, [fp, #-8]
    eaf8:	e2833001 	add	r3, r3, #1
    eafc:	e50b3008 	str	r3, [fp, #-8]
    eb00:	e51b3010 	ldr	r3, [fp, #-16]
    eb04:	e5933000 	ldr	r3, [r3]
    eb08:	e2831004 	add	r1, r3, #4
    eb0c:	e51b2010 	ldr	r2, [fp, #-16]
    eb10:	e5821000 	str	r1, [r2]
    eb14:	e5932000 	ldr	r2, [r3]
    eb18:	e51b300c 	ldr	r3, [fp, #-12]
    eb1c:	e5832004 	str	r2, [r3, #4]
    eb20:	ea000017 	b	eb84 <parse_conversion+0x24c>
    eb24:	ea00000f 	b	eb68 <parse_conversion+0x230>
    eb28:	e51b300c 	ldr	r3, [fp, #-12]
    eb2c:	e5932004 	ldr	r2, [r3, #4]
    eb30:	e1a03002 	mov	r3, r2
    eb34:	e1a03103 	lsl	r3, r3, #2
    eb38:	e0833002 	add	r3, r3, r2
    eb3c:	e1a03083 	lsl	r3, r3, #1
    eb40:	e1a02003 	mov	r2, r3
    eb44:	e51b3008 	ldr	r3, [fp, #-8]
    eb48:	e5d33000 	ldrb	r3, [r3]
    eb4c:	e0823003 	add	r3, r2, r3
    eb50:	e2432030 	sub	r2, r3, #48	; 0x30
    eb54:	e51b300c 	ldr	r3, [fp, #-12]
    eb58:	e5832004 	str	r2, [r3, #4]
    eb5c:	e51b3008 	ldr	r3, [fp, #-8]
    eb60:	e2833001 	add	r3, r3, #1
    eb64:	e50b3008 	str	r3, [fp, #-8]
    eb68:	e51b3008 	ldr	r3, [fp, #-8]
    eb6c:	e5d33000 	ldrb	r3, [r3]
    eb70:	e1a00003 	mov	r0, r3
    eb74:	ebfffd12 	bl	dfc4 <isdigit>
    eb78:	e1a03000 	mov	r3, r0
    eb7c:	e3530000 	cmp	r3, #0
    eb80:	1affffe8 	bne	eb28 <parse_conversion+0x1f0>
    eb84:	e51b300c 	ldr	r3, [fp, #-12]
    eb88:	e5933004 	ldr	r3, [r3, #4]
    eb8c:	e3530000 	cmp	r3, #0
    eb90:	aa00000a 	bge	ebc0 <parse_conversion+0x288>
    eb94:	e51b300c 	ldr	r3, [fp, #-12]
    eb98:	e5933004 	ldr	r3, [r3, #4]
    eb9c:	e2632000 	rsb	r2, r3, #0
    eba0:	e51b300c 	ldr	r3, [fp, #-12]
    eba4:	e5832004 	str	r2, [r3, #4]
    eba8:	e51b300c 	ldr	r3, [fp, #-12]
    ebac:	e5d33000 	ldrb	r3, [r3]
    ebb0:	e3833001 	orr	r3, r3, #1
    ebb4:	e6ef2073 	uxtb	r2, r3
    ebb8:	e51b300c 	ldr	r3, [fp, #-12]
    ebbc:	e5c32000 	strb	r2, [r3]
    ebc0:	e51b300c 	ldr	r3, [fp, #-12]
    ebc4:	e3e02000 	mvn	r2, #0
    ebc8:	e5832008 	str	r2, [r3, #8]
    ebcc:	e51b3008 	ldr	r3, [fp, #-8]
    ebd0:	e5d33000 	ldrb	r3, [r3]
    ebd4:	e353002e 	cmp	r3, #46	; 0x2e
    ebd8:	1a000034 	bne	ecb0 <parse_conversion+0x378>
    ebdc:	e51b3008 	ldr	r3, [fp, #-8]
    ebe0:	e2833001 	add	r3, r3, #1
    ebe4:	e50b3008 	str	r3, [fp, #-8]
    ebe8:	e51b3008 	ldr	r3, [fp, #-8]
    ebec:	e5d33000 	ldrb	r3, [r3]
    ebf0:	e353002a 	cmp	r3, #42	; 0x2a
    ebf4:	1a00000b 	bne	ec28 <parse_conversion+0x2f0>
    ebf8:	e51b3008 	ldr	r3, [fp, #-8]
    ebfc:	e2833001 	add	r3, r3, #1
    ec00:	e50b3008 	str	r3, [fp, #-8]
    ec04:	e51b3010 	ldr	r3, [fp, #-16]
    ec08:	e5933000 	ldr	r3, [r3]
    ec0c:	e2831004 	add	r1, r3, #4
    ec10:	e51b2010 	ldr	r2, [fp, #-16]
    ec14:	e5821000 	str	r1, [r2]
    ec18:	e5932000 	ldr	r2, [r3]
    ec1c:	e51b300c 	ldr	r3, [fp, #-12]
    ec20:	e5832008 	str	r2, [r3, #8]
    ec24:	ea00001a 	b	ec94 <parse_conversion+0x35c>
    ec28:	e51b300c 	ldr	r3, [fp, #-12]
    ec2c:	e3a02000 	mov	r2, #0
    ec30:	e5832008 	str	r2, [r3, #8]
    ec34:	ea00000f 	b	ec78 <parse_conversion+0x340>
    ec38:	e51b300c 	ldr	r3, [fp, #-12]
    ec3c:	e5932008 	ldr	r2, [r3, #8]
    ec40:	e1a03002 	mov	r3, r2
    ec44:	e1a03103 	lsl	r3, r3, #2
    ec48:	e0833002 	add	r3, r3, r2
    ec4c:	e1a03083 	lsl	r3, r3, #1
    ec50:	e1a02003 	mov	r2, r3
    ec54:	e51b3008 	ldr	r3, [fp, #-8]
    ec58:	e5d33000 	ldrb	r3, [r3]
    ec5c:	e0823003 	add	r3, r2, r3
    ec60:	e2432030 	sub	r2, r3, #48	; 0x30
    ec64:	e51b300c 	ldr	r3, [fp, #-12]
    ec68:	e5832008 	str	r2, [r3, #8]
    ec6c:	e51b3008 	ldr	r3, [fp, #-8]
    ec70:	e2833001 	add	r3, r3, #1
    ec74:	e50b3008 	str	r3, [fp, #-8]
    ec78:	e51b3008 	ldr	r3, [fp, #-8]
    ec7c:	e5d33000 	ldrb	r3, [r3]
    ec80:	e1a00003 	mov	r0, r3
    ec84:	ebfffcce 	bl	dfc4 <isdigit>
    ec88:	e1a03000 	mov	r3, r0
    ec8c:	e3530000 	cmp	r3, #0
    ec90:	1affffe8 	bne	ec38 <parse_conversion+0x300>
    ec94:	e51b300c 	ldr	r3, [fp, #-12]
    ec98:	e5933008 	ldr	r3, [r3, #8]
    ec9c:	e3530000 	cmp	r3, #0
    eca0:	aa000002 	bge	ecb0 <parse_conversion+0x378>
    eca4:	e51b300c 	ldr	r3, [fp, #-12]
    eca8:	e3e02000 	mvn	r2, #0
    ecac:	e5832008 	str	r2, [r3, #8]
    ecb0:	e51b300c 	ldr	r3, [fp, #-12]
    ecb4:	e5933008 	ldr	r3, [r3, #8]
    ecb8:	e3530000 	cmp	r3, #0
    ecbc:	ba000005 	blt	ecd8 <parse_conversion+0x3a0>
    ecc0:	e51b300c 	ldr	r3, [fp, #-12]
    ecc4:	e5d33000 	ldrb	r3, [r3]
    ecc8:	e3c33010 	bic	r3, r3, #16
    eccc:	e6ef2073 	uxtb	r2, r3
    ecd0:	e51b300c 	ldr	r3, [fp, #-12]
    ecd4:	e5c32000 	strb	r2, [r3]
    ecd8:	e51b300c 	ldr	r3, [fp, #-12]
    ecdc:	e3a02003 	mov	r2, #3
    ece0:	e5c3200c 	strb	r2, [r3, #12]
    ece4:	e51b3008 	ldr	r3, [fp, #-8]
    ece8:	e2832001 	add	r2, r3, #1
    ecec:	e50b2008 	str	r2, [fp, #-8]
    ecf0:	e5d33000 	ldrb	r3, [r3]
    ecf4:	e2433068 	sub	r3, r3, #104	; 0x68
    ecf8:	e3530012 	cmp	r3, #18
    ecfc:	979ff103 	ldrls	pc, [pc, r3, lsl #2]
    ed00:	ea00003c 	b	edf8 <parse_conversion+0x4c0>
    ed04:	0000ed50 	.word	0x0000ed50
    ed08:	0000edf8 	.word	0x0000edf8
    ed0c:	0000ed8c 	.word	0x0000ed8c
    ed10:	0000edf8 	.word	0x0000edf8
    ed14:	0000ed9c 	.word	0x0000ed9c
    ed18:	0000edf8 	.word	0x0000edf8
    ed1c:	0000edf8 	.word	0x0000edf8
    ed20:	0000edf8 	.word	0x0000edf8
    ed24:	0000edf8 	.word	0x0000edf8
    ed28:	0000edf8 	.word	0x0000edf8
    ed2c:	0000edf8 	.word	0x0000edf8
    ed30:	0000edf8 	.word	0x0000edf8
    ed34:	0000edd8 	.word	0x0000edd8
    ed38:	0000edf8 	.word	0x0000edf8
    ed3c:	0000edf8 	.word	0x0000edf8
    ed40:	0000edf8 	.word	0x0000edf8
    ed44:	0000edf8 	.word	0x0000edf8
    ed48:	0000edf8 	.word	0x0000edf8
    ed4c:	0000ede8 	.word	0x0000ede8
    ed50:	e51b3008 	ldr	r3, [fp, #-8]
    ed54:	e5d33000 	ldrb	r3, [r3]
    ed58:	e3530068 	cmp	r3, #104	; 0x68
    ed5c:	1a000006 	bne	ed7c <parse_conversion+0x444>
    ed60:	e51b3008 	ldr	r3, [fp, #-8]
    ed64:	e2833001 	add	r3, r3, #1
    ed68:	e50b3008 	str	r3, [fp, #-8]
    ed6c:	e51b300c 	ldr	r3, [fp, #-12]
    ed70:	e3a02001 	mov	r2, #1
    ed74:	e5c3200c 	strb	r2, [r3, #12]
    ed78:	ea000022 	b	ee08 <parse_conversion+0x4d0>
    ed7c:	e51b300c 	ldr	r3, [fp, #-12]
    ed80:	e3a02002 	mov	r2, #2
    ed84:	e5c3200c 	strb	r2, [r3, #12]
    ed88:	ea00001e 	b	ee08 <parse_conversion+0x4d0>
    ed8c:	e51b300c 	ldr	r3, [fp, #-12]
    ed90:	e3a02004 	mov	r2, #4
    ed94:	e5c3200c 	strb	r2, [r3, #12]
    ed98:	ea00001a 	b	ee08 <parse_conversion+0x4d0>
    ed9c:	e51b3008 	ldr	r3, [fp, #-8]
    eda0:	e5d33000 	ldrb	r3, [r3]
    eda4:	e353006c 	cmp	r3, #108	; 0x6c
    eda8:	1a000006 	bne	edc8 <parse_conversion+0x490>
    edac:	e51b3008 	ldr	r3, [fp, #-8]
    edb0:	e2833001 	add	r3, r3, #1
    edb4:	e50b3008 	str	r3, [fp, #-8]
    edb8:	e51b300c 	ldr	r3, [fp, #-12]
    edbc:	e3a02006 	mov	r2, #6
    edc0:	e5c3200c 	strb	r2, [r3, #12]
    edc4:	ea00000f 	b	ee08 <parse_conversion+0x4d0>
    edc8:	e51b300c 	ldr	r3, [fp, #-12]
    edcc:	e3a02005 	mov	r2, #5
    edd0:	e5c3200c 	strb	r2, [r3, #12]
    edd4:	ea00000b 	b	ee08 <parse_conversion+0x4d0>
    edd8:	e51b300c 	ldr	r3, [fp, #-12]
    eddc:	e3a02007 	mov	r2, #7
    ede0:	e5c3200c 	strb	r2, [r3, #12]
    ede4:	ea000007 	b	ee08 <parse_conversion+0x4d0>
    ede8:	e51b300c 	ldr	r3, [fp, #-12]
    edec:	e3a02008 	mov	r2, #8
    edf0:	e5c3200c 	strb	r2, [r3, #12]
    edf4:	ea000003 	b	ee08 <parse_conversion+0x4d0>
    edf8:	e51b3008 	ldr	r3, [fp, #-8]
    edfc:	e2433001 	sub	r3, r3, #1
    ee00:	e50b3008 	str	r3, [fp, #-8]
    ee04:	e1a00000 	nop			; (mov r0, r0)
    ee08:	e51b3008 	ldr	r3, [fp, #-8]
    ee0c:	e1a00003 	mov	r0, r3
    ee10:	e24bd004 	sub	sp, fp, #4
    ee14:	e8bd8800 	pop	{fp, pc}

0000ee18 <format_integer>:
    ee18:	e92d4830 	push	{r4, r5, fp, lr}
    ee1c:	e28db00c 	add	fp, sp, #12
    ee20:	e24dd068 	sub	sp, sp, #104	; 0x68
    ee24:	e14b06fc 	strd	r0, [fp, #-108]	; 0xffffff94
    ee28:	e54b206d 	strb	r2, [fp, #-109]	; 0x6d
    ee2c:	e54b306e 	strb	r3, [fp, #-110]	; 0x6e
    ee30:	e3a03000 	mov	r3, #0
    ee34:	e50b3014 	str	r3, [fp, #-20]
    ee38:	e55b306d 	ldrb	r3, [fp, #-109]	; 0x6d
    ee3c:	e3530000 	cmp	r3, #0
    ee40:	0a00001e 	beq	eec0 <format_integer+0xa8>
    ee44:	e59b3008 	ldr	r3, [fp, #8]
    ee48:	e5d33000 	ldrb	r3, [r3]
    ee4c:	e2033002 	and	r3, r3, #2
    ee50:	e3530000 	cmp	r3, #0
    ee54:	0a000007 	beq	ee78 <format_integer+0x60>
    ee58:	e55b306e 	ldrb	r3, [fp, #-110]	; 0x6e
    ee5c:	e3530000 	cmp	r3, #0
    ee60:	0a000001 	beq	ee6c <format_integer+0x54>
    ee64:	e3a0302d 	mov	r3, #45	; 0x2d
    ee68:	ea000000 	b	ee70 <format_integer+0x58>
    ee6c:	e3a0302b 	mov	r3, #43	; 0x2b
    ee70:	e50b3014 	str	r3, [fp, #-20]
    ee74:	ea000011 	b	eec0 <format_integer+0xa8>
    ee78:	e59b3008 	ldr	r3, [fp, #8]
    ee7c:	e5d33000 	ldrb	r3, [r3]
    ee80:	e2033004 	and	r3, r3, #4
    ee84:	e3530000 	cmp	r3, #0
    ee88:	0a000007 	beq	eeac <format_integer+0x94>
    ee8c:	e55b306e 	ldrb	r3, [fp, #-110]	; 0x6e
    ee90:	e3530000 	cmp	r3, #0
    ee94:	0a000001 	beq	eea0 <format_integer+0x88>
    ee98:	e3a0302d 	mov	r3, #45	; 0x2d
    ee9c:	ea000000 	b	eea4 <format_integer+0x8c>
    eea0:	e3a03020 	mov	r3, #32
    eea4:	e50b3014 	str	r3, [fp, #-20]
    eea8:	ea000004 	b	eec0 <format_integer+0xa8>
    eeac:	e55b306e 	ldrb	r3, [fp, #-110]	; 0x6e
    eeb0:	e3530000 	cmp	r3, #0
    eeb4:	0a000001 	beq	eec0 <format_integer+0xa8>
    eeb8:	e3a0302d 	mov	r3, #45	; 0x2d
    eebc:	e50b3014 	str	r3, [fp, #-20]
    eec0:	e59b3008 	ldr	r3, [fp, #8]
    eec4:	e5d33000 	ldrb	r3, [r3]
    eec8:	e2033008 	and	r3, r3, #8
    eecc:	e3530000 	cmp	r3, #0
    eed0:	0a000005 	beq	eeec <format_integer+0xd4>
    eed4:	e14b26dc 	ldrd	r2, [fp, #-108]	; 0xffffff94
    eed8:	e1921003 	orrs	r1, r2, r3
    eedc:	0a000002 	beq	eeec <format_integer+0xd4>
    eee0:	e59b3004 	ldr	r3, [fp, #4]
    eee4:	e5933008 	ldr	r3, [r3, #8]
    eee8:	ea000000 	b	eef0 <format_integer+0xd8>
    eeec:	e3a03000 	mov	r3, #0
    eef0:	e50b3020 	str	r3, [fp, #-32]
    eef4:	e24b3064 	sub	r3, fp, #100	; 0x64
    eef8:	e50b3010 	str	r3, [fp, #-16]
    eefc:	e3a03000 	mov	r3, #0
    ef00:	e50b301c 	str	r3, [fp, #-28]
    ef04:	ea000030 	b	efcc <format_integer+0x1b4>
    ef08:	e59b3008 	ldr	r3, [fp, #8]
    ef0c:	e5d33000 	ldrb	r3, [r3]
    ef10:	e2033020 	and	r3, r3, #32
    ef14:	e3530000 	cmp	r3, #0
    ef18:	0a000010 	beq	ef60 <format_integer+0x148>
    ef1c:	e51b301c 	ldr	r3, [fp, #-28]
    ef20:	e3530000 	cmp	r3, #0
    ef24:	da00000d 	ble	ef60 <format_integer+0x148>
    ef28:	e59b3004 	ldr	r3, [fp, #4]
    ef2c:	e593300c 	ldr	r3, [r3, #12]
    ef30:	e51b201c 	ldr	r2, [fp, #-28]
    ef34:	e1a00002 	mov	r0, r2
    ef38:	e1a01003 	mov	r1, r3
    ef3c:	eb001232 	bl	1380c <__aeabi_idivmod>
    ef40:	e1a03001 	mov	r3, r1
    ef44:	e3530000 	cmp	r3, #0
    ef48:	1a000004 	bne	ef60 <format_integer+0x148>
    ef4c:	e51b3010 	ldr	r3, [fp, #-16]
    ef50:	e2832001 	add	r2, r3, #1
    ef54:	e50b2010 	str	r2, [fp, #-16]
    ef58:	e3a0202c 	mov	r2, #44	; 0x2c
    ef5c:	e5c32000 	strb	r2, [r3]
    ef60:	e51b4010 	ldr	r4, [fp, #-16]
    ef64:	e2843001 	add	r3, r4, #1
    ef68:	e50b3010 	str	r3, [fp, #-16]
    ef6c:	e59b3004 	ldr	r3, [fp, #4]
    ef70:	e5935004 	ldr	r5, [r3, #4]
    ef74:	e59b3004 	ldr	r3, [fp, #4]
    ef78:	e5933000 	ldr	r3, [r3]
    ef7c:	e1a02003 	mov	r2, r3
    ef80:	e1a03fc2 	asr	r3, r2, #31
    ef84:	e14b06dc 	ldrd	r0, [fp, #-108]	; 0xffffff94
    ef88:	eb001228 	bl	13830 <__aeabi_uldivmod>
    ef8c:	e1a03002 	mov	r3, r2
    ef90:	e0853003 	add	r3, r5, r3
    ef94:	e5d33000 	ldrb	r3, [r3]
    ef98:	e5c43000 	strb	r3, [r4]
    ef9c:	e59b3004 	ldr	r3, [fp, #4]
    efa0:	e5933000 	ldr	r3, [r3]
    efa4:	e1a02003 	mov	r2, r3
    efa8:	e1a03fc2 	asr	r3, r2, #31
    efac:	e14b06dc 	ldrd	r0, [fp, #-108]	; 0xffffff94
    efb0:	eb00121e 	bl	13830 <__aeabi_uldivmod>
    efb4:	e1a02000 	mov	r2, r0
    efb8:	e1a03001 	mov	r3, r1
    efbc:	e14b26fc 	strd	r2, [fp, #-108]	; 0xffffff94
    efc0:	e51b301c 	ldr	r3, [fp, #-28]
    efc4:	e2833001 	add	r3, r3, #1
    efc8:	e50b301c 	str	r3, [fp, #-28]
    efcc:	e14b26dc 	ldrd	r2, [fp, #-108]	; 0xffffff94
    efd0:	e1921003 	orrs	r1, r2, r3
    efd4:	1affffcb 	bne	ef08 <format_integer+0xf0>
    efd8:	e59b3008 	ldr	r3, [fp, #8]
    efdc:	e5933008 	ldr	r3, [r3, #8]
    efe0:	e3530000 	cmp	r3, #0
    efe4:	ba000002 	blt	eff4 <format_integer+0x1dc>
    efe8:	e59b3008 	ldr	r3, [fp, #8]
    efec:	e5933008 	ldr	r3, [r3, #8]
    eff0:	ea000000 	b	eff8 <format_integer+0x1e0>
    eff4:	e3a03001 	mov	r3, #1
    eff8:	e50b3024 	str	r3, [fp, #-36]	; 0x24
    effc:	ea000004 	b	f014 <format_integer+0x1fc>
    f000:	e51b3010 	ldr	r3, [fp, #-16]
    f004:	e2832001 	add	r2, r3, #1
    f008:	e50b2010 	str	r2, [fp, #-16]
    f00c:	e3a02030 	mov	r2, #48	; 0x30
    f010:	e5c32000 	strb	r2, [r3]
    f014:	e51b2010 	ldr	r2, [fp, #-16]
    f018:	e24b3064 	sub	r3, fp, #100	; 0x64
    f01c:	e0632002 	rsb	r2, r3, r2
    f020:	e51b3024 	ldr	r3, [fp, #-36]	; 0x24
    f024:	e1520003 	cmp	r2, r3
    f028:	aa000004 	bge	f040 <format_integer+0x228>
    f02c:	e24b3064 	sub	r3, fp, #100	; 0x64
    f030:	e283303f 	add	r3, r3, #63	; 0x3f
    f034:	e51b2010 	ldr	r2, [fp, #-16]
    f038:	e1520003 	cmp	r2, r3
    f03c:	3affffef 	bcc	f000 <format_integer+0x1e8>
    f040:	e59b3008 	ldr	r3, [fp, #8]
    f044:	e5d33000 	ldrb	r3, [r3]
    f048:	e2033008 	and	r3, r3, #8
    f04c:	e3530000 	cmp	r3, #0
    f050:	0a000011 	beq	f09c <format_integer+0x284>
    f054:	e59b3004 	ldr	r3, [fp, #4]
    f058:	e5933000 	ldr	r3, [r3]
    f05c:	e3530008 	cmp	r3, #8
    f060:	1a00000d 	bne	f09c <format_integer+0x284>
    f064:	e24b3064 	sub	r3, fp, #100	; 0x64
    f068:	e51b2010 	ldr	r2, [fp, #-16]
    f06c:	e1520003 	cmp	r2, r3
    f070:	0a000004 	beq	f088 <format_integer+0x270>
    f074:	e51b3010 	ldr	r3, [fp, #-16]
    f078:	e2433001 	sub	r3, r3, #1
    f07c:	e5d33000 	ldrb	r3, [r3]
    f080:	e3530030 	cmp	r3, #48	; 0x30
    f084:	0a000004 	beq	f09c <format_integer+0x284>
    f088:	e51b3010 	ldr	r3, [fp, #-16]
    f08c:	e2832001 	add	r2, r3, #1
    f090:	e50b2010 	str	r2, [fp, #-16]
    f094:	e3a02030 	mov	r2, #48	; 0x30
    f098:	e5c32000 	strb	r2, [r3]
    f09c:	e59b3008 	ldr	r3, [fp, #8]
    f0a0:	e5932004 	ldr	r2, [r3, #4]
    f0a4:	e24b1064 	sub	r1, fp, #100	; 0x64
    f0a8:	e51b3010 	ldr	r3, [fp, #-16]
    f0ac:	e0633001 	rsb	r3, r3, r1
    f0b0:	e0822003 	add	r2, r2, r3
    f0b4:	e51b3020 	ldr	r3, [fp, #-32]
    f0b8:	e3530000 	cmp	r3, #0
    f0bc:	0a000001 	beq	f0c8 <format_integer+0x2b0>
    f0c0:	e3a03002 	mov	r3, #2
    f0c4:	ea000000 	b	f0cc <format_integer+0x2b4>
    f0c8:	e3a03000 	mov	r3, #0
    f0cc:	e0632002 	rsb	r2, r3, r2
    f0d0:	e51b3014 	ldr	r3, [fp, #-20]
    f0d4:	e3530000 	cmp	r3, #0
    f0d8:	03a03000 	moveq	r3, #0
    f0dc:	13a03001 	movne	r3, #1
    f0e0:	e6ef3073 	uxtb	r3, r3
    f0e4:	e0633002 	rsb	r3, r3, r2
    f0e8:	e50b3018 	str	r3, [fp, #-24]
    f0ec:	e51b3018 	ldr	r3, [fp, #-24]
    f0f0:	e3530000 	cmp	r3, #0
    f0f4:	aa000001 	bge	f100 <format_integer+0x2e8>
    f0f8:	e3a03000 	mov	r3, #0
    f0fc:	e50b3018 	str	r3, [fp, #-24]
    f100:	e59b3008 	ldr	r3, [fp, #8]
    f104:	e5d33000 	ldrb	r3, [r3]
    f108:	e2033011 	and	r3, r3, #17
    f10c:	e3530000 	cmp	r3, #0
    f110:	1a000005 	bne	f12c <format_integer+0x314>
    f114:	e51b3018 	ldr	r3, [fp, #-24]
    f118:	e3a00020 	mov	r0, #32
    f11c:	e1a01003 	mov	r1, r3
    f120:	e59b200c 	ldr	r2, [fp, #12]
    f124:	e59b3010 	ldr	r3, [fp, #16]
    f128:	eb00003c 	bl	f220 <output_dup>
    f12c:	e51b3014 	ldr	r3, [fp, #-20]
    f130:	e3530000 	cmp	r3, #0
    f134:	0a000005 	beq	f150 <format_integer+0x338>
    f138:	e51b3014 	ldr	r3, [fp, #-20]
    f13c:	e6ef2073 	uxtb	r2, r3
    f140:	e59b300c 	ldr	r3, [fp, #12]
    f144:	e1a00002 	mov	r0, r2
    f148:	e59b1010 	ldr	r1, [fp, #16]
    f14c:	e12fff33 	blx	r3
    f150:	e51b3020 	ldr	r3, [fp, #-32]
    f154:	e3530000 	cmp	r3, #0
    f158:	0a000009 	beq	f184 <format_integer+0x36c>
    f15c:	e59b300c 	ldr	r3, [fp, #12]
    f160:	e3a00030 	mov	r0, #48	; 0x30
    f164:	e59b1010 	ldr	r1, [fp, #16]
    f168:	e12fff33 	blx	r3
    f16c:	e51b3020 	ldr	r3, [fp, #-32]
    f170:	e6ef2073 	uxtb	r2, r3
    f174:	e59b300c 	ldr	r3, [fp, #12]
    f178:	e1a00002 	mov	r0, r2
    f17c:	e59b1010 	ldr	r1, [fp, #16]
    f180:	e12fff33 	blx	r3
    f184:	e59b3008 	ldr	r3, [fp, #8]
    f188:	e5d33000 	ldrb	r3, [r3]
    f18c:	e2033010 	and	r3, r3, #16
    f190:	e3530000 	cmp	r3, #0
    f194:	0a000006 	beq	f1b4 <format_integer+0x39c>
    f198:	e51b3018 	ldr	r3, [fp, #-24]
    f19c:	e3a00030 	mov	r0, #48	; 0x30
    f1a0:	e1a01003 	mov	r1, r3
    f1a4:	e59b200c 	ldr	r2, [fp, #12]
    f1a8:	e59b3010 	ldr	r3, [fp, #16]
    f1ac:	eb00001b 	bl	f220 <output_dup>
    f1b0:	ea000009 	b	f1dc <format_integer+0x3c4>
    f1b4:	ea000008 	b	f1dc <format_integer+0x3c4>
    f1b8:	e51b3010 	ldr	r3, [fp, #-16]
    f1bc:	e2433001 	sub	r3, r3, #1
    f1c0:	e50b3010 	str	r3, [fp, #-16]
    f1c4:	e51b3010 	ldr	r3, [fp, #-16]
    f1c8:	e5d32000 	ldrb	r2, [r3]
    f1cc:	e59b300c 	ldr	r3, [fp, #12]
    f1d0:	e1a00002 	mov	r0, r2
    f1d4:	e59b1010 	ldr	r1, [fp, #16]
    f1d8:	e12fff33 	blx	r3
    f1dc:	e24b3064 	sub	r3, fp, #100	; 0x64
    f1e0:	e51b2010 	ldr	r2, [fp, #-16]
    f1e4:	e1520003 	cmp	r2, r3
    f1e8:	8afffff2 	bhi	f1b8 <format_integer+0x3a0>
    f1ec:	e59b3008 	ldr	r3, [fp, #8]
    f1f0:	e5d33000 	ldrb	r3, [r3]
    f1f4:	e2033001 	and	r3, r3, #1
    f1f8:	e3530000 	cmp	r3, #0
    f1fc:	0a000005 	beq	f218 <format_integer+0x400>
    f200:	e51b3018 	ldr	r3, [fp, #-24]
    f204:	e3a00020 	mov	r0, #32
    f208:	e1a01003 	mov	r1, r3
    f20c:	e59b200c 	ldr	r2, [fp, #12]
    f210:	e59b3010 	ldr	r3, [fp, #16]
    f214:	eb000001 	bl	f220 <output_dup>
    f218:	e24bd00c 	sub	sp, fp, #12
    f21c:	e8bd8830 	pop	{r4, r5, fp, pc}

0000f220 <output_dup>:
    f220:	e92d4800 	push	{fp, lr}
    f224:	e28db004 	add	fp, sp, #4
    f228:	e24dd010 	sub	sp, sp, #16
    f22c:	e50b100c 	str	r1, [fp, #-12]
    f230:	e50b2010 	str	r2, [fp, #-16]
    f234:	e50b3014 	str	r3, [fp, #-20]
    f238:	e1a03000 	mov	r3, r0
    f23c:	e54b3005 	strb	r3, [fp, #-5]
    f240:	ea000004 	b	f258 <output_dup+0x38>
    f244:	e55b2005 	ldrb	r2, [fp, #-5]
    f248:	e51b3010 	ldr	r3, [fp, #-16]
    f24c:	e1a00002 	mov	r0, r2
    f250:	e51b1014 	ldr	r1, [fp, #-20]
    f254:	e12fff33 	blx	r3
    f258:	e51b300c 	ldr	r3, [fp, #-12]
    f25c:	e2432001 	sub	r2, r3, #1
    f260:	e50b200c 	str	r2, [fp, #-12]
    f264:	e3530000 	cmp	r3, #0
    f268:	1afffff5 	bne	f244 <output_dup+0x24>
    f26c:	e24bd004 	sub	sp, fp, #4
    f270:	e8bd8800 	pop	{fp, pc}

0000f274 <format_string>:
    f274:	e92d4800 	push	{fp, lr}
    f278:	e28db004 	add	fp, sp, #4
    f27c:	e24dd018 	sub	sp, sp, #24
    f280:	e50b0010 	str	r0, [fp, #-16]
    f284:	e50b1014 	str	r1, [fp, #-20]
    f288:	e50b2018 	str	r2, [fp, #-24]
    f28c:	e50b301c 	str	r3, [fp, #-28]
    f290:	e51b3018 	ldr	r3, [fp, #-24]
    f294:	e5932004 	ldr	r2, [r3, #4]
    f298:	e51b3014 	ldr	r3, [fp, #-20]
    f29c:	e1520003 	cmp	r2, r3
    f2a0:	da00000d 	ble	f2dc <format_string+0x68>
    f2a4:	e51b3018 	ldr	r3, [fp, #-24]
    f2a8:	e5d33000 	ldrb	r3, [r3]
    f2ac:	e2033001 	and	r3, r3, #1
    f2b0:	e3530000 	cmp	r3, #0
    f2b4:	1a000008 	bne	f2dc <format_string+0x68>
    f2b8:	e51b3018 	ldr	r3, [fp, #-24]
    f2bc:	e5932004 	ldr	r2, [r3, #4]
    f2c0:	e51b3014 	ldr	r3, [fp, #-20]
    f2c4:	e0633002 	rsb	r3, r3, r2
    f2c8:	e3a00020 	mov	r0, #32
    f2cc:	e1a01003 	mov	r1, r3
    f2d0:	e51b201c 	ldr	r2, [fp, #-28]
    f2d4:	e59b3004 	ldr	r3, [fp, #4]
    f2d8:	ebffffd0 	bl	f220 <output_dup>
    f2dc:	e3a03000 	mov	r3, #0
    f2e0:	e50b3008 	str	r3, [fp, #-8]
    f2e4:	ea00000a 	b	f314 <format_string+0xa0>
    f2e8:	e51b3008 	ldr	r3, [fp, #-8]
    f2ec:	e51b2010 	ldr	r2, [fp, #-16]
    f2f0:	e0823003 	add	r3, r2, r3
    f2f4:	e5d32000 	ldrb	r2, [r3]
    f2f8:	e51b301c 	ldr	r3, [fp, #-28]
    f2fc:	e1a00002 	mov	r0, r2
    f300:	e59b1004 	ldr	r1, [fp, #4]
    f304:	e12fff33 	blx	r3
    f308:	e51b3008 	ldr	r3, [fp, #-8]
    f30c:	e2833001 	add	r3, r3, #1
    f310:	e50b3008 	str	r3, [fp, #-8]
    f314:	e51b2008 	ldr	r2, [fp, #-8]
    f318:	e51b3014 	ldr	r3, [fp, #-20]
    f31c:	e1520003 	cmp	r2, r3
    f320:	bafffff0 	blt	f2e8 <format_string+0x74>
    f324:	e51b3018 	ldr	r3, [fp, #-24]
    f328:	e5932004 	ldr	r2, [r3, #4]
    f32c:	e51b3014 	ldr	r3, [fp, #-20]
    f330:	e1520003 	cmp	r2, r3
    f334:	da00000d 	ble	f370 <format_string+0xfc>
    f338:	e51b3018 	ldr	r3, [fp, #-24]
    f33c:	e5d33000 	ldrb	r3, [r3]
    f340:	e2033001 	and	r3, r3, #1
    f344:	e3530000 	cmp	r3, #0
    f348:	0a000008 	beq	f370 <format_string+0xfc>
    f34c:	e51b3018 	ldr	r3, [fp, #-24]
    f350:	e5932004 	ldr	r2, [r3, #4]
    f354:	e51b3014 	ldr	r3, [fp, #-20]
    f358:	e0633002 	rsb	r3, r3, r2
    f35c:	e3a00020 	mov	r0, #32
    f360:	e1a01003 	mov	r1, r3
    f364:	e51b201c 	ldr	r2, [fp, #-28]
    f368:	e59b3004 	ldr	r3, [fp, #4]
    f36c:	ebffffab 	bl	f220 <output_dup>
    f370:	e24bd004 	sub	sp, fp, #4
    f374:	e8bd8800 	pop	{fp, pc}

0000f378 <__printf>:
    f378:	e92d000c 	push	{r2, r3}
    f37c:	e92d4800 	push	{fp, lr}
    f380:	e28db004 	add	fp, sp, #4
    f384:	e24dd010 	sub	sp, sp, #16
    f388:	e50b0010 	str	r0, [fp, #-16]
    f38c:	e50b1014 	str	r1, [fp, #-20]
    f390:	e28b3008 	add	r3, fp, #8
    f394:	e50b3008 	str	r3, [fp, #-8]
    f398:	e51b0010 	ldr	r0, [fp, #-16]
    f39c:	e51b1008 	ldr	r1, [fp, #-8]
    f3a0:	e51b2014 	ldr	r2, [fp, #-20]
    f3a4:	e59b3004 	ldr	r3, [fp, #4]
    f3a8:	ebfffb89 	bl	e1d4 <__vprintf>
    f3ac:	e24bd004 	sub	sp, fp, #4
    f3b0:	e8bd4800 	pop	{fp, lr}
    f3b4:	e28dd008 	add	sp, sp, #8
    f3b8:	e12fff1e 	bx	lr

0000f3bc <hex_dump>:
    f3bc:	e92d4800 	push	{fp, lr}
    f3c0:	e28db004 	add	fp, sp, #4
    f3c4:	e24dd028 	sub	sp, sp, #40	; 0x28
    f3c8:	e50b0020 	str	r0, [fp, #-32]
    f3cc:	e50b1024 	str	r1, [fp, #-36]	; 0x24
    f3d0:	e50b2028 	str	r2, [fp, #-40]	; 0x28
    f3d4:	e54b3029 	strb	r3, [fp, #-41]	; 0x29
    f3d8:	e51b3024 	ldr	r3, [fp, #-36]	; 0x24
    f3dc:	e50b3008 	str	r3, [fp, #-8]
    f3e0:	e3a03010 	mov	r3, #16
    f3e4:	e50b3014 	str	r3, [fp, #-20]
    f3e8:	ea000099 	b	f654 <hex_dump+0x298>
    f3ec:	e51b3020 	ldr	r3, [fp, #-32]
    f3f0:	e1a00003 	mov	r0, r3
    f3f4:	e51b1014 	ldr	r1, [fp, #-20]
    f3f8:	eb0010b1 	bl	136c4 <__aeabi_uidivmod>
    f3fc:	e1a03001 	mov	r3, r1
    f400:	e50b3018 	str	r3, [fp, #-24]
    f404:	e51b3014 	ldr	r3, [fp, #-20]
    f408:	e50b300c 	str	r3, [fp, #-12]
    f40c:	e51b200c 	ldr	r2, [fp, #-12]
    f410:	e51b3018 	ldr	r3, [fp, #-24]
    f414:	e0632002 	rsb	r2, r3, r2
    f418:	e51b3028 	ldr	r3, [fp, #-40]	; 0x28
    f41c:	e1520003 	cmp	r2, r3
    f420:	9a000003 	bls	f434 <hex_dump+0x78>
    f424:	e51b2018 	ldr	r2, [fp, #-24]
    f428:	e51b3028 	ldr	r3, [fp, #-40]	; 0x28
    f42c:	e0823003 	add	r3, r2, r3
    f430:	e50b300c 	str	r3, [fp, #-12]
    f434:	e51b200c 	ldr	r2, [fp, #-12]
    f438:	e51b3018 	ldr	r3, [fp, #-24]
    f43c:	e0633002 	rsb	r3, r3, r2
    f440:	e50b301c 	str	r3, [fp, #-28]
    f444:	e51b0020 	ldr	r0, [fp, #-32]
    f448:	e51b1014 	ldr	r1, [fp, #-20]
    f44c:	eb00105f 	bl	135d0 <__aeabi_uidiv>
    f450:	e1a03000 	mov	r3, r0
    f454:	e51b2014 	ldr	r2, [fp, #-20]
    f458:	e0030392 	mul	r3, r2, r3
    f45c:	e1a02003 	mov	r2, r3
    f460:	e3a03000 	mov	r3, #0
    f464:	e59f01fc 	ldr	r0, [pc, #508]	; f668 <hex_dump+0x2ac>
    f468:	ebfffb49 	bl	e194 <printf>
    f46c:	e3a03000 	mov	r3, #0
    f470:	e50b3010 	str	r3, [fp, #-16]
    f474:	ea000004 	b	f48c <hex_dump+0xd0>
    f478:	e59f01ec 	ldr	r0, [pc, #492]	; f66c <hex_dump+0x2b0>
    f47c:	ebfffb44 	bl	e194 <printf>
    f480:	e51b3010 	ldr	r3, [fp, #-16]
    f484:	e2833001 	add	r3, r3, #1
    f488:	e50b3010 	str	r3, [fp, #-16]
    f48c:	e51b2010 	ldr	r2, [fp, #-16]
    f490:	e51b3018 	ldr	r3, [fp, #-24]
    f494:	e1520003 	cmp	r2, r3
    f498:	3afffff6 	bcc	f478 <hex_dump+0xbc>
    f49c:	ea000016 	b	f4fc <hex_dump+0x140>
    f4a0:	e51b2010 	ldr	r2, [fp, #-16]
    f4a4:	e51b3018 	ldr	r3, [fp, #-24]
    f4a8:	e0633002 	rsb	r3, r3, r2
    f4ac:	e51b2008 	ldr	r2, [fp, #-8]
    f4b0:	e0823003 	add	r3, r2, r3
    f4b4:	e5d33000 	ldrb	r3, [r3]
    f4b8:	e1a02003 	mov	r2, r3
    f4bc:	e51b3014 	ldr	r3, [fp, #-20]
    f4c0:	e1a030a3 	lsr	r3, r3, #1
    f4c4:	e2431001 	sub	r1, r3, #1
    f4c8:	e51b3010 	ldr	r3, [fp, #-16]
    f4cc:	e1510003 	cmp	r1, r3
    f4d0:	1a000001 	bne	f4dc <hex_dump+0x120>
    f4d4:	e3a0302d 	mov	r3, #45	; 0x2d
    f4d8:	ea000000 	b	f4e0 <hex_dump+0x124>
    f4dc:	e3a03020 	mov	r3, #32
    f4e0:	e59f0188 	ldr	r0, [pc, #392]	; f670 <hex_dump+0x2b4>
    f4e4:	e1a01002 	mov	r1, r2
    f4e8:	e1a02003 	mov	r2, r3
    f4ec:	ebfffb28 	bl	e194 <printf>
    f4f0:	e51b3010 	ldr	r3, [fp, #-16]
    f4f4:	e2833001 	add	r3, r3, #1
    f4f8:	e50b3010 	str	r3, [fp, #-16]
    f4fc:	e51b2010 	ldr	r2, [fp, #-16]
    f500:	e51b300c 	ldr	r3, [fp, #-12]
    f504:	e1520003 	cmp	r2, r3
    f508:	3affffe4 	bcc	f4a0 <hex_dump+0xe4>
    f50c:	e55b3029 	ldrb	r3, [fp, #-41]	; 0x29
    f510:	e3530000 	cmp	r3, #0
    f514:	0a000040 	beq	f61c <hex_dump+0x260>
    f518:	ea000004 	b	f530 <hex_dump+0x174>
    f51c:	e59f0148 	ldr	r0, [pc, #328]	; f66c <hex_dump+0x2b0>
    f520:	ebfffb1b 	bl	e194 <printf>
    f524:	e51b3010 	ldr	r3, [fp, #-16]
    f528:	e2833001 	add	r3, r3, #1
    f52c:	e50b3010 	str	r3, [fp, #-16]
    f530:	e51b2010 	ldr	r2, [fp, #-16]
    f534:	e51b3014 	ldr	r3, [fp, #-20]
    f538:	e1520003 	cmp	r2, r3
    f53c:	3afffff6 	bcc	f51c <hex_dump+0x160>
    f540:	e3a0007c 	mov	r0, #124	; 0x7c
    f544:	ebffe750 	bl	928c <putchar>
    f548:	e3a03000 	mov	r3, #0
    f54c:	e50b3010 	str	r3, [fp, #-16]
    f550:	ea000004 	b	f568 <hex_dump+0x1ac>
    f554:	e3a00020 	mov	r0, #32
    f558:	ebffe74b 	bl	928c <putchar>
    f55c:	e51b3010 	ldr	r3, [fp, #-16]
    f560:	e2833001 	add	r3, r3, #1
    f564:	e50b3010 	str	r3, [fp, #-16]
    f568:	e51b2010 	ldr	r2, [fp, #-16]
    f56c:	e51b3018 	ldr	r3, [fp, #-24]
    f570:	e1520003 	cmp	r2, r3
    f574:	3afffff6 	bcc	f554 <hex_dump+0x198>
    f578:	ea000017 	b	f5dc <hex_dump+0x220>
    f57c:	e51b2010 	ldr	r2, [fp, #-16]
    f580:	e51b3018 	ldr	r3, [fp, #-24]
    f584:	e0633002 	rsb	r3, r3, r2
    f588:	e51b2008 	ldr	r2, [fp, #-8]
    f58c:	e0823003 	add	r3, r2, r3
    f590:	e5d33000 	ldrb	r3, [r3]
    f594:	e1a00003 	mov	r0, r3
    f598:	ebfffa9a 	bl	e008 <isprint>
    f59c:	e1a03000 	mov	r3, r0
    f5a0:	e3530000 	cmp	r3, #0
    f5a4:	0a000006 	beq	f5c4 <hex_dump+0x208>
    f5a8:	e51b2010 	ldr	r2, [fp, #-16]
    f5ac:	e51b3018 	ldr	r3, [fp, #-24]
    f5b0:	e0633002 	rsb	r3, r3, r2
    f5b4:	e51b2008 	ldr	r2, [fp, #-8]
    f5b8:	e0823003 	add	r3, r2, r3
    f5bc:	e5d33000 	ldrb	r3, [r3]
    f5c0:	ea000000 	b	f5c8 <hex_dump+0x20c>
    f5c4:	e3a0302e 	mov	r3, #46	; 0x2e
    f5c8:	e1a00003 	mov	r0, r3
    f5cc:	ebffe72e 	bl	928c <putchar>
    f5d0:	e51b3010 	ldr	r3, [fp, #-16]
    f5d4:	e2833001 	add	r3, r3, #1
    f5d8:	e50b3010 	str	r3, [fp, #-16]
    f5dc:	e51b2010 	ldr	r2, [fp, #-16]
    f5e0:	e51b300c 	ldr	r3, [fp, #-12]
    f5e4:	e1520003 	cmp	r2, r3
    f5e8:	3affffe3 	bcc	f57c <hex_dump+0x1c0>
    f5ec:	ea000004 	b	f604 <hex_dump+0x248>
    f5f0:	e3a00020 	mov	r0, #32
    f5f4:	ebffe724 	bl	928c <putchar>
    f5f8:	e51b3010 	ldr	r3, [fp, #-16]
    f5fc:	e2833001 	add	r3, r3, #1
    f600:	e50b3010 	str	r3, [fp, #-16]
    f604:	e51b2010 	ldr	r2, [fp, #-16]
    f608:	e51b3014 	ldr	r3, [fp, #-20]
    f60c:	e1520003 	cmp	r2, r3
    f610:	3afffff6 	bcc	f5f0 <hex_dump+0x234>
    f614:	e3a0007c 	mov	r0, #124	; 0x7c
    f618:	ebffe71b 	bl	928c <putchar>
    f61c:	e3a0000a 	mov	r0, #10
    f620:	ebffe719 	bl	928c <putchar>
    f624:	e51b2020 	ldr	r2, [fp, #-32]
    f628:	e51b301c 	ldr	r3, [fp, #-28]
    f62c:	e0823003 	add	r3, r2, r3
    f630:	e50b3020 	str	r3, [fp, #-32]
    f634:	e51b2008 	ldr	r2, [fp, #-8]
    f638:	e51b301c 	ldr	r3, [fp, #-28]
    f63c:	e0823003 	add	r3, r2, r3
    f640:	e50b3008 	str	r3, [fp, #-8]
    f644:	e51b2028 	ldr	r2, [fp, #-40]	; 0x28
    f648:	e51b301c 	ldr	r3, [fp, #-28]
    f64c:	e0633002 	rsb	r3, r3, r2
    f650:	e50b3028 	str	r3, [fp, #-40]	; 0x28
    f654:	e51b3028 	ldr	r3, [fp, #-40]	; 0x28
    f658:	e3530000 	cmp	r3, #0
    f65c:	1affff62 	bne	f3ec <hex_dump+0x30>
    f660:	e24bd004 	sub	sp, fp, #4
    f664:	e8bd8800 	pop	{fp, pc}
    f668:	00016414 	.word	0x00016414
    f66c:	0001641c 	.word	0x0001641c
    f670:	00016420 	.word	0x00016420

0000f674 <print_human_readable_size>:
    f674:	e92d4830 	push	{r4, r5, fp, lr}
    f678:	e28db00c 	add	fp, sp, #12
    f67c:	e24dd018 	sub	sp, sp, #24
    f680:	e14b01fc 	strd	r0, [fp, #-28]	; 0xffffffe4
    f684:	e14b01dc 	ldrd	r0, [fp, #-28]	; 0xffffffe4
    f688:	e3510000 	cmp	r1, #0
    f68c:	03500001 	cmpeq	r0, #1
    f690:	1a000002 	bne	f6a0 <print_human_readable_size+0x2c>
    f694:	e59f007c 	ldr	r0, [pc, #124]	; f718 <print_human_readable_size+0xa4>
    f698:	ebfffabd 	bl	e194 <printf>
    f69c:	ea00001b 	b	f710 <print_human_readable_size+0x9c>
    f6a0:	e59f1074 	ldr	r1, [pc, #116]	; f71c <print_human_readable_size+0xa8>
    f6a4:	e50b1010 	str	r1, [fp, #-16]
    f6a8:	ea000007 	b	f6cc <print_human_readable_size+0x58>
    f6ac:	e14b01dc 	ldrd	r0, [fp, #-28]	; 0xffffffe4
    f6b0:	e1a02520 	lsr	r2, r0, #10
    f6b4:	e1822b01 	orr	r2, r2, r1, lsl #22
    f6b8:	e1a03521 	lsr	r3, r1, #10
    f6bc:	e14b21fc 	strd	r2, [fp, #-28]	; 0xffffffe4
    f6c0:	e51b1010 	ldr	r1, [fp, #-16]
    f6c4:	e2811004 	add	r1, r1, #4
    f6c8:	e50b1010 	str	r1, [fp, #-16]
    f6cc:	e14b41dc 	ldrd	r4, [fp, #-28]	; 0xffffffe4
    f6d0:	e59f0048 	ldr	r0, [pc, #72]	; f720 <print_human_readable_size+0xac>
    f6d4:	e3a01000 	mov	r1, #0
    f6d8:	e1550001 	cmp	r5, r1
    f6dc:	01540000 	cmpeq	r4, r0
    f6e0:	9a000004 	bls	f6f8 <print_human_readable_size+0x84>
    f6e4:	e51b1010 	ldr	r1, [fp, #-16]
    f6e8:	e2811004 	add	r1, r1, #4
    f6ec:	e5911000 	ldr	r1, [r1]
    f6f0:	e3510000 	cmp	r1, #0
    f6f4:	1affffec 	bne	f6ac <print_human_readable_size+0x38>
    f6f8:	e51b3010 	ldr	r3, [fp, #-16]
    f6fc:	e5933000 	ldr	r3, [r3]
    f700:	e58d3000 	str	r3, [sp]
    f704:	e59f0018 	ldr	r0, [pc, #24]	; f724 <print_human_readable_size+0xb0>
    f708:	e14b21dc 	ldrd	r2, [fp, #-28]	; 0xffffffe4
    f70c:	ebfffaa0 	bl	e194 <printf>
    f710:	e24bd00c 	sub	sp, fp, #12
    f714:	e8bd8830 	pop	{r4, r5, fp, pc}
    f718:	0001642c 	.word	0x0001642c
    f71c:	00019044 	.word	0x00019044
    f720:	000003ff 	.word	0x000003ff
    f724:	00016434 	.word	0x00016434

0000f728 <isdigit>:
    f728:	e52db004 	push	{fp}		; (str fp, [sp, #-4]!)
    f72c:	e28db000 	add	fp, sp, #0
    f730:	e24dd00c 	sub	sp, sp, #12
    f734:	e50b0008 	str	r0, [fp, #-8]
    f738:	e51b3008 	ldr	r3, [fp, #-8]
    f73c:	e353002f 	cmp	r3, #47	; 0x2f
    f740:	da000004 	ble	f758 <isdigit+0x30>
    f744:	e51b3008 	ldr	r3, [fp, #-8]
    f748:	e3530039 	cmp	r3, #57	; 0x39
    f74c:	ca000001 	bgt	f758 <isdigit+0x30>
    f750:	e3a03001 	mov	r3, #1
    f754:	ea000000 	b	f75c <isdigit+0x34>
    f758:	e3a03000 	mov	r3, #0
    f75c:	e1a00003 	mov	r0, r3
    f760:	e24bd000 	sub	sp, fp, #0
    f764:	e49db004 	pop	{fp}		; (ldr fp, [sp], #4)
    f768:	e12fff1e 	bx	lr

0000f76c <isspace>:
    f76c:	e52db004 	push	{fp}		; (str fp, [sp, #-4]!)
    f770:	e28db000 	add	fp, sp, #0
    f774:	e24dd00c 	sub	sp, sp, #12
    f778:	e50b0008 	str	r0, [fp, #-8]
    f77c:	e51b3008 	ldr	r3, [fp, #-8]
    f780:	e3530020 	cmp	r3, #32
    f784:	0a00000e 	beq	f7c4 <isspace+0x58>
    f788:	e51b3008 	ldr	r3, [fp, #-8]
    f78c:	e353000c 	cmp	r3, #12
    f790:	0a00000b 	beq	f7c4 <isspace+0x58>
    f794:	e51b3008 	ldr	r3, [fp, #-8]
    f798:	e353000a 	cmp	r3, #10
    f79c:	0a000008 	beq	f7c4 <isspace+0x58>
    f7a0:	e51b3008 	ldr	r3, [fp, #-8]
    f7a4:	e353000d 	cmp	r3, #13
    f7a8:	0a000005 	beq	f7c4 <isspace+0x58>
    f7ac:	e51b3008 	ldr	r3, [fp, #-8]
    f7b0:	e3530009 	cmp	r3, #9
    f7b4:	0a000002 	beq	f7c4 <isspace+0x58>
    f7b8:	e51b3008 	ldr	r3, [fp, #-8]
    f7bc:	e353000b 	cmp	r3, #11
    f7c0:	1a000001 	bne	f7cc <isspace+0x60>
    f7c4:	e3a03001 	mov	r3, #1
    f7c8:	ea000000 	b	f7d0 <isspace+0x64>
    f7cc:	e3a03000 	mov	r3, #0
    f7d0:	e1a00003 	mov	r0, r3
    f7d4:	e24bd000 	sub	sp, fp, #0
    f7d8:	e49db004 	pop	{fp}		; (ldr fp, [sp], #4)
    f7dc:	e12fff1e 	bx	lr

0000f7e0 <atoi>:
    f7e0:	e92d4800 	push	{fp, lr}
    f7e4:	e28db004 	add	fp, sp, #4
    f7e8:	e24dd010 	sub	sp, sp, #16
    f7ec:	e50b0010 	str	r0, [fp, #-16]
    f7f0:	e51b3010 	ldr	r3, [fp, #-16]
    f7f4:	e3530000 	cmp	r3, #0
    f7f8:	1a000004 	bne	f810 <atoi+0x30>
    f7fc:	e59f0114 	ldr	r0, [pc, #276]	; f918 <atoi+0x138>
    f800:	e3a0100f 	mov	r1, #15
    f804:	e59f2110 	ldr	r2, [pc, #272]	; f91c <atoi+0x13c>
    f808:	e59f3110 	ldr	r3, [pc, #272]	; f920 <atoi+0x140>
    f80c:	ebffe6de 	bl	938c <debug_panic>
    f810:	ea000002 	b	f820 <atoi+0x40>
    f814:	e51b3010 	ldr	r3, [fp, #-16]
    f818:	e2833001 	add	r3, r3, #1
    f81c:	e50b3010 	str	r3, [fp, #-16]
    f820:	e51b3010 	ldr	r3, [fp, #-16]
    f824:	e5d33000 	ldrb	r3, [r3]
    f828:	e1a00003 	mov	r0, r3
    f82c:	ebffffce 	bl	f76c <isspace>
    f830:	e1a03000 	mov	r3, r0
    f834:	e3530000 	cmp	r3, #0
    f838:	1afffff5 	bne	f814 <atoi+0x34>
    f83c:	e3a03000 	mov	r3, #0
    f840:	e54b3005 	strb	r3, [fp, #-5]
    f844:	e51b3010 	ldr	r3, [fp, #-16]
    f848:	e5d33000 	ldrb	r3, [r3]
    f84c:	e353002b 	cmp	r3, #43	; 0x2b
    f850:	1a000003 	bne	f864 <atoi+0x84>
    f854:	e51b3010 	ldr	r3, [fp, #-16]
    f858:	e2833001 	add	r3, r3, #1
    f85c:	e50b3010 	str	r3, [fp, #-16]
    f860:	ea000008 	b	f888 <atoi+0xa8>
    f864:	e51b3010 	ldr	r3, [fp, #-16]
    f868:	e5d33000 	ldrb	r3, [r3]
    f86c:	e353002d 	cmp	r3, #45	; 0x2d
    f870:	1a000004 	bne	f888 <atoi+0xa8>
    f874:	e3a03001 	mov	r3, #1
    f878:	e54b3005 	strb	r3, [fp, #-5]
    f87c:	e51b3010 	ldr	r3, [fp, #-16]
    f880:	e2833001 	add	r3, r3, #1
    f884:	e50b3010 	str	r3, [fp, #-16]
    f888:	e3a03000 	mov	r3, #0
    f88c:	e50b300c 	str	r3, [fp, #-12]
    f890:	ea00000d 	b	f8cc <atoi+0xec>
    f894:	e51b200c 	ldr	r2, [fp, #-12]
    f898:	e1a03002 	mov	r3, r2
    f89c:	e1a03103 	lsl	r3, r3, #2
    f8a0:	e0833002 	add	r3, r3, r2
    f8a4:	e1a03083 	lsl	r3, r3, #1
    f8a8:	e1a02003 	mov	r2, r3
    f8ac:	e51b3010 	ldr	r3, [fp, #-16]
    f8b0:	e5d33000 	ldrb	r3, [r3]
    f8b4:	e2633030 	rsb	r3, r3, #48	; 0x30
    f8b8:	e0823003 	add	r3, r2, r3
    f8bc:	e50b300c 	str	r3, [fp, #-12]
    f8c0:	e51b3010 	ldr	r3, [fp, #-16]
    f8c4:	e2833001 	add	r3, r3, #1
    f8c8:	e50b3010 	str	r3, [fp, #-16]
    f8cc:	e51b3010 	ldr	r3, [fp, #-16]
    f8d0:	e5d33000 	ldrb	r3, [r3]
    f8d4:	e1a00003 	mov	r0, r3
    f8d8:	ebffff92 	bl	f728 <isdigit>
    f8dc:	e1a03000 	mov	r3, r0
    f8e0:	e3530000 	cmp	r3, #0
    f8e4:	1affffea 	bne	f894 <atoi+0xb4>
    f8e8:	e55b3005 	ldrb	r3, [fp, #-5]
    f8ec:	e2233001 	eor	r3, r3, #1
    f8f0:	e6ef3073 	uxtb	r3, r3
    f8f4:	e3530000 	cmp	r3, #0
    f8f8:	0a000002 	beq	f908 <atoi+0x128>
    f8fc:	e51b300c 	ldr	r3, [fp, #-12]
    f900:	e2633000 	rsb	r3, r3, #0
    f904:	e50b300c 	str	r3, [fp, #-12]
    f908:	e51b300c 	ldr	r3, [fp, #-12]
    f90c:	e1a00003 	mov	r0, r3
    f910:	e24bd004 	sub	sp, fp, #4
    f914:	e8bd8800 	pop	{fp, pc}
    f918:	00016460 	.word	0x00016460
    f91c:	00016484 	.word	0x00016484
    f920:	00016470 	.word	0x00016470

0000f924 <compare_thunk>:
    f924:	e92d4800 	push	{fp, lr}
    f928:	e28db004 	add	fp, sp, #4
    f92c:	e24dd018 	sub	sp, sp, #24
    f930:	e50b0010 	str	r0, [fp, #-16]
    f934:	e50b1014 	str	r1, [fp, #-20]
    f938:	e50b2018 	str	r2, [fp, #-24]
    f93c:	e51b3018 	ldr	r3, [fp, #-24]
    f940:	e50b3008 	str	r3, [fp, #-8]
    f944:	e51b3008 	ldr	r3, [fp, #-8]
    f948:	e5933000 	ldr	r3, [r3]
    f94c:	e51b0010 	ldr	r0, [fp, #-16]
    f950:	e51b1014 	ldr	r1, [fp, #-20]
    f954:	e12fff33 	blx	r3
    f958:	e1a03000 	mov	r3, r0
    f95c:	e1a00003 	mov	r0, r3
    f960:	e24bd004 	sub	sp, fp, #4
    f964:	e8bd8800 	pop	{fp, pc}

0000f968 <qsort>:
    f968:	e92d4800 	push	{fp, lr}
    f96c:	e28db004 	add	fp, sp, #4
    f970:	e24dd018 	sub	sp, sp, #24
    f974:	e50b0008 	str	r0, [fp, #-8]
    f978:	e50b100c 	str	r1, [fp, #-12]
    f97c:	e50b2010 	str	r2, [fp, #-16]
    f980:	e50b3014 	str	r3, [fp, #-20]
    f984:	e24b3014 	sub	r3, fp, #20
    f988:	e58d3000 	str	r3, [sp]
    f98c:	e51b0008 	ldr	r0, [fp, #-8]
    f990:	e51b100c 	ldr	r1, [fp, #-12]
    f994:	e51b2010 	ldr	r2, [fp, #-16]
    f998:	e59f3008 	ldr	r3, [pc, #8]	; f9a8 <qsort+0x40>
    f99c:	eb000095 	bl	fbf8 <sort>
    f9a0:	e24bd004 	sub	sp, fp, #4
    f9a4:	e8bd8800 	pop	{fp, pc}
    f9a8:	0000f924 	.word	0x0000f924

0000f9ac <do_swap>:
    f9ac:	e52db004 	push	{fp}		; (str fp, [sp, #-4]!)
    f9b0:	e28db000 	add	fp, sp, #0
    f9b4:	e24dd024 	sub	sp, sp, #36	; 0x24
    f9b8:	e50b0018 	str	r0, [fp, #-24]
    f9bc:	e50b101c 	str	r1, [fp, #-28]
    f9c0:	e50b2020 	str	r2, [fp, #-32]
    f9c4:	e50b3024 	str	r3, [fp, #-36]	; 0x24
    f9c8:	e51b301c 	ldr	r3, [fp, #-28]
    f9cc:	e2433001 	sub	r3, r3, #1
    f9d0:	e51b2024 	ldr	r2, [fp, #-36]	; 0x24
    f9d4:	e0030392 	mul	r3, r2, r3
    f9d8:	e51b2018 	ldr	r2, [fp, #-24]
    f9dc:	e0823003 	add	r3, r2, r3
    f9e0:	e50b300c 	str	r3, [fp, #-12]
    f9e4:	e51b3020 	ldr	r3, [fp, #-32]
    f9e8:	e2433001 	sub	r3, r3, #1
    f9ec:	e51b2024 	ldr	r2, [fp, #-36]	; 0x24
    f9f0:	e0030392 	mul	r3, r2, r3
    f9f4:	e51b2018 	ldr	r2, [fp, #-24]
    f9f8:	e0823003 	add	r3, r2, r3
    f9fc:	e50b3010 	str	r3, [fp, #-16]
    fa00:	e3a03000 	mov	r3, #0
    fa04:	e50b3008 	str	r3, [fp, #-8]
    fa08:	ea000014 	b	fa60 <do_swap+0xb4>
    fa0c:	e51b200c 	ldr	r2, [fp, #-12]
    fa10:	e51b3008 	ldr	r3, [fp, #-8]
    fa14:	e0823003 	add	r3, r2, r3
    fa18:	e5d33000 	ldrb	r3, [r3]
    fa1c:	e54b3011 	strb	r3, [fp, #-17]
    fa20:	e51b200c 	ldr	r2, [fp, #-12]
    fa24:	e51b3008 	ldr	r3, [fp, #-8]
    fa28:	e0823003 	add	r3, r2, r3
    fa2c:	e51b1010 	ldr	r1, [fp, #-16]
    fa30:	e51b2008 	ldr	r2, [fp, #-8]
    fa34:	e0812002 	add	r2, r1, r2
    fa38:	e5d22000 	ldrb	r2, [r2]
    fa3c:	e5c32000 	strb	r2, [r3]
    fa40:	e51b2010 	ldr	r2, [fp, #-16]
    fa44:	e51b3008 	ldr	r3, [fp, #-8]
    fa48:	e0823003 	add	r3, r2, r3
    fa4c:	e55b2011 	ldrb	r2, [fp, #-17]
    fa50:	e5c32000 	strb	r2, [r3]
    fa54:	e51b3008 	ldr	r3, [fp, #-8]
    fa58:	e2833001 	add	r3, r3, #1
    fa5c:	e50b3008 	str	r3, [fp, #-8]
    fa60:	e51b2008 	ldr	r2, [fp, #-8]
    fa64:	e51b3024 	ldr	r3, [fp, #-36]	; 0x24
    fa68:	e1520003 	cmp	r2, r3
    fa6c:	3affffe6 	bcc	fa0c <do_swap+0x60>
    fa70:	e24bd000 	sub	sp, fp, #0
    fa74:	e49db004 	pop	{fp}		; (ldr fp, [sp], #4)
    fa78:	e12fff1e 	bx	lr

0000fa7c <do_compare>:
    fa7c:	e92d4800 	push	{fp, lr}
    fa80:	e28db004 	add	fp, sp, #4
    fa84:	e24dd010 	sub	sp, sp, #16
    fa88:	e50b0008 	str	r0, [fp, #-8]
    fa8c:	e50b100c 	str	r1, [fp, #-12]
    fa90:	e50b2010 	str	r2, [fp, #-16]
    fa94:	e50b3014 	str	r3, [fp, #-20]
    fa98:	e51b300c 	ldr	r3, [fp, #-12]
    fa9c:	e2433001 	sub	r3, r3, #1
    faa0:	e51b2014 	ldr	r2, [fp, #-20]
    faa4:	e0030392 	mul	r3, r2, r3
    faa8:	e51b2008 	ldr	r2, [fp, #-8]
    faac:	e0821003 	add	r1, r2, r3
    fab0:	e51b3010 	ldr	r3, [fp, #-16]
    fab4:	e2433001 	sub	r3, r3, #1
    fab8:	e51b2014 	ldr	r2, [fp, #-20]
    fabc:	e0030392 	mul	r3, r2, r3
    fac0:	e51b2008 	ldr	r2, [fp, #-8]
    fac4:	e0822003 	add	r2, r2, r3
    fac8:	e59b3004 	ldr	r3, [fp, #4]
    facc:	e1a00001 	mov	r0, r1
    fad0:	e1a01002 	mov	r1, r2
    fad4:	e59b2008 	ldr	r2, [fp, #8]
    fad8:	e12fff33 	blx	r3
    fadc:	e1a03000 	mov	r3, r0
    fae0:	e1a00003 	mov	r0, r3
    fae4:	e24bd004 	sub	sp, fp, #4
    fae8:	e8bd8800 	pop	{fp, pc}

0000faec <heapify>:
    faec:	e92d4800 	push	{fp, lr}
    faf0:	e28db004 	add	fp, sp, #4
    faf4:	e24dd028 	sub	sp, sp, #40	; 0x28
    faf8:	e50b0018 	str	r0, [fp, #-24]
    fafc:	e50b101c 	str	r1, [fp, #-28]
    fb00:	e50b2020 	str	r2, [fp, #-32]
    fb04:	e50b3024 	str	r3, [fp, #-36]	; 0x24
    fb08:	e51b301c 	ldr	r3, [fp, #-28]
    fb0c:	e1a03083 	lsl	r3, r3, #1
    fb10:	e50b300c 	str	r3, [fp, #-12]
    fb14:	e51b301c 	ldr	r3, [fp, #-28]
    fb18:	e1a03083 	lsl	r3, r3, #1
    fb1c:	e2833001 	add	r3, r3, #1
    fb20:	e50b3010 	str	r3, [fp, #-16]
    fb24:	e51b301c 	ldr	r3, [fp, #-28]
    fb28:	e50b3008 	str	r3, [fp, #-8]
    fb2c:	e51b200c 	ldr	r2, [fp, #-12]
    fb30:	e51b3020 	ldr	r3, [fp, #-32]
    fb34:	e1520003 	cmp	r2, r3
    fb38:	8a00000d 	bhi	fb74 <heapify+0x88>
    fb3c:	e59b3004 	ldr	r3, [fp, #4]
    fb40:	e58d3000 	str	r3, [sp]
    fb44:	e59b3008 	ldr	r3, [fp, #8]
    fb48:	e58d3004 	str	r3, [sp, #4]
    fb4c:	e51b0018 	ldr	r0, [fp, #-24]
    fb50:	e51b100c 	ldr	r1, [fp, #-12]
    fb54:	e51b2008 	ldr	r2, [fp, #-8]
    fb58:	e51b3024 	ldr	r3, [fp, #-36]	; 0x24
    fb5c:	ebffffc6 	bl	fa7c <do_compare>
    fb60:	e1a03000 	mov	r3, r0
    fb64:	e3530000 	cmp	r3, #0
    fb68:	da000001 	ble	fb74 <heapify+0x88>
    fb6c:	e51b300c 	ldr	r3, [fp, #-12]
    fb70:	e50b3008 	str	r3, [fp, #-8]
    fb74:	e51b2010 	ldr	r2, [fp, #-16]
    fb78:	e51b3020 	ldr	r3, [fp, #-32]
    fb7c:	e1520003 	cmp	r2, r3
    fb80:	8a00000d 	bhi	fbbc <heapify+0xd0>
    fb84:	e59b3004 	ldr	r3, [fp, #4]
    fb88:	e58d3000 	str	r3, [sp]
    fb8c:	e59b3008 	ldr	r3, [fp, #8]
    fb90:	e58d3004 	str	r3, [sp, #4]
    fb94:	e51b0018 	ldr	r0, [fp, #-24]
    fb98:	e51b1010 	ldr	r1, [fp, #-16]
    fb9c:	e51b2008 	ldr	r2, [fp, #-8]
    fba0:	e51b3024 	ldr	r3, [fp, #-36]	; 0x24
    fba4:	ebffffb4 	bl	fa7c <do_compare>
    fba8:	e1a03000 	mov	r3, r0
    fbac:	e3530000 	cmp	r3, #0
    fbb0:	da000001 	ble	fbbc <heapify+0xd0>
    fbb4:	e51b3010 	ldr	r3, [fp, #-16]
    fbb8:	e50b3008 	str	r3, [fp, #-8]
    fbbc:	e51b2008 	ldr	r2, [fp, #-8]
    fbc0:	e51b301c 	ldr	r3, [fp, #-28]
    fbc4:	e1520003 	cmp	r2, r3
    fbc8:	1a000000 	bne	fbd0 <heapify+0xe4>
    fbcc:	ea000007 	b	fbf0 <heapify+0x104>
    fbd0:	e51b0018 	ldr	r0, [fp, #-24]
    fbd4:	e51b101c 	ldr	r1, [fp, #-28]
    fbd8:	e51b2008 	ldr	r2, [fp, #-8]
    fbdc:	e51b3024 	ldr	r3, [fp, #-36]	; 0x24
    fbe0:	ebffff71 	bl	f9ac <do_swap>
    fbe4:	e51b3008 	ldr	r3, [fp, #-8]
    fbe8:	e50b301c 	str	r3, [fp, #-28]
    fbec:	eaffffc5 	b	fb08 <heapify+0x1c>
    fbf0:	e24bd004 	sub	sp, fp, #4
    fbf4:	e8bd8800 	pop	{fp, pc}

0000fbf8 <sort>:
    fbf8:	e92d4800 	push	{fp, lr}
    fbfc:	e28db004 	add	fp, sp, #4
    fc00:	e24dd020 	sub	sp, sp, #32
    fc04:	e50b0010 	str	r0, [fp, #-16]
    fc08:	e50b1014 	str	r1, [fp, #-20]
    fc0c:	e50b2018 	str	r2, [fp, #-24]
    fc10:	e50b301c 	str	r3, [fp, #-28]
    fc14:	e51b3010 	ldr	r3, [fp, #-16]
    fc18:	e3530000 	cmp	r3, #0
    fc1c:	1a000007 	bne	fc40 <sort+0x48>
    fc20:	e51b3014 	ldr	r3, [fp, #-20]
    fc24:	e3530000 	cmp	r3, #0
    fc28:	0a000004 	beq	fc40 <sort+0x48>
    fc2c:	e59f0104 	ldr	r0, [pc, #260]	; fd38 <sort+0x140>
    fc30:	e3a0108a 	mov	r1, #138	; 0x8a
    fc34:	e59f2100 	ldr	r2, [pc, #256]	; fd3c <sort+0x144>
    fc38:	e59f3100 	ldr	r3, [pc, #256]	; fd40 <sort+0x148>
    fc3c:	ebffe5d2 	bl	938c <debug_panic>
    fc40:	e51b301c 	ldr	r3, [fp, #-28]
    fc44:	e3530000 	cmp	r3, #0
    fc48:	1a000004 	bne	fc60 <sort+0x68>
    fc4c:	e59f00e4 	ldr	r0, [pc, #228]	; fd38 <sort+0x140>
    fc50:	e3a0108b 	mov	r1, #139	; 0x8b
    fc54:	e59f20e0 	ldr	r2, [pc, #224]	; fd3c <sort+0x144>
    fc58:	e59f30e0 	ldr	r3, [pc, #224]	; fd40 <sort+0x148>
    fc5c:	ebffe5ca 	bl	938c <debug_panic>
    fc60:	e51b3018 	ldr	r3, [fp, #-24]
    fc64:	e3530000 	cmp	r3, #0
    fc68:	1a000004 	bne	fc80 <sort+0x88>
    fc6c:	e59f00c4 	ldr	r0, [pc, #196]	; fd38 <sort+0x140>
    fc70:	e3a0108c 	mov	r1, #140	; 0x8c
    fc74:	e59f20c0 	ldr	r2, [pc, #192]	; fd3c <sort+0x144>
    fc78:	e59f30c0 	ldr	r3, [pc, #192]	; fd40 <sort+0x148>
    fc7c:	ebffe5c2 	bl	938c <debug_panic>
    fc80:	e51b3014 	ldr	r3, [fp, #-20]
    fc84:	e1a030a3 	lsr	r3, r3, #1
    fc88:	e50b3008 	str	r3, [fp, #-8]
    fc8c:	ea00000b 	b	fcc0 <sort+0xc8>
    fc90:	e51b301c 	ldr	r3, [fp, #-28]
    fc94:	e58d3000 	str	r3, [sp]
    fc98:	e59b3004 	ldr	r3, [fp, #4]
    fc9c:	e58d3004 	str	r3, [sp, #4]
    fca0:	e51b0010 	ldr	r0, [fp, #-16]
    fca4:	e51b1008 	ldr	r1, [fp, #-8]
    fca8:	e51b2014 	ldr	r2, [fp, #-20]
    fcac:	e51b3018 	ldr	r3, [fp, #-24]
    fcb0:	ebffff8d 	bl	faec <heapify>
    fcb4:	e51b3008 	ldr	r3, [fp, #-8]
    fcb8:	e2433001 	sub	r3, r3, #1
    fcbc:	e50b3008 	str	r3, [fp, #-8]
    fcc0:	e51b3008 	ldr	r3, [fp, #-8]
    fcc4:	e3530000 	cmp	r3, #0
    fcc8:	1afffff0 	bne	fc90 <sort+0x98>
    fccc:	e51b3014 	ldr	r3, [fp, #-20]
    fcd0:	e50b3008 	str	r3, [fp, #-8]
    fcd4:	ea000012 	b	fd24 <sort+0x12c>
    fcd8:	e51b0010 	ldr	r0, [fp, #-16]
    fcdc:	e3a01001 	mov	r1, #1
    fce0:	e51b2008 	ldr	r2, [fp, #-8]
    fce4:	e51b3018 	ldr	r3, [fp, #-24]
    fce8:	ebffff2f 	bl	f9ac <do_swap>
    fcec:	e51b3008 	ldr	r3, [fp, #-8]
    fcf0:	e2433001 	sub	r3, r3, #1
    fcf4:	e51b201c 	ldr	r2, [fp, #-28]
    fcf8:	e58d2000 	str	r2, [sp]
    fcfc:	e59b2004 	ldr	r2, [fp, #4]
    fd00:	e58d2004 	str	r2, [sp, #4]
    fd04:	e51b0010 	ldr	r0, [fp, #-16]
    fd08:	e3a01001 	mov	r1, #1
    fd0c:	e1a02003 	mov	r2, r3
    fd10:	e51b3018 	ldr	r3, [fp, #-24]
    fd14:	ebffff74 	bl	faec <heapify>
    fd18:	e51b3008 	ldr	r3, [fp, #-8]
    fd1c:	e2433001 	sub	r3, r3, #1
    fd20:	e50b3008 	str	r3, [fp, #-8]
    fd24:	e51b3008 	ldr	r3, [fp, #-8]
    fd28:	e3530001 	cmp	r3, #1
    fd2c:	8affffe9 	bhi	fcd8 <sort+0xe0>
    fd30:	e24bd004 	sub	sp, fp, #4
    fd34:	e8bd8800 	pop	{fp, pc}
    fd38:	00016460 	.word	0x00016460
    fd3c:	0001648c 	.word	0x0001648c
    fd40:	00016470 	.word	0x00016470

0000fd44 <bsearch>:
    fd44:	e92d4800 	push	{fp, lr}
    fd48:	e28db004 	add	fp, sp, #4
    fd4c:	e24dd018 	sub	sp, sp, #24
    fd50:	e50b0008 	str	r0, [fp, #-8]
    fd54:	e50b100c 	str	r1, [fp, #-12]
    fd58:	e50b2010 	str	r2, [fp, #-16]
    fd5c:	e50b3014 	str	r3, [fp, #-20]
    fd60:	e59f302c 	ldr	r3, [pc, #44]	; fd94 <bsearch+0x50>
    fd64:	e58d3000 	str	r3, [sp]
    fd68:	e28b3004 	add	r3, fp, #4
    fd6c:	e58d3004 	str	r3, [sp, #4]
    fd70:	e51b0008 	ldr	r0, [fp, #-8]
    fd74:	e51b100c 	ldr	r1, [fp, #-12]
    fd78:	e51b2010 	ldr	r2, [fp, #-16]
    fd7c:	e51b3014 	ldr	r3, [fp, #-20]
    fd80:	eb000004 	bl	fd98 <binary_search>
    fd84:	e1a03000 	mov	r3, r0
    fd88:	e1a00003 	mov	r0, r3
    fd8c:	e24bd004 	sub	sp, fp, #4
    fd90:	e8bd8800 	pop	{fp, pc}
    fd94:	0000f924 	.word	0x0000f924

0000fd98 <binary_search>:
    fd98:	e92d4800 	push	{fp, lr}
    fd9c:	e28db004 	add	fp, sp, #4
    fda0:	e24dd028 	sub	sp, sp, #40	; 0x28
    fda4:	e50b0020 	str	r0, [fp, #-32]
    fda8:	e50b1024 	str	r1, [fp, #-36]	; 0x24
    fdac:	e50b2028 	str	r2, [fp, #-40]	; 0x28
    fdb0:	e50b302c 	str	r3, [fp, #-44]	; 0x2c
    fdb4:	e51b3024 	ldr	r3, [fp, #-36]	; 0x24
    fdb8:	e50b3008 	str	r3, [fp, #-8]
    fdbc:	e51b302c 	ldr	r3, [fp, #-44]	; 0x2c
    fdc0:	e51b2028 	ldr	r2, [fp, #-40]	; 0x28
    fdc4:	e0030392 	mul	r3, r2, r3
    fdc8:	e51b2024 	ldr	r2, [fp, #-36]	; 0x24
    fdcc:	e0823003 	add	r3, r2, r3
    fdd0:	e50b300c 	str	r3, [fp, #-12]
    fdd4:	ea000024 	b	fe6c <binary_search+0xd4>
    fdd8:	e51b200c 	ldr	r2, [fp, #-12]
    fddc:	e51b3008 	ldr	r3, [fp, #-8]
    fde0:	e0633002 	rsb	r3, r3, r2
    fde4:	e1a00003 	mov	r0, r3
    fde8:	e51b102c 	ldr	r1, [fp, #-44]	; 0x2c
    fdec:	eb000df7 	bl	135d0 <__aeabi_uidiv>
    fdf0:	e1a03000 	mov	r3, r0
    fdf4:	e50b3010 	str	r3, [fp, #-16]
    fdf8:	e51b3010 	ldr	r3, [fp, #-16]
    fdfc:	e1a030a3 	lsr	r3, r3, #1
    fe00:	e51b202c 	ldr	r2, [fp, #-44]	; 0x2c
    fe04:	e0030392 	mul	r3, r2, r3
    fe08:	e51b2008 	ldr	r2, [fp, #-8]
    fe0c:	e0823003 	add	r3, r2, r3
    fe10:	e50b3014 	str	r3, [fp, #-20]
    fe14:	e59b3004 	ldr	r3, [fp, #4]
    fe18:	e51b0020 	ldr	r0, [fp, #-32]
    fe1c:	e51b1014 	ldr	r1, [fp, #-20]
    fe20:	e59b2008 	ldr	r2, [fp, #8]
    fe24:	e12fff33 	blx	r3
    fe28:	e50b0018 	str	r0, [fp, #-24]
    fe2c:	e51b3018 	ldr	r3, [fp, #-24]
    fe30:	e3530000 	cmp	r3, #0
    fe34:	aa000002 	bge	fe44 <binary_search+0xac>
    fe38:	e51b3014 	ldr	r3, [fp, #-20]
    fe3c:	e50b300c 	str	r3, [fp, #-12]
    fe40:	ea000009 	b	fe6c <binary_search+0xd4>
    fe44:	e51b3018 	ldr	r3, [fp, #-24]
    fe48:	e3530000 	cmp	r3, #0
    fe4c:	da000004 	ble	fe64 <binary_search+0xcc>
    fe50:	e51b2014 	ldr	r2, [fp, #-20]
    fe54:	e51b302c 	ldr	r3, [fp, #-44]	; 0x2c
    fe58:	e0823003 	add	r3, r2, r3
    fe5c:	e50b3008 	str	r3, [fp, #-8]
    fe60:	ea000001 	b	fe6c <binary_search+0xd4>
    fe64:	e51b3014 	ldr	r3, [fp, #-20]
    fe68:	ea000004 	b	fe80 <binary_search+0xe8>
    fe6c:	e51b2008 	ldr	r2, [fp, #-8]
    fe70:	e51b300c 	ldr	r3, [fp, #-12]
    fe74:	e1520003 	cmp	r2, r3
    fe78:	3affffd6 	bcc	fdd8 <binary_search+0x40>
    fe7c:	e3a03000 	mov	r3, #0
    fe80:	e1a00003 	mov	r0, r3
    fe84:	e24bd004 	sub	sp, fp, #4
    fe88:	e8bd8800 	pop	{fp, pc}

0000fe8c <memcpy>:
    fe8c:	e92d4800 	push	{fp, lr}
    fe90:	e28db004 	add	fp, sp, #4
    fe94:	e24dd018 	sub	sp, sp, #24
    fe98:	e50b0010 	str	r0, [fp, #-16]
    fe9c:	e50b1014 	str	r1, [fp, #-20]
    fea0:	e50b2018 	str	r2, [fp, #-24]
    fea4:	e51b3010 	ldr	r3, [fp, #-16]
    fea8:	e50b3008 	str	r3, [fp, #-8]
    feac:	e51b3014 	ldr	r3, [fp, #-20]
    feb0:	e50b300c 	str	r3, [fp, #-12]
    feb4:	e51b3008 	ldr	r3, [fp, #-8]
    feb8:	e3530000 	cmp	r3, #0
    febc:	1a000007 	bne	fee0 <memcpy+0x54>
    fec0:	e51b3018 	ldr	r3, [fp, #-24]
    fec4:	e3530000 	cmp	r3, #0
    fec8:	0a000004 	beq	fee0 <memcpy+0x54>
    fecc:	e59f0080 	ldr	r0, [pc, #128]	; ff54 <memcpy+0xc8>
    fed0:	e3a0100a 	mov	r1, #10
    fed4:	e59f207c 	ldr	r2, [pc, #124]	; ff58 <memcpy+0xcc>
    fed8:	e59f307c 	ldr	r3, [pc, #124]	; ff5c <memcpy+0xd0>
    fedc:	ebffe52a 	bl	938c <debug_panic>
    fee0:	e51b300c 	ldr	r3, [fp, #-12]
    fee4:	e3530000 	cmp	r3, #0
    fee8:	1a000007 	bne	ff0c <memcpy+0x80>
    feec:	e51b3018 	ldr	r3, [fp, #-24]
    fef0:	e3530000 	cmp	r3, #0
    fef4:	0a000004 	beq	ff0c <memcpy+0x80>
    fef8:	e59f0054 	ldr	r0, [pc, #84]	; ff54 <memcpy+0xc8>
    fefc:	e3a0100b 	mov	r1, #11
    ff00:	e59f2050 	ldr	r2, [pc, #80]	; ff58 <memcpy+0xcc>
    ff04:	e59f3050 	ldr	r3, [pc, #80]	; ff5c <memcpy+0xd0>
    ff08:	ebffe51f 	bl	938c <debug_panic>
    ff0c:	ea000007 	b	ff30 <memcpy+0xa4>
    ff10:	e51b3008 	ldr	r3, [fp, #-8]
    ff14:	e2832001 	add	r2, r3, #1
    ff18:	e50b2008 	str	r2, [fp, #-8]
    ff1c:	e51b200c 	ldr	r2, [fp, #-12]
    ff20:	e2821001 	add	r1, r2, #1
    ff24:	e50b100c 	str	r1, [fp, #-12]
    ff28:	e5d22000 	ldrb	r2, [r2]
    ff2c:	e5c32000 	strb	r2, [r3]
    ff30:	e51b3018 	ldr	r3, [fp, #-24]
    ff34:	e2432001 	sub	r2, r3, #1
    ff38:	e50b2018 	str	r2, [fp, #-24]
    ff3c:	e3530000 	cmp	r3, #0
    ff40:	1afffff2 	bne	ff10 <memcpy+0x84>
    ff44:	e51b3010 	ldr	r3, [fp, #-16]
    ff48:	e1a00003 	mov	r0, r3
    ff4c:	e24bd004 	sub	sp, fp, #4
    ff50:	e8bd8800 	pop	{fp, pc}
    ff54:	00016494 	.word	0x00016494
    ff58:	000164b8 	.word	0x000164b8
    ff5c:	000164a4 	.word	0x000164a4

0000ff60 <memmove>:
    ff60:	e92d4800 	push	{fp, lr}
    ff64:	e28db004 	add	fp, sp, #4
    ff68:	e24dd018 	sub	sp, sp, #24
    ff6c:	e50b0010 	str	r0, [fp, #-16]
    ff70:	e50b1014 	str	r1, [fp, #-20]
    ff74:	e50b2018 	str	r2, [fp, #-24]
    ff78:	e51b3010 	ldr	r3, [fp, #-16]
    ff7c:	e50b3008 	str	r3, [fp, #-8]
    ff80:	e51b3014 	ldr	r3, [fp, #-20]
    ff84:	e50b300c 	str	r3, [fp, #-12]
    ff88:	e51b3008 	ldr	r3, [fp, #-8]
    ff8c:	e3530000 	cmp	r3, #0
    ff90:	1a000007 	bne	ffb4 <memmove+0x54>
    ff94:	e51b3018 	ldr	r3, [fp, #-24]
    ff98:	e3530000 	cmp	r3, #0
    ff9c:	0a000004 	beq	ffb4 <memmove+0x54>
    ffa0:	e59f00f4 	ldr	r0, [pc, #244]	; 1009c <memmove+0x13c>
    ffa4:	e3a01019 	mov	r1, #25
    ffa8:	e59f20f0 	ldr	r2, [pc, #240]	; 100a0 <memmove+0x140>
    ffac:	e59f30f0 	ldr	r3, [pc, #240]	; 100a4 <memmove+0x144>
    ffb0:	ebffe4f5 	bl	938c <debug_panic>
    ffb4:	e51b300c 	ldr	r3, [fp, #-12]
    ffb8:	e3530000 	cmp	r3, #0
    ffbc:	1a000007 	bne	ffe0 <memmove+0x80>
    ffc0:	e51b3018 	ldr	r3, [fp, #-24]
    ffc4:	e3530000 	cmp	r3, #0
    ffc8:	0a000004 	beq	ffe0 <memmove+0x80>
    ffcc:	e59f00c8 	ldr	r0, [pc, #200]	; 1009c <memmove+0x13c>
    ffd0:	e3a0101a 	mov	r1, #26
    ffd4:	e59f20c4 	ldr	r2, [pc, #196]	; 100a0 <memmove+0x140>
    ffd8:	e59f30c4 	ldr	r3, [pc, #196]	; 100a4 <memmove+0x144>
    ffdc:	ebffe4ea 	bl	938c <debug_panic>
    ffe0:	e51b2008 	ldr	r2, [fp, #-8]
    ffe4:	e51b300c 	ldr	r3, [fp, #-12]
    ffe8:	e1520003 	cmp	r2, r3
    ffec:	2a00000e 	bcs	1002c <memmove+0xcc>
    fff0:	ea000007 	b	10014 <memmove+0xb4>
    fff4:	e51b3008 	ldr	r3, [fp, #-8]
    fff8:	e2832001 	add	r2, r3, #1
    fffc:	e50b2008 	str	r2, [fp, #-8]
   10000:	e51b200c 	ldr	r2, [fp, #-12]
   10004:	e2821001 	add	r1, r2, #1
   10008:	e50b100c 	str	r1, [fp, #-12]
   1000c:	e5d22000 	ldrb	r2, [r2]
   10010:	e5c32000 	strb	r2, [r3]
   10014:	e51b3018 	ldr	r3, [fp, #-24]
   10018:	e2432001 	sub	r2, r3, #1
   1001c:	e50b2018 	str	r2, [fp, #-24]
   10020:	e3530000 	cmp	r3, #0
   10024:	1afffff2 	bne	fff4 <memmove+0x94>
   10028:	ea000017 	b	1008c <memmove+0x12c>
   1002c:	e51b2008 	ldr	r2, [fp, #-8]
   10030:	e51b3018 	ldr	r3, [fp, #-24]
   10034:	e0823003 	add	r3, r2, r3
   10038:	e50b3008 	str	r3, [fp, #-8]
   1003c:	e51b200c 	ldr	r2, [fp, #-12]
   10040:	e51b3018 	ldr	r3, [fp, #-24]
   10044:	e0823003 	add	r3, r2, r3
   10048:	e50b300c 	str	r3, [fp, #-12]
   1004c:	ea000009 	b	10078 <memmove+0x118>
   10050:	e51b3008 	ldr	r3, [fp, #-8]
   10054:	e2433001 	sub	r3, r3, #1
   10058:	e50b3008 	str	r3, [fp, #-8]
   1005c:	e51b300c 	ldr	r3, [fp, #-12]
   10060:	e2433001 	sub	r3, r3, #1
   10064:	e50b300c 	str	r3, [fp, #-12]
   10068:	e51b300c 	ldr	r3, [fp, #-12]
   1006c:	e5d32000 	ldrb	r2, [r3]
   10070:	e51b3008 	ldr	r3, [fp, #-8]
   10074:	e5c32000 	strb	r2, [r3]
   10078:	e51b3018 	ldr	r3, [fp, #-24]
   1007c:	e2432001 	sub	r2, r3, #1
   10080:	e50b2018 	str	r2, [fp, #-24]
   10084:	e3530000 	cmp	r3, #0
   10088:	1afffff0 	bne	10050 <memmove+0xf0>
   1008c:	e51b3008 	ldr	r3, [fp, #-8]
   10090:	e1a00003 	mov	r0, r3
   10094:	e24bd004 	sub	sp, fp, #4
   10098:	e8bd8800 	pop	{fp, pc}
   1009c:	00016494 	.word	0x00016494
   100a0:	000164c0 	.word	0x000164c0
   100a4:	000164a4 	.word	0x000164a4

000100a8 <memcmp>:
   100a8:	e92d4800 	push	{fp, lr}
   100ac:	e28db004 	add	fp, sp, #4
   100b0:	e24dd018 	sub	sp, sp, #24
   100b4:	e50b0010 	str	r0, [fp, #-16]
   100b8:	e50b1014 	str	r1, [fp, #-20]
   100bc:	e50b2018 	str	r2, [fp, #-24]
   100c0:	e51b3010 	ldr	r3, [fp, #-16]
   100c4:	e50b3008 	str	r3, [fp, #-8]
   100c8:	e51b3014 	ldr	r3, [fp, #-20]
   100cc:	e50b300c 	str	r3, [fp, #-12]
   100d0:	e51b3008 	ldr	r3, [fp, #-8]
   100d4:	e3530000 	cmp	r3, #0
   100d8:	1a000007 	bne	100fc <memcmp+0x54>
   100dc:	e51b3018 	ldr	r3, [fp, #-24]
   100e0:	e3530000 	cmp	r3, #0
   100e4:	0a000004 	beq	100fc <memcmp+0x54>
   100e8:	e59f00b8 	ldr	r0, [pc, #184]	; 101a8 <memcmp+0x100>
   100ec:	e3a01034 	mov	r1, #52	; 0x34
   100f0:	e59f20b4 	ldr	r2, [pc, #180]	; 101ac <memcmp+0x104>
   100f4:	e59f30b4 	ldr	r3, [pc, #180]	; 101b0 <memcmp+0x108>
   100f8:	ebffe4a3 	bl	938c <debug_panic>
   100fc:	e51b300c 	ldr	r3, [fp, #-12]
   10100:	e3530000 	cmp	r3, #0
   10104:	1a000007 	bne	10128 <memcmp+0x80>
   10108:	e51b3018 	ldr	r3, [fp, #-24]
   1010c:	e3530000 	cmp	r3, #0
   10110:	0a000004 	beq	10128 <memcmp+0x80>
   10114:	e59f008c 	ldr	r0, [pc, #140]	; 101a8 <memcmp+0x100>
   10118:	e3a01035 	mov	r1, #53	; 0x35
   1011c:	e59f2088 	ldr	r2, [pc, #136]	; 101ac <memcmp+0x104>
   10120:	e59f3088 	ldr	r3, [pc, #136]	; 101b0 <memcmp+0x108>
   10124:	ebffe498 	bl	938c <debug_panic>
   10128:	ea000015 	b	10184 <memcmp+0xdc>
   1012c:	e51b3008 	ldr	r3, [fp, #-8]
   10130:	e5d32000 	ldrb	r2, [r3]
   10134:	e51b300c 	ldr	r3, [fp, #-12]
   10138:	e5d33000 	ldrb	r3, [r3]
   1013c:	e1520003 	cmp	r2, r3
   10140:	0a000009 	beq	1016c <memcmp+0xc4>
   10144:	e51b3008 	ldr	r3, [fp, #-8]
   10148:	e5d32000 	ldrb	r2, [r3]
   1014c:	e51b300c 	ldr	r3, [fp, #-12]
   10150:	e5d33000 	ldrb	r3, [r3]
   10154:	e1520003 	cmp	r2, r3
   10158:	9a000001 	bls	10164 <memcmp+0xbc>
   1015c:	e3a03001 	mov	r3, #1
   10160:	ea000000 	b	10168 <memcmp+0xc0>
   10164:	e3e03000 	mvn	r3, #0
   10168:	ea00000b 	b	1019c <memcmp+0xf4>
   1016c:	e51b3008 	ldr	r3, [fp, #-8]
   10170:	e2833001 	add	r3, r3, #1
   10174:	e50b3008 	str	r3, [fp, #-8]
   10178:	e51b300c 	ldr	r3, [fp, #-12]
   1017c:	e2833001 	add	r3, r3, #1
   10180:	e50b300c 	str	r3, [fp, #-12]
   10184:	e51b3018 	ldr	r3, [fp, #-24]
   10188:	e2432001 	sub	r2, r3, #1
   1018c:	e50b2018 	str	r2, [fp, #-24]
   10190:	e3530000 	cmp	r3, #0
   10194:	1affffe4 	bne	1012c <memcmp+0x84>
   10198:	e3a03000 	mov	r3, #0
   1019c:	e1a00003 	mov	r0, r3
   101a0:	e24bd004 	sub	sp, fp, #4
   101a4:	e8bd8800 	pop	{fp, pc}
   101a8:	00016494 	.word	0x00016494
   101ac:	000164c8 	.word	0x000164c8
   101b0:	000164a4 	.word	0x000164a4

000101b4 <strcmp>:
   101b4:	e92d4800 	push	{fp, lr}
   101b8:	e28db004 	add	fp, sp, #4
   101bc:	e24dd010 	sub	sp, sp, #16
   101c0:	e50b0010 	str	r0, [fp, #-16]
   101c4:	e50b1014 	str	r1, [fp, #-20]
   101c8:	e51b3010 	ldr	r3, [fp, #-16]
   101cc:	e50b3008 	str	r3, [fp, #-8]
   101d0:	e51b3014 	ldr	r3, [fp, #-20]
   101d4:	e50b300c 	str	r3, [fp, #-12]
   101d8:	e51b3008 	ldr	r3, [fp, #-8]
   101dc:	e3530000 	cmp	r3, #0
   101e0:	1a000004 	bne	101f8 <strcmp+0x44>
   101e4:	e59f00bc 	ldr	r0, [pc, #188]	; 102a8 <strcmp+0xf4>
   101e8:	e3a01046 	mov	r1, #70	; 0x46
   101ec:	e59f20b8 	ldr	r2, [pc, #184]	; 102ac <strcmp+0xf8>
   101f0:	e59f30b8 	ldr	r3, [pc, #184]	; 102b0 <strcmp+0xfc>
   101f4:	ebffe464 	bl	938c <debug_panic>
   101f8:	e51b300c 	ldr	r3, [fp, #-12]
   101fc:	e3530000 	cmp	r3, #0
   10200:	1a000004 	bne	10218 <strcmp+0x64>
   10204:	e59f009c 	ldr	r0, [pc, #156]	; 102a8 <strcmp+0xf4>
   10208:	e3a01047 	mov	r1, #71	; 0x47
   1020c:	e59f2098 	ldr	r2, [pc, #152]	; 102ac <strcmp+0xf8>
   10210:	e59f3098 	ldr	r3, [pc, #152]	; 102b0 <strcmp+0xfc>
   10214:	ebffe45c 	bl	938c <debug_panic>
   10218:	ea000005 	b	10234 <strcmp+0x80>
   1021c:	e51b3008 	ldr	r3, [fp, #-8]
   10220:	e2833001 	add	r3, r3, #1
   10224:	e50b3008 	str	r3, [fp, #-8]
   10228:	e51b300c 	ldr	r3, [fp, #-12]
   1022c:	e2833001 	add	r3, r3, #1
   10230:	e50b300c 	str	r3, [fp, #-12]
   10234:	e51b3008 	ldr	r3, [fp, #-8]
   10238:	e5d33000 	ldrb	r3, [r3]
   1023c:	e3530000 	cmp	r3, #0
   10240:	0a000005 	beq	1025c <strcmp+0xa8>
   10244:	e51b3008 	ldr	r3, [fp, #-8]
   10248:	e5d32000 	ldrb	r2, [r3]
   1024c:	e51b300c 	ldr	r3, [fp, #-12]
   10250:	e5d33000 	ldrb	r3, [r3]
   10254:	e1520003 	cmp	r2, r3
   10258:	0affffef 	beq	1021c <strcmp+0x68>
   1025c:	e51b3008 	ldr	r3, [fp, #-8]
   10260:	e5d32000 	ldrb	r2, [r3]
   10264:	e51b300c 	ldr	r3, [fp, #-12]
   10268:	e5d33000 	ldrb	r3, [r3]
   1026c:	e1520003 	cmp	r2, r3
   10270:	3a000008 	bcc	10298 <strcmp+0xe4>
   10274:	e51b3008 	ldr	r3, [fp, #-8]
   10278:	e5d32000 	ldrb	r2, [r3]
   1027c:	e51b300c 	ldr	r3, [fp, #-12]
   10280:	e5d33000 	ldrb	r3, [r3]
   10284:	e1520003 	cmp	r2, r3
   10288:	93a03000 	movls	r3, #0
   1028c:	83a03001 	movhi	r3, #1
   10290:	e6ef3073 	uxtb	r3, r3
   10294:	ea000000 	b	1029c <strcmp+0xe8>
   10298:	e3e03000 	mvn	r3, #0
   1029c:	e1a00003 	mov	r0, r3
   102a0:	e24bd004 	sub	sp, fp, #4
   102a4:	e8bd8800 	pop	{fp, pc}
   102a8:	00016494 	.word	0x00016494
   102ac:	000164d0 	.word	0x000164d0
   102b0:	000164a4 	.word	0x000164a4

000102b4 <memchr>:
   102b4:	e92d4800 	push	{fp, lr}
   102b8:	e28db004 	add	fp, sp, #4
   102bc:	e24dd018 	sub	sp, sp, #24
   102c0:	e50b0010 	str	r0, [fp, #-16]
   102c4:	e50b1014 	str	r1, [fp, #-20]
   102c8:	e50b2018 	str	r2, [fp, #-24]
   102cc:	e51b3010 	ldr	r3, [fp, #-16]
   102d0:	e50b3008 	str	r3, [fp, #-8]
   102d4:	e51b3014 	ldr	r3, [fp, #-20]
   102d8:	e54b3009 	strb	r3, [fp, #-9]
   102dc:	e51b3008 	ldr	r3, [fp, #-8]
   102e0:	e3530000 	cmp	r3, #0
   102e4:	1a000007 	bne	10308 <memchr+0x54>
   102e8:	e51b3018 	ldr	r3, [fp, #-24]
   102ec:	e3530000 	cmp	r3, #0
   102f0:	0a000004 	beq	10308 <memchr+0x54>
   102f4:	e59f005c 	ldr	r0, [pc, #92]	; 10358 <memchr+0xa4>
   102f8:	e3a01059 	mov	r1, #89	; 0x59
   102fc:	e59f2058 	ldr	r2, [pc, #88]	; 1035c <memchr+0xa8>
   10300:	e59f3058 	ldr	r3, [pc, #88]	; 10360 <memchr+0xac>
   10304:	ebffe420 	bl	938c <debug_panic>
   10308:	ea000009 	b	10334 <memchr+0x80>
   1030c:	e51b3008 	ldr	r3, [fp, #-8]
   10310:	e5d33000 	ldrb	r3, [r3]
   10314:	e55b2009 	ldrb	r2, [fp, #-9]
   10318:	e1520003 	cmp	r2, r3
   1031c:	1a000001 	bne	10328 <memchr+0x74>
   10320:	e51b3008 	ldr	r3, [fp, #-8]
   10324:	ea000008 	b	1034c <memchr+0x98>
   10328:	e51b3008 	ldr	r3, [fp, #-8]
   1032c:	e2833001 	add	r3, r3, #1
   10330:	e50b3008 	str	r3, [fp, #-8]
   10334:	e51b3018 	ldr	r3, [fp, #-24]
   10338:	e2432001 	sub	r2, r3, #1
   1033c:	e50b2018 	str	r2, [fp, #-24]
   10340:	e3530000 	cmp	r3, #0
   10344:	1afffff0 	bne	1030c <memchr+0x58>
   10348:	e3a03000 	mov	r3, #0
   1034c:	e1a00003 	mov	r0, r3
   10350:	e24bd004 	sub	sp, fp, #4
   10354:	e8bd8800 	pop	{fp, pc}
   10358:	00016494 	.word	0x00016494
   1035c:	000164d8 	.word	0x000164d8
   10360:	000164a4 	.word	0x000164a4

00010364 <strchr>:
   10364:	e92d4800 	push	{fp, lr}
   10368:	e28db004 	add	fp, sp, #4
   1036c:	e24dd010 	sub	sp, sp, #16
   10370:	e50b0010 	str	r0, [fp, #-16]
   10374:	e50b1014 	str	r1, [fp, #-20]
   10378:	e51b3014 	ldr	r3, [fp, #-20]
   1037c:	e54b3005 	strb	r3, [fp, #-5]
   10380:	e51b3010 	ldr	r3, [fp, #-16]
   10384:	e3530000 	cmp	r3, #0
   10388:	1a000004 	bne	103a0 <strchr+0x3c>
   1038c:	e59f005c 	ldr	r0, [pc, #92]	; 103f0 <strchr+0x8c>
   10390:	e3a01069 	mov	r1, #105	; 0x69
   10394:	e59f2058 	ldr	r2, [pc, #88]	; 103f4 <strchr+0x90>
   10398:	e59f3058 	ldr	r3, [pc, #88]	; 103f8 <strchr+0x94>
   1039c:	ebffe3fa 	bl	938c <debug_panic>
   103a0:	e51b3010 	ldr	r3, [fp, #-16]
   103a4:	e5d33000 	ldrb	r3, [r3]
   103a8:	e55b2005 	ldrb	r2, [fp, #-5]
   103ac:	e1520003 	cmp	r2, r3
   103b0:	1a000001 	bne	103bc <strchr+0x58>
   103b4:	e51b3010 	ldr	r3, [fp, #-16]
   103b8:	ea000009 	b	103e4 <strchr+0x80>
   103bc:	e51b3010 	ldr	r3, [fp, #-16]
   103c0:	e5d33000 	ldrb	r3, [r3]
   103c4:	e3530000 	cmp	r3, #0
   103c8:	1a000001 	bne	103d4 <strchr+0x70>
   103cc:	e3a03000 	mov	r3, #0
   103d0:	ea000003 	b	103e4 <strchr+0x80>
   103d4:	e51b3010 	ldr	r3, [fp, #-16]
   103d8:	e2833001 	add	r3, r3, #1
   103dc:	e50b3010 	str	r3, [fp, #-16]
   103e0:	eaffffee 	b	103a0 <strchr+0x3c>
   103e4:	e1a00003 	mov	r0, r3
   103e8:	e24bd004 	sub	sp, fp, #4
   103ec:	e8bd8800 	pop	{fp, pc}
   103f0:	00016494 	.word	0x00016494
   103f4:	000164e0 	.word	0x000164e0
   103f8:	000164a4 	.word	0x000164a4

000103fc <strcspn>:
   103fc:	e92d4800 	push	{fp, lr}
   10400:	e28db004 	add	fp, sp, #4
   10404:	e24dd010 	sub	sp, sp, #16
   10408:	e50b0010 	str	r0, [fp, #-16]
   1040c:	e50b1014 	str	r1, [fp, #-20]
   10410:	e3a03000 	mov	r3, #0
   10414:	e50b3008 	str	r3, [fp, #-8]
   10418:	ea00000d 	b	10454 <strcspn+0x58>
   1041c:	e51b2010 	ldr	r2, [fp, #-16]
   10420:	e51b3008 	ldr	r3, [fp, #-8]
   10424:	e0823003 	add	r3, r2, r3
   10428:	e5d33000 	ldrb	r3, [r3]
   1042c:	e51b0014 	ldr	r0, [fp, #-20]
   10430:	e1a01003 	mov	r1, r3
   10434:	ebffffca 	bl	10364 <strchr>
   10438:	e1a03000 	mov	r3, r0
   1043c:	e3530000 	cmp	r3, #0
   10440:	0a000000 	beq	10448 <strcspn+0x4c>
   10444:	ea000008 	b	1046c <strcspn+0x70>
   10448:	e51b3008 	ldr	r3, [fp, #-8]
   1044c:	e2833001 	add	r3, r3, #1
   10450:	e50b3008 	str	r3, [fp, #-8]
   10454:	e51b2010 	ldr	r2, [fp, #-16]
   10458:	e51b3008 	ldr	r3, [fp, #-8]
   1045c:	e0823003 	add	r3, r2, r3
   10460:	e5d33000 	ldrb	r3, [r3]
   10464:	e3530000 	cmp	r3, #0
   10468:	1affffeb 	bne	1041c <strcspn+0x20>
   1046c:	e51b3008 	ldr	r3, [fp, #-8]
   10470:	e1a00003 	mov	r0, r3
   10474:	e24bd004 	sub	sp, fp, #4
   10478:	e8bd8800 	pop	{fp, pc}

0001047c <strpbrk>:
   1047c:	e92d4800 	push	{fp, lr}
   10480:	e28db004 	add	fp, sp, #4
   10484:	e24dd008 	sub	sp, sp, #8
   10488:	e50b0008 	str	r0, [fp, #-8]
   1048c:	e50b100c 	str	r1, [fp, #-12]
   10490:	ea00000c 	b	104c8 <strpbrk+0x4c>
   10494:	e51b3008 	ldr	r3, [fp, #-8]
   10498:	e5d33000 	ldrb	r3, [r3]
   1049c:	e51b000c 	ldr	r0, [fp, #-12]
   104a0:	e1a01003 	mov	r1, r3
   104a4:	ebffffae 	bl	10364 <strchr>
   104a8:	e1a03000 	mov	r3, r0
   104ac:	e3530000 	cmp	r3, #0
   104b0:	0a000001 	beq	104bc <strpbrk+0x40>
   104b4:	e51b3008 	ldr	r3, [fp, #-8]
   104b8:	ea000007 	b	104dc <strpbrk+0x60>
   104bc:	e51b3008 	ldr	r3, [fp, #-8]
   104c0:	e2833001 	add	r3, r3, #1
   104c4:	e50b3008 	str	r3, [fp, #-8]
   104c8:	e51b3008 	ldr	r3, [fp, #-8]
   104cc:	e5d33000 	ldrb	r3, [r3]
   104d0:	e3530000 	cmp	r3, #0
   104d4:	1affffee 	bne	10494 <strpbrk+0x18>
   104d8:	e3a03000 	mov	r3, #0
   104dc:	e1a00003 	mov	r0, r3
   104e0:	e24bd004 	sub	sp, fp, #4
   104e4:	e8bd8800 	pop	{fp, pc}

000104e8 <strrchr>:
   104e8:	e52db004 	push	{fp}		; (str fp, [sp, #-4]!)
   104ec:	e28db000 	add	fp, sp, #0
   104f0:	e24dd014 	sub	sp, sp, #20
   104f4:	e50b0010 	str	r0, [fp, #-16]
   104f8:	e50b1014 	str	r1, [fp, #-20]
   104fc:	e51b3014 	ldr	r3, [fp, #-20]
   10500:	e54b3009 	strb	r3, [fp, #-9]
   10504:	e3a03000 	mov	r3, #0
   10508:	e50b3008 	str	r3, [fp, #-8]
   1050c:	ea000009 	b	10538 <strrchr+0x50>
   10510:	e51b3010 	ldr	r3, [fp, #-16]
   10514:	e5d33000 	ldrb	r3, [r3]
   10518:	e55b2009 	ldrb	r2, [fp, #-9]
   1051c:	e1520003 	cmp	r2, r3
   10520:	1a000001 	bne	1052c <strrchr+0x44>
   10524:	e51b3010 	ldr	r3, [fp, #-16]
   10528:	e50b3008 	str	r3, [fp, #-8]
   1052c:	e51b3010 	ldr	r3, [fp, #-16]
   10530:	e2833001 	add	r3, r3, #1
   10534:	e50b3010 	str	r3, [fp, #-16]
   10538:	e51b3010 	ldr	r3, [fp, #-16]
   1053c:	e5d33000 	ldrb	r3, [r3]
   10540:	e3530000 	cmp	r3, #0
   10544:	1afffff1 	bne	10510 <strrchr+0x28>
   10548:	e51b3008 	ldr	r3, [fp, #-8]
   1054c:	e1a00003 	mov	r0, r3
   10550:	e24bd000 	sub	sp, fp, #0
   10554:	e49db004 	pop	{fp}		; (ldr fp, [sp], #4)
   10558:	e12fff1e 	bx	lr

0001055c <strspn>:
   1055c:	e92d4800 	push	{fp, lr}
   10560:	e28db004 	add	fp, sp, #4
   10564:	e24dd010 	sub	sp, sp, #16
   10568:	e50b0010 	str	r0, [fp, #-16]
   1056c:	e50b1014 	str	r1, [fp, #-20]
   10570:	e3a03000 	mov	r3, #0
   10574:	e50b3008 	str	r3, [fp, #-8]
   10578:	ea00000d 	b	105b4 <strspn+0x58>
   1057c:	e51b2010 	ldr	r2, [fp, #-16]
   10580:	e51b3008 	ldr	r3, [fp, #-8]
   10584:	e0823003 	add	r3, r2, r3
   10588:	e5d33000 	ldrb	r3, [r3]
   1058c:	e51b0014 	ldr	r0, [fp, #-20]
   10590:	e1a01003 	mov	r1, r3
   10594:	ebffff72 	bl	10364 <strchr>
   10598:	e1a03000 	mov	r3, r0
   1059c:	e3530000 	cmp	r3, #0
   105a0:	1a000000 	bne	105a8 <strspn+0x4c>
   105a4:	ea000008 	b	105cc <strspn+0x70>
   105a8:	e51b3008 	ldr	r3, [fp, #-8]
   105ac:	e2833001 	add	r3, r3, #1
   105b0:	e50b3008 	str	r3, [fp, #-8]
   105b4:	e51b2010 	ldr	r2, [fp, #-16]
   105b8:	e51b3008 	ldr	r3, [fp, #-8]
   105bc:	e0823003 	add	r3, r2, r3
   105c0:	e5d33000 	ldrb	r3, [r3]
   105c4:	e3530000 	cmp	r3, #0
   105c8:	1affffeb 	bne	1057c <strspn+0x20>
   105cc:	e51b3008 	ldr	r3, [fp, #-8]
   105d0:	e1a00003 	mov	r0, r3
   105d4:	e24bd004 	sub	sp, fp, #4
   105d8:	e8bd8800 	pop	{fp, pc}

000105dc <strstr>:
   105dc:	e92d4800 	push	{fp, lr}
   105e0:	e28db004 	add	fp, sp, #4
   105e4:	e24dd018 	sub	sp, sp, #24
   105e8:	e50b0018 	str	r0, [fp, #-24]
   105ec:	e50b101c 	str	r1, [fp, #-28]
   105f0:	e51b0018 	ldr	r0, [fp, #-24]
   105f4:	eb0000a9 	bl	108a0 <strlen>
   105f8:	e50b000c 	str	r0, [fp, #-12]
   105fc:	e51b001c 	ldr	r0, [fp, #-28]
   10600:	eb0000a6 	bl	108a0 <strlen>
   10604:	e50b0010 	str	r0, [fp, #-16]
   10608:	e51b200c 	ldr	r2, [fp, #-12]
   1060c:	e51b3010 	ldr	r3, [fp, #-16]
   10610:	e1520003 	cmp	r2, r3
   10614:	3a000019 	bcc	10680 <strstr+0xa4>
   10618:	e3a03000 	mov	r3, #0
   1061c:	e50b3008 	str	r3, [fp, #-8]
   10620:	ea000010 	b	10668 <strstr+0x8c>
   10624:	e51b2018 	ldr	r2, [fp, #-24]
   10628:	e51b3008 	ldr	r3, [fp, #-8]
   1062c:	e0823003 	add	r3, r2, r3
   10630:	e1a00003 	mov	r0, r3
   10634:	e51b101c 	ldr	r1, [fp, #-28]
   10638:	e51b2010 	ldr	r2, [fp, #-16]
   1063c:	ebfffe99 	bl	100a8 <memcmp>
   10640:	e1a03000 	mov	r3, r0
   10644:	e3530000 	cmp	r3, #0
   10648:	1a000003 	bne	1065c <strstr+0x80>
   1064c:	e51b2018 	ldr	r2, [fp, #-24]
   10650:	e51b3008 	ldr	r3, [fp, #-8]
   10654:	e0823003 	add	r3, r2, r3
   10658:	ea000009 	b	10684 <strstr+0xa8>
   1065c:	e51b3008 	ldr	r3, [fp, #-8]
   10660:	e2833001 	add	r3, r3, #1
   10664:	e50b3008 	str	r3, [fp, #-8]
   10668:	e51b200c 	ldr	r2, [fp, #-12]
   1066c:	e51b3010 	ldr	r3, [fp, #-16]
   10670:	e0632002 	rsb	r2, r3, r2
   10674:	e51b3008 	ldr	r3, [fp, #-8]
   10678:	e1520003 	cmp	r2, r3
   1067c:	2affffe8 	bcs	10624 <strstr+0x48>
   10680:	e3a03000 	mov	r3, #0
   10684:	e1a00003 	mov	r0, r3
   10688:	e24bd004 	sub	sp, fp, #4
   1068c:	e8bd8800 	pop	{fp, pc}

00010690 <strtok_r>:
   10690:	e92d4800 	push	{fp, lr}
   10694:	e28db004 	add	fp, sp, #4
   10698:	e24dd018 	sub	sp, sp, #24
   1069c:	e50b0010 	str	r0, [fp, #-16]
   106a0:	e50b1014 	str	r1, [fp, #-20]
   106a4:	e50b2018 	str	r2, [fp, #-24]
   106a8:	e51b3014 	ldr	r3, [fp, #-20]
   106ac:	e3530000 	cmp	r3, #0
   106b0:	1a000004 	bne	106c8 <strtok_r+0x38>
   106b4:	e59f013c 	ldr	r0, [pc, #316]	; 107f8 <strtok_r+0x168>
   106b8:	e3a010e3 	mov	r1, #227	; 0xe3
   106bc:	e59f2138 	ldr	r2, [pc, #312]	; 107fc <strtok_r+0x16c>
   106c0:	e59f3138 	ldr	r3, [pc, #312]	; 10800 <strtok_r+0x170>
   106c4:	ebffe330 	bl	938c <debug_panic>
   106c8:	e51b3018 	ldr	r3, [fp, #-24]
   106cc:	e3530000 	cmp	r3, #0
   106d0:	1a000004 	bne	106e8 <strtok_r+0x58>
   106d4:	e59f011c 	ldr	r0, [pc, #284]	; 107f8 <strtok_r+0x168>
   106d8:	e3a010e4 	mov	r1, #228	; 0xe4
   106dc:	e59f2118 	ldr	r2, [pc, #280]	; 107fc <strtok_r+0x16c>
   106e0:	e59f3118 	ldr	r3, [pc, #280]	; 10800 <strtok_r+0x170>
   106e4:	ebffe328 	bl	938c <debug_panic>
   106e8:	e51b3010 	ldr	r3, [fp, #-16]
   106ec:	e3530000 	cmp	r3, #0
   106f0:	1a000002 	bne	10700 <strtok_r+0x70>
   106f4:	e51b3018 	ldr	r3, [fp, #-24]
   106f8:	e5933000 	ldr	r3, [r3]
   106fc:	e50b3010 	str	r3, [fp, #-16]
   10700:	e51b3010 	ldr	r3, [fp, #-16]
   10704:	e3530000 	cmp	r3, #0
   10708:	1a000004 	bne	10720 <strtok_r+0x90>
   1070c:	e59f00e4 	ldr	r0, [pc, #228]	; 107f8 <strtok_r+0x168>
   10710:	e3a010ea 	mov	r1, #234	; 0xea
   10714:	e59f20e0 	ldr	r2, [pc, #224]	; 107fc <strtok_r+0x16c>
   10718:	e59f30e0 	ldr	r3, [pc, #224]	; 10800 <strtok_r+0x170>
   1071c:	ebffe31a 	bl	938c <debug_panic>
   10720:	ea00000b 	b	10754 <strtok_r+0xc4>
   10724:	e51b3010 	ldr	r3, [fp, #-16]
   10728:	e5d33000 	ldrb	r3, [r3]
   1072c:	e3530000 	cmp	r3, #0
   10730:	1a000004 	bne	10748 <strtok_r+0xb8>
   10734:	e51b3018 	ldr	r3, [fp, #-24]
   10738:	e51b2010 	ldr	r2, [fp, #-16]
   1073c:	e5832000 	str	r2, [r3]
   10740:	e3a03000 	mov	r3, #0
   10744:	ea000028 	b	107ec <strtok_r+0x15c>
   10748:	e51b3010 	ldr	r3, [fp, #-16]
   1074c:	e2833001 	add	r3, r3, #1
   10750:	e50b3010 	str	r3, [fp, #-16]
   10754:	e51b3010 	ldr	r3, [fp, #-16]
   10758:	e5d33000 	ldrb	r3, [r3]
   1075c:	e51b0014 	ldr	r0, [fp, #-20]
   10760:	e1a01003 	mov	r1, r3
   10764:	ebfffefe 	bl	10364 <strchr>
   10768:	e1a03000 	mov	r3, r0
   1076c:	e3530000 	cmp	r3, #0
   10770:	1affffeb 	bne	10724 <strtok_r+0x94>
   10774:	e51b3010 	ldr	r3, [fp, #-16]
   10778:	e50b3008 	str	r3, [fp, #-8]
   1077c:	ea000002 	b	1078c <strtok_r+0xfc>
   10780:	e51b3010 	ldr	r3, [fp, #-16]
   10784:	e2833001 	add	r3, r3, #1
   10788:	e50b3010 	str	r3, [fp, #-16]
   1078c:	e51b3010 	ldr	r3, [fp, #-16]
   10790:	e5d33000 	ldrb	r3, [r3]
   10794:	e51b0014 	ldr	r0, [fp, #-20]
   10798:	e1a01003 	mov	r1, r3
   1079c:	ebfffef0 	bl	10364 <strchr>
   107a0:	e1a03000 	mov	r3, r0
   107a4:	e3530000 	cmp	r3, #0
   107a8:	0afffff4 	beq	10780 <strtok_r+0xf0>
   107ac:	e51b3010 	ldr	r3, [fp, #-16]
   107b0:	e5d33000 	ldrb	r3, [r3]
   107b4:	e3530000 	cmp	r3, #0
   107b8:	0a000007 	beq	107dc <strtok_r+0x14c>
   107bc:	e51b3010 	ldr	r3, [fp, #-16]
   107c0:	e3a02000 	mov	r2, #0
   107c4:	e5c32000 	strb	r2, [r3]
   107c8:	e51b3010 	ldr	r3, [fp, #-16]
   107cc:	e2832001 	add	r2, r3, #1
   107d0:	e51b3018 	ldr	r3, [fp, #-24]
   107d4:	e5832000 	str	r2, [r3]
   107d8:	ea000002 	b	107e8 <strtok_r+0x158>
   107dc:	e51b3018 	ldr	r3, [fp, #-24]
   107e0:	e51b2010 	ldr	r2, [fp, #-16]
   107e4:	e5832000 	str	r2, [r3]
   107e8:	e51b3008 	ldr	r3, [fp, #-8]
   107ec:	e1a00003 	mov	r0, r3
   107f0:	e24bd004 	sub	sp, fp, #4
   107f4:	e8bd8800 	pop	{fp, pc}
   107f8:	00016494 	.word	0x00016494
   107fc:	000164e8 	.word	0x000164e8
   10800:	000164a4 	.word	0x000164a4

00010804 <memset>:
   10804:	e92d4800 	push	{fp, lr}
   10808:	e28db004 	add	fp, sp, #4
   1080c:	e24dd018 	sub	sp, sp, #24
   10810:	e50b0010 	str	r0, [fp, #-16]
   10814:	e50b1014 	str	r1, [fp, #-20]
   10818:	e50b2018 	str	r2, [fp, #-24]
   1081c:	e51b3010 	ldr	r3, [fp, #-16]
   10820:	e50b3008 	str	r3, [fp, #-8]
   10824:	e51b3008 	ldr	r3, [fp, #-8]
   10828:	e3530000 	cmp	r3, #0
   1082c:	1a000007 	bne	10850 <memset+0x4c>
   10830:	e51b3018 	ldr	r3, [fp, #-24]
   10834:	e3530000 	cmp	r3, #0
   10838:	0a000004 	beq	10850 <memset+0x4c>
   1083c:	e59f004c 	ldr	r0, [pc, #76]	; 10890 <memset+0x8c>
   10840:	e59f104c 	ldr	r1, [pc, #76]	; 10894 <memset+0x90>
   10844:	e59f204c 	ldr	r2, [pc, #76]	; 10898 <memset+0x94>
   10848:	e59f304c 	ldr	r3, [pc, #76]	; 1089c <memset+0x98>
   1084c:	ebffe2ce 	bl	938c <debug_panic>
   10850:	ea000005 	b	1086c <memset+0x68>
   10854:	e51b3008 	ldr	r3, [fp, #-8]
   10858:	e2832001 	add	r2, r3, #1
   1085c:	e50b2008 	str	r2, [fp, #-8]
   10860:	e51b2014 	ldr	r2, [fp, #-20]
   10864:	e6ef2072 	uxtb	r2, r2
   10868:	e5c32000 	strb	r2, [r3]
   1086c:	e51b3018 	ldr	r3, [fp, #-24]
   10870:	e2432001 	sub	r2, r3, #1
   10874:	e50b2018 	str	r2, [fp, #-24]
   10878:	e3530000 	cmp	r3, #0
   1087c:	1afffff4 	bne	10854 <memset+0x50>
   10880:	e51b3010 	ldr	r3, [fp, #-16]
   10884:	e1a00003 	mov	r0, r3
   10888:	e24bd004 	sub	sp, fp, #4
   1088c:	e8bd8800 	pop	{fp, pc}
   10890:	00016494 	.word	0x00016494
   10894:	0000010d 	.word	0x0000010d
   10898:	000164f4 	.word	0x000164f4
   1089c:	000164a4 	.word	0x000164a4

000108a0 <strlen>:
   108a0:	e92d4800 	push	{fp, lr}
   108a4:	e28db004 	add	fp, sp, #4
   108a8:	e24dd010 	sub	sp, sp, #16
   108ac:	e50b0010 	str	r0, [fp, #-16]
   108b0:	e51b3010 	ldr	r3, [fp, #-16]
   108b4:	e3530000 	cmp	r3, #0
   108b8:	1a000004 	bne	108d0 <strlen+0x30>
   108bc:	e59f004c 	ldr	r0, [pc, #76]	; 10910 <strlen+0x70>
   108c0:	e59f104c 	ldr	r1, [pc, #76]	; 10914 <strlen+0x74>
   108c4:	e59f204c 	ldr	r2, [pc, #76]	; 10918 <strlen+0x78>
   108c8:	e59f304c 	ldr	r3, [pc, #76]	; 1091c <strlen+0x7c>
   108cc:	ebffe2ae 	bl	938c <debug_panic>
   108d0:	e51b3010 	ldr	r3, [fp, #-16]
   108d4:	e50b3008 	str	r3, [fp, #-8]
   108d8:	ea000002 	b	108e8 <strlen+0x48>
   108dc:	e51b3008 	ldr	r3, [fp, #-8]
   108e0:	e2833001 	add	r3, r3, #1
   108e4:	e50b3008 	str	r3, [fp, #-8]
   108e8:	e51b3008 	ldr	r3, [fp, #-8]
   108ec:	e5d33000 	ldrb	r3, [r3]
   108f0:	e3530000 	cmp	r3, #0
   108f4:	1afffff8 	bne	108dc <strlen+0x3c>
   108f8:	e51b2008 	ldr	r2, [fp, #-8]
   108fc:	e51b3010 	ldr	r3, [fp, #-16]
   10900:	e0633002 	rsb	r3, r3, r2
   10904:	e1a00003 	mov	r0, r3
   10908:	e24bd004 	sub	sp, fp, #4
   1090c:	e8bd8800 	pop	{fp, pc}
   10910:	00016494 	.word	0x00016494
   10914:	0000011b 	.word	0x0000011b
   10918:	000164fc 	.word	0x000164fc
   1091c:	000164a4 	.word	0x000164a4

00010920 <strnlen>:
   10920:	e52db004 	push	{fp}		; (str fp, [sp, #-4]!)
   10924:	e28db000 	add	fp, sp, #0
   10928:	e24dd014 	sub	sp, sp, #20
   1092c:	e50b0010 	str	r0, [fp, #-16]
   10930:	e50b1014 	str	r1, [fp, #-20]
   10934:	e3a03000 	mov	r3, #0
   10938:	e50b3008 	str	r3, [fp, #-8]
   1093c:	ea000002 	b	1094c <strnlen+0x2c>
   10940:	e51b3008 	ldr	r3, [fp, #-8]
   10944:	e2833001 	add	r3, r3, #1
   10948:	e50b3008 	str	r3, [fp, #-8]
   1094c:	e51b2010 	ldr	r2, [fp, #-16]
   10950:	e51b3008 	ldr	r3, [fp, #-8]
   10954:	e0823003 	add	r3, r2, r3
   10958:	e5d33000 	ldrb	r3, [r3]
   1095c:	e3530000 	cmp	r3, #0
   10960:	0a000003 	beq	10974 <strnlen+0x54>
   10964:	e51b2008 	ldr	r2, [fp, #-8]
   10968:	e51b3014 	ldr	r3, [fp, #-20]
   1096c:	e1520003 	cmp	r2, r3
   10970:	3afffff2 	bcc	10940 <strnlen+0x20>
   10974:	e51b3008 	ldr	r3, [fp, #-8]
   10978:	e1a00003 	mov	r0, r3
   1097c:	e24bd000 	sub	sp, fp, #0
   10980:	e49db004 	pop	{fp}		; (ldr fp, [sp], #4)
   10984:	e12fff1e 	bx	lr

00010988 <strlcpy>:
   10988:	e92d4800 	push	{fp, lr}
   1098c:	e28db004 	add	fp, sp, #4
   10990:	e24dd018 	sub	sp, sp, #24
   10994:	e50b0010 	str	r0, [fp, #-16]
   10998:	e50b1014 	str	r1, [fp, #-20]
   1099c:	e50b2018 	str	r2, [fp, #-24]
   109a0:	e51b3010 	ldr	r3, [fp, #-16]
   109a4:	e3530000 	cmp	r3, #0
   109a8:	1a000004 	bne	109c0 <strlcpy+0x38>
   109ac:	e59f009c 	ldr	r0, [pc, #156]	; 10a50 <strlcpy+0xc8>
   109b0:	e3a01f4f 	mov	r1, #316	; 0x13c
   109b4:	e59f2098 	ldr	r2, [pc, #152]	; 10a54 <strlcpy+0xcc>
   109b8:	e59f3098 	ldr	r3, [pc, #152]	; 10a58 <strlcpy+0xd0>
   109bc:	ebffe272 	bl	938c <debug_panic>
   109c0:	e51b3014 	ldr	r3, [fp, #-20]
   109c4:	e3530000 	cmp	r3, #0
   109c8:	1a000004 	bne	109e0 <strlcpy+0x58>
   109cc:	e59f007c 	ldr	r0, [pc, #124]	; 10a50 <strlcpy+0xc8>
   109d0:	e59f1084 	ldr	r1, [pc, #132]	; 10a5c <strlcpy+0xd4>
   109d4:	e59f2078 	ldr	r2, [pc, #120]	; 10a54 <strlcpy+0xcc>
   109d8:	e59f3078 	ldr	r3, [pc, #120]	; 10a58 <strlcpy+0xd0>
   109dc:	ebffe26a 	bl	938c <debug_panic>
   109e0:	e51b0014 	ldr	r0, [fp, #-20]
   109e4:	ebffffad 	bl	108a0 <strlen>
   109e8:	e50b000c 	str	r0, [fp, #-12]
   109ec:	e51b3018 	ldr	r3, [fp, #-24]
   109f0:	e3530000 	cmp	r3, #0
   109f4:	0a000011 	beq	10a40 <strlcpy+0xb8>
   109f8:	e51b3018 	ldr	r3, [fp, #-24]
   109fc:	e2433001 	sub	r3, r3, #1
   10a00:	e50b3008 	str	r3, [fp, #-8]
   10a04:	e51b200c 	ldr	r2, [fp, #-12]
   10a08:	e51b3008 	ldr	r3, [fp, #-8]
   10a0c:	e1520003 	cmp	r2, r3
   10a10:	2a000001 	bcs	10a1c <strlcpy+0x94>
   10a14:	e51b300c 	ldr	r3, [fp, #-12]
   10a18:	e50b3008 	str	r3, [fp, #-8]
   10a1c:	e51b0010 	ldr	r0, [fp, #-16]
   10a20:	e51b1014 	ldr	r1, [fp, #-20]
   10a24:	e51b2008 	ldr	r2, [fp, #-8]
   10a28:	ebfffd17 	bl	fe8c <memcpy>
   10a2c:	e51b2010 	ldr	r2, [fp, #-16]
   10a30:	e51b3008 	ldr	r3, [fp, #-8]
   10a34:	e0823003 	add	r3, r2, r3
   10a38:	e3a02000 	mov	r2, #0
   10a3c:	e5c32000 	strb	r2, [r3]
   10a40:	e51b300c 	ldr	r3, [fp, #-12]
   10a44:	e1a00003 	mov	r0, r3
   10a48:	e24bd004 	sub	sp, fp, #4
   10a4c:	e8bd8800 	pop	{fp, pc}
   10a50:	00016494 	.word	0x00016494
   10a54:	00016504 	.word	0x00016504
   10a58:	000164a4 	.word	0x000164a4
   10a5c:	0000013d 	.word	0x0000013d

00010a60 <strlcat>:
   10a60:	e92d4800 	push	{fp, lr}
   10a64:	e28db004 	add	fp, sp, #4
   10a68:	e24dd020 	sub	sp, sp, #32
   10a6c:	e50b0018 	str	r0, [fp, #-24]
   10a70:	e50b101c 	str	r1, [fp, #-28]
   10a74:	e50b2020 	str	r2, [fp, #-32]
   10a78:	e51b3018 	ldr	r3, [fp, #-24]
   10a7c:	e3530000 	cmp	r3, #0
   10a80:	1a000004 	bne	10a98 <strlcat+0x38>
   10a84:	e59f00dc 	ldr	r0, [pc, #220]	; 10b68 <strlcat+0x108>
   10a88:	e59f10dc 	ldr	r1, [pc, #220]	; 10b6c <strlcat+0x10c>
   10a8c:	e59f20dc 	ldr	r2, [pc, #220]	; 10b70 <strlcat+0x110>
   10a90:	e59f30dc 	ldr	r3, [pc, #220]	; 10b74 <strlcat+0x114>
   10a94:	ebffe23c 	bl	938c <debug_panic>
   10a98:	e51b301c 	ldr	r3, [fp, #-28]
   10a9c:	e3530000 	cmp	r3, #0
   10aa0:	1a000004 	bne	10ab8 <strlcat+0x58>
   10aa4:	e59f00bc 	ldr	r0, [pc, #188]	; 10b68 <strlcat+0x108>
   10aa8:	e59f10c8 	ldr	r1, [pc, #200]	; 10b78 <strlcat+0x118>
   10aac:	e59f20bc 	ldr	r2, [pc, #188]	; 10b70 <strlcat+0x110>
   10ab0:	e59f30bc 	ldr	r3, [pc, #188]	; 10b74 <strlcat+0x114>
   10ab4:	ebffe234 	bl	938c <debug_panic>
   10ab8:	e51b001c 	ldr	r0, [fp, #-28]
   10abc:	ebffff77 	bl	108a0 <strlen>
   10ac0:	e50b000c 	str	r0, [fp, #-12]
   10ac4:	e51b0018 	ldr	r0, [fp, #-24]
   10ac8:	ebffff74 	bl	108a0 <strlen>
   10acc:	e50b0010 	str	r0, [fp, #-16]
   10ad0:	e51b3020 	ldr	r3, [fp, #-32]
   10ad4:	e3530000 	cmp	r3, #0
   10ad8:	0a00001c 	beq	10b50 <strlcat+0xf0>
   10adc:	e51b2010 	ldr	r2, [fp, #-16]
   10ae0:	e51b3020 	ldr	r3, [fp, #-32]
   10ae4:	e1520003 	cmp	r2, r3
   10ae8:	2a000018 	bcs	10b50 <strlcat+0xf0>
   10aec:	e51b2020 	ldr	r2, [fp, #-32]
   10af0:	e51b3010 	ldr	r3, [fp, #-16]
   10af4:	e0633002 	rsb	r3, r3, r2
   10af8:	e2433001 	sub	r3, r3, #1
   10afc:	e50b3008 	str	r3, [fp, #-8]
   10b00:	e51b200c 	ldr	r2, [fp, #-12]
   10b04:	e51b3008 	ldr	r3, [fp, #-8]
   10b08:	e1520003 	cmp	r2, r3
   10b0c:	2a000001 	bcs	10b18 <strlcat+0xb8>
   10b10:	e51b300c 	ldr	r3, [fp, #-12]
   10b14:	e50b3008 	str	r3, [fp, #-8]
   10b18:	e51b2018 	ldr	r2, [fp, #-24]
   10b1c:	e51b3010 	ldr	r3, [fp, #-16]
   10b20:	e0823003 	add	r3, r2, r3
   10b24:	e1a00003 	mov	r0, r3
   10b28:	e51b101c 	ldr	r1, [fp, #-28]
   10b2c:	e51b2008 	ldr	r2, [fp, #-8]
   10b30:	ebfffcd5 	bl	fe8c <memcpy>
   10b34:	e51b2010 	ldr	r2, [fp, #-16]
   10b38:	e51b3008 	ldr	r3, [fp, #-8]
   10b3c:	e0823003 	add	r3, r2, r3
   10b40:	e51b2018 	ldr	r2, [fp, #-24]
   10b44:	e0823003 	add	r3, r2, r3
   10b48:	e3a02000 	mov	r2, #0
   10b4c:	e5c32000 	strb	r2, [r3]
   10b50:	e51b200c 	ldr	r2, [fp, #-12]
   10b54:	e51b3010 	ldr	r3, [fp, #-16]
   10b58:	e0823003 	add	r3, r2, r3
   10b5c:	e1a00003 	mov	r0, r3
   10b60:	e24bd004 	sub	sp, fp, #4
   10b64:	e8bd8800 	pop	{fp, pc}
   10b68:	00016494 	.word	0x00016494
   10b6c:	0000015a 	.word	0x0000015a
   10b70:	0001650c 	.word	0x0001650c
   10b74:	000164a4 	.word	0x000164a4
   10b78:	0000015b 	.word	0x0000015b

00010b7c <sema_init>:
   10b7c:	e92d4800 	push	{fp, lr}
   10b80:	e28db004 	add	fp, sp, #4
   10b84:	e24dd008 	sub	sp, sp, #8
   10b88:	e50b0008 	str	r0, [fp, #-8]
   10b8c:	e50b100c 	str	r1, [fp, #-12]
   10b90:	e51b3008 	ldr	r3, [fp, #-8]
   10b94:	e3530000 	cmp	r3, #0
   10b98:	1a000004 	bne	10bb0 <sema_init+0x34>
   10b9c:	e59f0030 	ldr	r0, [pc, #48]	; 10bd4 <sema_init+0x58>
   10ba0:	e3a0102f 	mov	r1, #47	; 0x2f
   10ba4:	e59f202c 	ldr	r2, [pc, #44]	; 10bd8 <sema_init+0x5c>
   10ba8:	e59f302c 	ldr	r3, [pc, #44]	; 10bdc <sema_init+0x60>
   10bac:	ebffe1f6 	bl	938c <debug_panic>
   10bb0:	e51b3008 	ldr	r3, [fp, #-8]
   10bb4:	e51b200c 	ldr	r2, [fp, #-12]
   10bb8:	e5832000 	str	r2, [r3]
   10bbc:	e51b3008 	ldr	r3, [fp, #-8]
   10bc0:	e2833004 	add	r3, r3, #4
   10bc4:	e1a00003 	mov	r0, r3
   10bc8:	ebffe8c7 	bl	aeec <list_init>
   10bcc:	e24bd004 	sub	sp, fp, #4
   10bd0:	e8bd8800 	pop	{fp, pc}
   10bd4:	00016514 	.word	0x00016514
   10bd8:	00016544 	.word	0x00016544
   10bdc:	00016524 	.word	0x00016524

00010be0 <sema_down>:
   10be0:	e92d4810 	push	{r4, fp, lr}
   10be4:	e28db008 	add	fp, sp, #8
   10be8:	e24dd014 	sub	sp, sp, #20
   10bec:	e50b0018 	str	r0, [fp, #-24]
   10bf0:	e51b3018 	ldr	r3, [fp, #-24]
   10bf4:	e3530000 	cmp	r3, #0
   10bf8:	1a000004 	bne	10c10 <sema_down+0x30>
   10bfc:	e59f00a4 	ldr	r0, [pc, #164]	; 10ca8 <sema_down+0xc8>
   10c00:	e3a01041 	mov	r1, #65	; 0x41
   10c04:	e59f20a0 	ldr	r2, [pc, #160]	; 10cac <sema_down+0xcc>
   10c08:	e59f30a0 	ldr	r3, [pc, #160]	; 10cb0 <sema_down+0xd0>
   10c0c:	ebffe1de 	bl	938c <debug_panic>
   10c10:	ebffede1 	bl	c39c <interrupts_context>
   10c14:	e1a03000 	mov	r3, r0
   10c18:	e2233001 	eor	r3, r3, #1
   10c1c:	e6ef3073 	uxtb	r3, r3
   10c20:	e3530000 	cmp	r3, #0
   10c24:	1a000004 	bne	10c3c <sema_down+0x5c>
   10c28:	e59f0078 	ldr	r0, [pc, #120]	; 10ca8 <sema_down+0xc8>
   10c2c:	e3a01042 	mov	r1, #66	; 0x42
   10c30:	e59f2074 	ldr	r2, [pc, #116]	; 10cac <sema_down+0xcc>
   10c34:	e59f3074 	ldr	r3, [pc, #116]	; 10cb0 <sema_down+0xd0>
   10c38:	ebffe1d3 	bl	938c <debug_panic>
   10c3c:	ebffeda4 	bl	c2d4 <interrupts_disable>
   10c40:	e1a03000 	mov	r3, r0
   10c44:	e54b300d 	strb	r3, [fp, #-13]
   10c48:	ea000008 	b	10c70 <sema_down+0x90>
   10c4c:	e51b3018 	ldr	r3, [fp, #-24]
   10c50:	e2834004 	add	r4, r3, #4
   10c54:	eb0004ba 	bl	11f44 <thread_current>
   10c58:	e1a03000 	mov	r3, r0
   10c5c:	e2833084 	add	r3, r3, #132	; 0x84
   10c60:	e1a00004 	mov	r0, r4
   10c64:	e1a01003 	mov	r1, r3
   10c68:	ebffe9f3 	bl	b43c <list_push_back>
   10c6c:	eb000461 	bl	11df8 <thread_block>
   10c70:	e51b3018 	ldr	r3, [fp, #-24]
   10c74:	e5933000 	ldr	r3, [r3]
   10c78:	e3530000 	cmp	r3, #0
   10c7c:	0afffff2 	beq	10c4c <sema_down+0x6c>
   10c80:	e51b3018 	ldr	r3, [fp, #-24]
   10c84:	e5933000 	ldr	r3, [r3]
   10c88:	e2432001 	sub	r2, r3, #1
   10c8c:	e51b3018 	ldr	r3, [fp, #-24]
   10c90:	e5832000 	str	r2, [r3]
   10c94:	e55b300d 	ldrb	r3, [fp, #-13]
   10c98:	e1a00003 	mov	r0, r3
   10c9c:	ebffed71 	bl	c268 <interrupts_set_level>
   10ca0:	e24bd008 	sub	sp, fp, #8
   10ca4:	e8bd8810 	pop	{r4, fp, pc}
   10ca8:	00016514 	.word	0x00016514
   10cac:	00016550 	.word	0x00016550
   10cb0:	00016524 	.word	0x00016524

00010cb4 <sema_try_down>:
   10cb4:	e92d4800 	push	{fp, lr}
   10cb8:	e28db004 	add	fp, sp, #4
   10cbc:	e24dd010 	sub	sp, sp, #16
   10cc0:	e50b0010 	str	r0, [fp, #-16]
   10cc4:	e51b3010 	ldr	r3, [fp, #-16]
   10cc8:	e3530000 	cmp	r3, #0
   10ccc:	1a000004 	bne	10ce4 <sema_try_down+0x30>
   10cd0:	e59f006c 	ldr	r0, [pc, #108]	; 10d44 <sema_try_down+0x90>
   10cd4:	e3a01059 	mov	r1, #89	; 0x59
   10cd8:	e59f2068 	ldr	r2, [pc, #104]	; 10d48 <sema_try_down+0x94>
   10cdc:	e59f3068 	ldr	r3, [pc, #104]	; 10d4c <sema_try_down+0x98>
   10ce0:	ebffe1a9 	bl	938c <debug_panic>
   10ce4:	ebffed7a 	bl	c2d4 <interrupts_disable>
   10ce8:	e1a03000 	mov	r3, r0
   10cec:	e54b3006 	strb	r3, [fp, #-6]
   10cf0:	e51b3010 	ldr	r3, [fp, #-16]
   10cf4:	e5933000 	ldr	r3, [r3]
   10cf8:	e3530000 	cmp	r3, #0
   10cfc:	0a000007 	beq	10d20 <sema_try_down+0x6c>
   10d00:	e51b3010 	ldr	r3, [fp, #-16]
   10d04:	e5933000 	ldr	r3, [r3]
   10d08:	e2432001 	sub	r2, r3, #1
   10d0c:	e51b3010 	ldr	r3, [fp, #-16]
   10d10:	e5832000 	str	r2, [r3]
   10d14:	e3a03001 	mov	r3, #1
   10d18:	e54b3005 	strb	r3, [fp, #-5]
   10d1c:	ea000001 	b	10d28 <sema_try_down+0x74>
   10d20:	e3a03000 	mov	r3, #0
   10d24:	e54b3005 	strb	r3, [fp, #-5]
   10d28:	e55b3006 	ldrb	r3, [fp, #-6]
   10d2c:	e1a00003 	mov	r0, r3
   10d30:	ebffed4c 	bl	c268 <interrupts_set_level>
   10d34:	e55b3005 	ldrb	r3, [fp, #-5]
   10d38:	e1a00003 	mov	r0, r3
   10d3c:	e24bd004 	sub	sp, fp, #4
   10d40:	e8bd8800 	pop	{fp, pc}
   10d44:	00016514 	.word	0x00016514
   10d48:	0001655c 	.word	0x0001655c
   10d4c:	00016524 	.word	0x00016524

00010d50 <sema_up>:
   10d50:	e92d4800 	push	{fp, lr}
   10d54:	e28db004 	add	fp, sp, #4
   10d58:	e24dd010 	sub	sp, sp, #16
   10d5c:	e50b0010 	str	r0, [fp, #-16]
   10d60:	e51b3010 	ldr	r3, [fp, #-16]
   10d64:	e3530000 	cmp	r3, #0
   10d68:	1a000004 	bne	10d80 <sema_up+0x30>
   10d6c:	e59f0088 	ldr	r0, [pc, #136]	; 10dfc <sema_up+0xac>
   10d70:	e3a01071 	mov	r1, #113	; 0x71
   10d74:	e59f2084 	ldr	r2, [pc, #132]	; 10e00 <sema_up+0xb0>
   10d78:	e59f3084 	ldr	r3, [pc, #132]	; 10e04 <sema_up+0xb4>
   10d7c:	ebffe182 	bl	938c <debug_panic>
   10d80:	ebffed53 	bl	c2d4 <interrupts_disable>
   10d84:	e1a03000 	mov	r3, r0
   10d88:	e54b3005 	strb	r3, [fp, #-5]
   10d8c:	e51b3010 	ldr	r3, [fp, #-16]
   10d90:	e2833004 	add	r3, r3, #4
   10d94:	e1a00003 	mov	r0, r3
   10d98:	ebffea39 	bl	b684 <list_empty>
   10d9c:	e1a03000 	mov	r3, r0
   10da0:	e2233001 	eor	r3, r3, #1
   10da4:	e6ef3073 	uxtb	r3, r3
   10da8:	e3530000 	cmp	r3, #0
   10dac:	0a000008 	beq	10dd4 <sema_up+0x84>
   10db0:	e51b3010 	ldr	r3, [fp, #-16]
   10db4:	e2833004 	add	r3, r3, #4
   10db8:	e1a00003 	mov	r0, r3
   10dbc:	ebffe9cb 	bl	b4f0 <list_pop_front>
   10dc0:	e1a03000 	mov	r3, r0
   10dc4:	e2833004 	add	r3, r3, #4
   10dc8:	e2433088 	sub	r3, r3, #136	; 0x88
   10dcc:	e1a00003 	mov	r0, r3
   10dd0:	eb000428 	bl	11e78 <thread_unblock>
   10dd4:	e51b3010 	ldr	r3, [fp, #-16]
   10dd8:	e5933000 	ldr	r3, [r3]
   10ddc:	e2832001 	add	r2, r3, #1
   10de0:	e51b3010 	ldr	r3, [fp, #-16]
   10de4:	e5832000 	str	r2, [r3]
   10de8:	e55b3005 	ldrb	r3, [fp, #-5]
   10dec:	e1a00003 	mov	r0, r3
   10df0:	ebffed1c 	bl	c268 <interrupts_set_level>
   10df4:	e24bd004 	sub	sp, fp, #4
   10df8:	e8bd8800 	pop	{fp, pc}
   10dfc:	00016514 	.word	0x00016514
   10e00:	0001656c 	.word	0x0001656c
   10e04:	00016524 	.word	0x00016524

00010e08 <sema_self_test>:
   10e08:	e92d4800 	push	{fp, lr}
   10e0c:	e28db004 	add	fp, sp, #4
   10e10:	e24dd030 	sub	sp, sp, #48	; 0x30
   10e14:	e24b3030 	sub	r3, fp, #48	; 0x30
   10e18:	e1a00003 	mov	r0, r3
   10e1c:	e3a01000 	mov	r1, #0
   10e20:	ebffff55 	bl	10b7c <sema_init>
   10e24:	e24b3030 	sub	r3, fp, #48	; 0x30
   10e28:	e2833014 	add	r3, r3, #20
   10e2c:	e1a00003 	mov	r0, r3
   10e30:	e3a01000 	mov	r1, #0
   10e34:	ebffff50 	bl	10b7c <sema_init>
   10e38:	e24b3030 	sub	r3, fp, #48	; 0x30
   10e3c:	e59f0050 	ldr	r0, [pc, #80]	; 10e94 <sema_self_test+0x8c>
   10e40:	e3a0101f 	mov	r1, #31
   10e44:	e59f204c 	ldr	r2, [pc, #76]	; 10e98 <sema_self_test+0x90>
   10e48:	eb000340 	bl	11b50 <thread_create>
   10e4c:	e3a03000 	mov	r3, #0
   10e50:	e50b3008 	str	r3, [fp, #-8]
   10e54:	ea000009 	b	10e80 <sema_self_test+0x78>
   10e58:	e24b3030 	sub	r3, fp, #48	; 0x30
   10e5c:	e1a00003 	mov	r0, r3
   10e60:	ebffffba 	bl	10d50 <sema_up>
   10e64:	e24b3030 	sub	r3, fp, #48	; 0x30
   10e68:	e2833014 	add	r3, r3, #20
   10e6c:	e1a00003 	mov	r0, r3
   10e70:	ebffff5a 	bl	10be0 <sema_down>
   10e74:	e51b3008 	ldr	r3, [fp, #-8]
   10e78:	e2833001 	add	r3, r3, #1
   10e7c:	e50b3008 	str	r3, [fp, #-8]
   10e80:	e51b3008 	ldr	r3, [fp, #-8]
   10e84:	e3530009 	cmp	r3, #9
   10e88:	dafffff2 	ble	10e58 <sema_self_test+0x50>
   10e8c:	e24bd004 	sub	sp, fp, #4
   10e90:	e8bd8800 	pop	{fp, pc}
   10e94:	00016538 	.word	0x00016538
   10e98:	00010e9c 	.word	0x00010e9c

00010e9c <sema_test_helper>:
   10e9c:	e92d4800 	push	{fp, lr}
   10ea0:	e28db004 	add	fp, sp, #4
   10ea4:	e24dd010 	sub	sp, sp, #16
   10ea8:	e50b0010 	str	r0, [fp, #-16]
   10eac:	e51b3010 	ldr	r3, [fp, #-16]
   10eb0:	e50b300c 	str	r3, [fp, #-12]
   10eb4:	e3a03000 	mov	r3, #0
   10eb8:	e50b3008 	str	r3, [fp, #-8]
   10ebc:	ea000008 	b	10ee4 <sema_test_helper+0x48>
   10ec0:	e51b000c 	ldr	r0, [fp, #-12]
   10ec4:	ebffff45 	bl	10be0 <sema_down>
   10ec8:	e51b300c 	ldr	r3, [fp, #-12]
   10ecc:	e2833014 	add	r3, r3, #20
   10ed0:	e1a00003 	mov	r0, r3
   10ed4:	ebffff9d 	bl	10d50 <sema_up>
   10ed8:	e51b3008 	ldr	r3, [fp, #-8]
   10edc:	e2833001 	add	r3, r3, #1
   10ee0:	e50b3008 	str	r3, [fp, #-8]
   10ee4:	e51b3008 	ldr	r3, [fp, #-8]
   10ee8:	e3530009 	cmp	r3, #9
   10eec:	dafffff3 	ble	10ec0 <sema_test_helper+0x24>
   10ef0:	e24bd004 	sub	sp, fp, #4
   10ef4:	e8bd8800 	pop	{fp, pc}

00010ef8 <lock_init>:
   10ef8:	e92d4800 	push	{fp, lr}
   10efc:	e28db004 	add	fp, sp, #4
   10f00:	e24dd008 	sub	sp, sp, #8
   10f04:	e50b0008 	str	r0, [fp, #-8]
   10f08:	e51b3008 	ldr	r3, [fp, #-8]
   10f0c:	e3530000 	cmp	r3, #0
   10f10:	1a000004 	bne	10f28 <lock_init+0x30>
   10f14:	e59f0034 	ldr	r0, [pc, #52]	; 10f50 <lock_init+0x58>
   10f18:	e3a010b2 	mov	r1, #178	; 0xb2
   10f1c:	e59f2030 	ldr	r2, [pc, #48]	; 10f54 <lock_init+0x5c>
   10f20:	e59f3030 	ldr	r3, [pc, #48]	; 10f58 <lock_init+0x60>
   10f24:	ebffe118 	bl	938c <debug_panic>
   10f28:	e51b3008 	ldr	r3, [fp, #-8]
   10f2c:	e3a02000 	mov	r2, #0
   10f30:	e5832000 	str	r2, [r3]
   10f34:	e51b3008 	ldr	r3, [fp, #-8]
   10f38:	e2833004 	add	r3, r3, #4
   10f3c:	e1a00003 	mov	r0, r3
   10f40:	e3a01001 	mov	r1, #1
   10f44:	ebffff0c 	bl	10b7c <sema_init>
   10f48:	e24bd004 	sub	sp, fp, #4
   10f4c:	e8bd8800 	pop	{fp, pc}
   10f50:	00016514 	.word	0x00016514
   10f54:	00016574 	.word	0x00016574
   10f58:	00016524 	.word	0x00016524

00010f5c <lock_acquire>:
   10f5c:	e92d4800 	push	{fp, lr}
   10f60:	e28db004 	add	fp, sp, #4
   10f64:	e24dd008 	sub	sp, sp, #8
   10f68:	e50b0008 	str	r0, [fp, #-8]
   10f6c:	e51b3008 	ldr	r3, [fp, #-8]
   10f70:	e3530000 	cmp	r3, #0
   10f74:	1a000004 	bne	10f8c <lock_acquire+0x30>
   10f78:	e59f0090 	ldr	r0, [pc, #144]	; 11010 <lock_acquire+0xb4>
   10f7c:	e3a010c3 	mov	r1, #195	; 0xc3
   10f80:	e59f208c 	ldr	r2, [pc, #140]	; 11014 <lock_acquire+0xb8>
   10f84:	e59f308c 	ldr	r3, [pc, #140]	; 11018 <lock_acquire+0xbc>
   10f88:	ebffe0ff 	bl	938c <debug_panic>
   10f8c:	ebffed02 	bl	c39c <interrupts_context>
   10f90:	e1a03000 	mov	r3, r0
   10f94:	e2233001 	eor	r3, r3, #1
   10f98:	e6ef3073 	uxtb	r3, r3
   10f9c:	e3530000 	cmp	r3, #0
   10fa0:	1a000004 	bne	10fb8 <lock_acquire+0x5c>
   10fa4:	e59f0064 	ldr	r0, [pc, #100]	; 11010 <lock_acquire+0xb4>
   10fa8:	e3a010c4 	mov	r1, #196	; 0xc4
   10fac:	e59f2060 	ldr	r2, [pc, #96]	; 11014 <lock_acquire+0xb8>
   10fb0:	e59f3060 	ldr	r3, [pc, #96]	; 11018 <lock_acquire+0xbc>
   10fb4:	ebffe0f4 	bl	938c <debug_panic>
   10fb8:	e51b0008 	ldr	r0, [fp, #-8]
   10fbc:	eb000064 	bl	11154 <lock_held_by_current_thread>
   10fc0:	e1a03000 	mov	r3, r0
   10fc4:	e2233001 	eor	r3, r3, #1
   10fc8:	e6ef3073 	uxtb	r3, r3
   10fcc:	e3530000 	cmp	r3, #0
   10fd0:	1a000004 	bne	10fe8 <lock_acquire+0x8c>
   10fd4:	e59f0034 	ldr	r0, [pc, #52]	; 11010 <lock_acquire+0xb4>
   10fd8:	e3a010c5 	mov	r1, #197	; 0xc5
   10fdc:	e59f2030 	ldr	r2, [pc, #48]	; 11014 <lock_acquire+0xb8>
   10fe0:	e59f3030 	ldr	r3, [pc, #48]	; 11018 <lock_acquire+0xbc>
   10fe4:	ebffe0e8 	bl	938c <debug_panic>
   10fe8:	e51b3008 	ldr	r3, [fp, #-8]
   10fec:	e2833004 	add	r3, r3, #4
   10ff0:	e1a00003 	mov	r0, r3
   10ff4:	ebfffef9 	bl	10be0 <sema_down>
   10ff8:	eb0003d1 	bl	11f44 <thread_current>
   10ffc:	e1a02000 	mov	r2, r0
   11000:	e51b3008 	ldr	r3, [fp, #-8]
   11004:	e5832000 	str	r2, [r3]
   11008:	e24bd004 	sub	sp, fp, #4
   1100c:	e8bd8800 	pop	{fp, pc}
   11010:	00016514 	.word	0x00016514
   11014:	00016580 	.word	0x00016580
   11018:	00016524 	.word	0x00016524

0001101c <lock_try_acquire>:
   1101c:	e92d4800 	push	{fp, lr}
   11020:	e28db004 	add	fp, sp, #4
   11024:	e24dd010 	sub	sp, sp, #16
   11028:	e50b0010 	str	r0, [fp, #-16]
   1102c:	e51b3010 	ldr	r3, [fp, #-16]
   11030:	e3530000 	cmp	r3, #0
   11034:	1a000004 	bne	1104c <lock_try_acquire+0x30>
   11038:	e59f0080 	ldr	r0, [pc, #128]	; 110c0 <lock_try_acquire+0xa4>
   1103c:	e3a010d6 	mov	r1, #214	; 0xd6
   11040:	e59f207c 	ldr	r2, [pc, #124]	; 110c4 <lock_try_acquire+0xa8>
   11044:	e59f307c 	ldr	r3, [pc, #124]	; 110c8 <lock_try_acquire+0xac>
   11048:	ebffe0cf 	bl	938c <debug_panic>
   1104c:	e51b0010 	ldr	r0, [fp, #-16]
   11050:	eb00003f 	bl	11154 <lock_held_by_current_thread>
   11054:	e1a03000 	mov	r3, r0
   11058:	e2233001 	eor	r3, r3, #1
   1105c:	e6ef3073 	uxtb	r3, r3
   11060:	e3530000 	cmp	r3, #0
   11064:	1a000004 	bne	1107c <lock_try_acquire+0x60>
   11068:	e59f0050 	ldr	r0, [pc, #80]	; 110c0 <lock_try_acquire+0xa4>
   1106c:	e3a010d7 	mov	r1, #215	; 0xd7
   11070:	e59f204c 	ldr	r2, [pc, #76]	; 110c4 <lock_try_acquire+0xa8>
   11074:	e59f304c 	ldr	r3, [pc, #76]	; 110c8 <lock_try_acquire+0xac>
   11078:	ebffe0c3 	bl	938c <debug_panic>
   1107c:	e51b3010 	ldr	r3, [fp, #-16]
   11080:	e2833004 	add	r3, r3, #4
   11084:	e1a00003 	mov	r0, r3
   11088:	ebffff09 	bl	10cb4 <sema_try_down>
   1108c:	e1a03000 	mov	r3, r0
   11090:	e54b3005 	strb	r3, [fp, #-5]
   11094:	e55b3005 	ldrb	r3, [fp, #-5]
   11098:	e3530000 	cmp	r3, #0
   1109c:	0a000003 	beq	110b0 <lock_try_acquire+0x94>
   110a0:	eb0003a7 	bl	11f44 <thread_current>
   110a4:	e1a02000 	mov	r2, r0
   110a8:	e51b3010 	ldr	r3, [fp, #-16]
   110ac:	e5832000 	str	r2, [r3]
   110b0:	e55b3005 	ldrb	r3, [fp, #-5]
   110b4:	e1a00003 	mov	r0, r3
   110b8:	e24bd004 	sub	sp, fp, #4
   110bc:	e8bd8800 	pop	{fp, pc}
   110c0:	00016514 	.word	0x00016514
   110c4:	00016590 	.word	0x00016590
   110c8:	00016524 	.word	0x00016524

000110cc <lock_release>:
   110cc:	e92d4800 	push	{fp, lr}
   110d0:	e28db004 	add	fp, sp, #4
   110d4:	e24dd008 	sub	sp, sp, #8
   110d8:	e50b0008 	str	r0, [fp, #-8]
   110dc:	e51b3008 	ldr	r3, [fp, #-8]
   110e0:	e3530000 	cmp	r3, #0
   110e4:	1a000004 	bne	110fc <lock_release+0x30>
   110e8:	e59f0058 	ldr	r0, [pc, #88]	; 11148 <lock_release+0x7c>
   110ec:	e3a010e7 	mov	r1, #231	; 0xe7
   110f0:	e59f2054 	ldr	r2, [pc, #84]	; 1114c <lock_release+0x80>
   110f4:	e59f3054 	ldr	r3, [pc, #84]	; 11150 <lock_release+0x84>
   110f8:	ebffe0a3 	bl	938c <debug_panic>
   110fc:	e51b0008 	ldr	r0, [fp, #-8]
   11100:	eb000013 	bl	11154 <lock_held_by_current_thread>
   11104:	e1a03000 	mov	r3, r0
   11108:	e3530000 	cmp	r3, #0
   1110c:	1a000004 	bne	11124 <lock_release+0x58>
   11110:	e59f0030 	ldr	r0, [pc, #48]	; 11148 <lock_release+0x7c>
   11114:	e3a010e8 	mov	r1, #232	; 0xe8
   11118:	e59f202c 	ldr	r2, [pc, #44]	; 1114c <lock_release+0x80>
   1111c:	e59f302c 	ldr	r3, [pc, #44]	; 11150 <lock_release+0x84>
   11120:	ebffe099 	bl	938c <debug_panic>
   11124:	e51b3008 	ldr	r3, [fp, #-8]
   11128:	e3a02000 	mov	r2, #0
   1112c:	e5832000 	str	r2, [r3]
   11130:	e51b3008 	ldr	r3, [fp, #-8]
   11134:	e2833004 	add	r3, r3, #4
   11138:	e1a00003 	mov	r0, r3
   1113c:	ebffff03 	bl	10d50 <sema_up>
   11140:	e24bd004 	sub	sp, fp, #4
   11144:	e8bd8800 	pop	{fp, pc}
   11148:	00016514 	.word	0x00016514
   1114c:	000165a4 	.word	0x000165a4
   11150:	00016524 	.word	0x00016524

00011154 <lock_held_by_current_thread>:
   11154:	e92d4810 	push	{r4, fp, lr}
   11158:	e28db008 	add	fp, sp, #8
   1115c:	e24dd00c 	sub	sp, sp, #12
   11160:	e50b0010 	str	r0, [fp, #-16]
   11164:	e51b3010 	ldr	r3, [fp, #-16]
   11168:	e3530000 	cmp	r3, #0
   1116c:	1a000004 	bne	11184 <lock_held_by_current_thread+0x30>
   11170:	e59f0038 	ldr	r0, [pc, #56]	; 111b0 <lock_held_by_current_thread+0x5c>
   11174:	e3a010f4 	mov	r1, #244	; 0xf4
   11178:	e59f2034 	ldr	r2, [pc, #52]	; 111b4 <lock_held_by_current_thread+0x60>
   1117c:	e59f3034 	ldr	r3, [pc, #52]	; 111b8 <lock_held_by_current_thread+0x64>
   11180:	ebffe081 	bl	938c <debug_panic>
   11184:	e51b3010 	ldr	r3, [fp, #-16]
   11188:	e5934000 	ldr	r4, [r3]
   1118c:	eb00036c 	bl	11f44 <thread_current>
   11190:	e1a03000 	mov	r3, r0
   11194:	e1540003 	cmp	r4, r3
   11198:	13a03000 	movne	r3, #0
   1119c:	03a03001 	moveq	r3, #1
   111a0:	e6ef3073 	uxtb	r3, r3
   111a4:	e1a00003 	mov	r0, r3
   111a8:	e24bd008 	sub	sp, fp, #8
   111ac:	e8bd8810 	pop	{r4, fp, pc}
   111b0:	00016514 	.word	0x00016514
   111b4:	000165b4 	.word	0x000165b4
   111b8:	00016524 	.word	0x00016524

000111bc <cond_init>:
   111bc:	e92d4800 	push	{fp, lr}
   111c0:	e28db004 	add	fp, sp, #4
   111c4:	e24dd008 	sub	sp, sp, #8
   111c8:	e50b0008 	str	r0, [fp, #-8]
   111cc:	e51b3008 	ldr	r3, [fp, #-8]
   111d0:	e3530000 	cmp	r3, #0
   111d4:	1a000004 	bne	111ec <cond_init+0x30>
   111d8:	e59f0020 	ldr	r0, [pc, #32]	; 11200 <cond_init+0x44>
   111dc:	e59f1020 	ldr	r1, [pc, #32]	; 11204 <cond_init+0x48>
   111e0:	e59f2020 	ldr	r2, [pc, #32]	; 11208 <cond_init+0x4c>
   111e4:	e59f3020 	ldr	r3, [pc, #32]	; 1120c <cond_init+0x50>
   111e8:	ebffe067 	bl	938c <debug_panic>
   111ec:	e51b3008 	ldr	r3, [fp, #-8]
   111f0:	e1a00003 	mov	r0, r3
   111f4:	ebffe73c 	bl	aeec <list_init>
   111f8:	e24bd004 	sub	sp, fp, #4
   111fc:	e8bd8800 	pop	{fp, pc}
   11200:	00016514 	.word	0x00016514
   11204:	00000106 	.word	0x00000106
   11208:	000165d0 	.word	0x000165d0
   1120c:	00016524 	.word	0x00016524

00011210 <cond_wait>:
   11210:	e92d4800 	push	{fp, lr}
   11214:	e28db004 	add	fp, sp, #4
   11218:	e24dd028 	sub	sp, sp, #40	; 0x28
   1121c:	e50b0028 	str	r0, [fp, #-40]	; 0x28
   11220:	e50b102c 	str	r1, [fp, #-44]	; 0x2c
   11224:	e51b3028 	ldr	r3, [fp, #-40]	; 0x28
   11228:	e3530000 	cmp	r3, #0
   1122c:	1a000004 	bne	11244 <cond_wait+0x34>
   11230:	e59f00d0 	ldr	r0, [pc, #208]	; 11308 <cond_wait+0xf8>
   11234:	e3a01f49 	mov	r1, #292	; 0x124
   11238:	e59f20cc 	ldr	r2, [pc, #204]	; 1130c <cond_wait+0xfc>
   1123c:	e59f30cc 	ldr	r3, [pc, #204]	; 11310 <cond_wait+0x100>
   11240:	ebffe051 	bl	938c <debug_panic>
   11244:	e51b302c 	ldr	r3, [fp, #-44]	; 0x2c
   11248:	e3530000 	cmp	r3, #0
   1124c:	1a000004 	bne	11264 <cond_wait+0x54>
   11250:	e59f00b0 	ldr	r0, [pc, #176]	; 11308 <cond_wait+0xf8>
   11254:	e59f10b8 	ldr	r1, [pc, #184]	; 11314 <cond_wait+0x104>
   11258:	e59f20ac 	ldr	r2, [pc, #172]	; 1130c <cond_wait+0xfc>
   1125c:	e59f30ac 	ldr	r3, [pc, #172]	; 11310 <cond_wait+0x100>
   11260:	ebffe049 	bl	938c <debug_panic>
   11264:	ebffec4c 	bl	c39c <interrupts_context>
   11268:	e1a03000 	mov	r3, r0
   1126c:	e2233001 	eor	r3, r3, #1
   11270:	e6ef3073 	uxtb	r3, r3
   11274:	e3530000 	cmp	r3, #0
   11278:	1a000004 	bne	11290 <cond_wait+0x80>
   1127c:	e59f0084 	ldr	r0, [pc, #132]	; 11308 <cond_wait+0xf8>
   11280:	e59f1090 	ldr	r1, [pc, #144]	; 11318 <cond_wait+0x108>
   11284:	e59f2080 	ldr	r2, [pc, #128]	; 1130c <cond_wait+0xfc>
   11288:	e59f3080 	ldr	r3, [pc, #128]	; 11310 <cond_wait+0x100>
   1128c:	ebffe03e 	bl	938c <debug_panic>
   11290:	e51b002c 	ldr	r0, [fp, #-44]	; 0x2c
   11294:	ebffffae 	bl	11154 <lock_held_by_current_thread>
   11298:	e1a03000 	mov	r3, r0
   1129c:	e3530000 	cmp	r3, #0
   112a0:	1a000004 	bne	112b8 <cond_wait+0xa8>
   112a4:	e59f005c 	ldr	r0, [pc, #92]	; 11308 <cond_wait+0xf8>
   112a8:	e59f106c 	ldr	r1, [pc, #108]	; 1131c <cond_wait+0x10c>
   112ac:	e59f2058 	ldr	r2, [pc, #88]	; 1130c <cond_wait+0xfc>
   112b0:	e59f3058 	ldr	r3, [pc, #88]	; 11310 <cond_wait+0x100>
   112b4:	ebffe034 	bl	938c <debug_panic>
   112b8:	e24b3020 	sub	r3, fp, #32
   112bc:	e2833008 	add	r3, r3, #8
   112c0:	e1a00003 	mov	r0, r3
   112c4:	e3a01000 	mov	r1, #0
   112c8:	ebfffe2b 	bl	10b7c <sema_init>
   112cc:	e51b2028 	ldr	r2, [fp, #-40]	; 0x28
   112d0:	e24b3020 	sub	r3, fp, #32
   112d4:	e1a00002 	mov	r0, r2
   112d8:	e1a01003 	mov	r1, r3
   112dc:	ebffe856 	bl	b43c <list_push_back>
   112e0:	e51b002c 	ldr	r0, [fp, #-44]	; 0x2c
   112e4:	ebffff78 	bl	110cc <lock_release>
   112e8:	e24b3020 	sub	r3, fp, #32
   112ec:	e2833008 	add	r3, r3, #8
   112f0:	e1a00003 	mov	r0, r3
   112f4:	ebfffe39 	bl	10be0 <sema_down>
   112f8:	e51b002c 	ldr	r0, [fp, #-44]	; 0x2c
   112fc:	ebffff16 	bl	10f5c <lock_acquire>
   11300:	e24bd004 	sub	sp, fp, #4
   11304:	e8bd8800 	pop	{fp, pc}
   11308:	00016514 	.word	0x00016514
   1130c:	000165dc 	.word	0x000165dc
   11310:	00016524 	.word	0x00016524
   11314:	00000125 	.word	0x00000125
   11318:	00000126 	.word	0x00000126
   1131c:	00000127 	.word	0x00000127

00011320 <cond_signal>:
   11320:	e92d4800 	push	{fp, lr}
   11324:	e28db004 	add	fp, sp, #4
   11328:	e24dd008 	sub	sp, sp, #8
   1132c:	e50b0008 	str	r0, [fp, #-8]
   11330:	e50b100c 	str	r1, [fp, #-12]
   11334:	e51b3008 	ldr	r3, [fp, #-8]
   11338:	e3530000 	cmp	r3, #0
   1133c:	1a000004 	bne	11354 <cond_signal+0x34>
   11340:	e59f00cc 	ldr	r0, [pc, #204]	; 11414 <cond_signal+0xf4>
   11344:	e59f10cc 	ldr	r1, [pc, #204]	; 11418 <cond_signal+0xf8>
   11348:	e59f20cc 	ldr	r2, [pc, #204]	; 1141c <cond_signal+0xfc>
   1134c:	e59f30cc 	ldr	r3, [pc, #204]	; 11420 <cond_signal+0x100>
   11350:	ebffe00d 	bl	938c <debug_panic>
   11354:	e51b300c 	ldr	r3, [fp, #-12]
   11358:	e3530000 	cmp	r3, #0
   1135c:	1a000004 	bne	11374 <cond_signal+0x54>
   11360:	e59f00ac 	ldr	r0, [pc, #172]	; 11414 <cond_signal+0xf4>
   11364:	e59f10b8 	ldr	r1, [pc, #184]	; 11424 <cond_signal+0x104>
   11368:	e59f20ac 	ldr	r2, [pc, #172]	; 1141c <cond_signal+0xfc>
   1136c:	e59f30ac 	ldr	r3, [pc, #172]	; 11420 <cond_signal+0x100>
   11370:	ebffe005 	bl	938c <debug_panic>
   11374:	ebffec08 	bl	c39c <interrupts_context>
   11378:	e1a03000 	mov	r3, r0
   1137c:	e2233001 	eor	r3, r3, #1
   11380:	e6ef3073 	uxtb	r3, r3
   11384:	e3530000 	cmp	r3, #0
   11388:	1a000004 	bne	113a0 <cond_signal+0x80>
   1138c:	e59f0080 	ldr	r0, [pc, #128]	; 11414 <cond_signal+0xf4>
   11390:	e3a01f4f 	mov	r1, #316	; 0x13c
   11394:	e59f2080 	ldr	r2, [pc, #128]	; 1141c <cond_signal+0xfc>
   11398:	e59f3080 	ldr	r3, [pc, #128]	; 11420 <cond_signal+0x100>
   1139c:	ebffdffa 	bl	938c <debug_panic>
   113a0:	e51b000c 	ldr	r0, [fp, #-12]
   113a4:	ebffff6a 	bl	11154 <lock_held_by_current_thread>
   113a8:	e1a03000 	mov	r3, r0
   113ac:	e3530000 	cmp	r3, #0
   113b0:	1a000004 	bne	113c8 <cond_signal+0xa8>
   113b4:	e59f0058 	ldr	r0, [pc, #88]	; 11414 <cond_signal+0xf4>
   113b8:	e59f1068 	ldr	r1, [pc, #104]	; 11428 <cond_signal+0x108>
   113bc:	e59f2058 	ldr	r2, [pc, #88]	; 1141c <cond_signal+0xfc>
   113c0:	e59f3058 	ldr	r3, [pc, #88]	; 11420 <cond_signal+0x100>
   113c4:	ebffdff0 	bl	938c <debug_panic>
   113c8:	e51b3008 	ldr	r3, [fp, #-8]
   113cc:	e1a00003 	mov	r0, r3
   113d0:	ebffe8ab 	bl	b684 <list_empty>
   113d4:	e1a03000 	mov	r3, r0
   113d8:	e2233001 	eor	r3, r3, #1
   113dc:	e6ef3073 	uxtb	r3, r3
   113e0:	e3530000 	cmp	r3, #0
   113e4:	0a000008 	beq	1140c <cond_signal+0xec>
   113e8:	e51b3008 	ldr	r3, [fp, #-8]
   113ec:	e1a00003 	mov	r0, r3
   113f0:	ebffe83e 	bl	b4f0 <list_pop_front>
   113f4:	e1a03000 	mov	r3, r0
   113f8:	e2833004 	add	r3, r3, #4
   113fc:	e2433004 	sub	r3, r3, #4
   11400:	e2833008 	add	r3, r3, #8
   11404:	e1a00003 	mov	r0, r3
   11408:	ebfffe50 	bl	10d50 <sema_up>
   1140c:	e24bd004 	sub	sp, fp, #4
   11410:	e8bd8800 	pop	{fp, pc}
   11414:	00016514 	.word	0x00016514
   11418:	0000013a 	.word	0x0000013a
   1141c:	000165e8 	.word	0x000165e8
   11420:	00016524 	.word	0x00016524
   11424:	0000013b 	.word	0x0000013b
   11428:	0000013d 	.word	0x0000013d

0001142c <cond_broadcast>:
   1142c:	e92d4800 	push	{fp, lr}
   11430:	e28db004 	add	fp, sp, #4
   11434:	e24dd008 	sub	sp, sp, #8
   11438:	e50b0008 	str	r0, [fp, #-8]
   1143c:	e50b100c 	str	r1, [fp, #-12]
   11440:	e51b3008 	ldr	r3, [fp, #-8]
   11444:	e3530000 	cmp	r3, #0
   11448:	1a000004 	bne	11460 <cond_broadcast+0x34>
   1144c:	e59f0064 	ldr	r0, [pc, #100]	; 114b8 <cond_broadcast+0x8c>
   11450:	e59f1064 	ldr	r1, [pc, #100]	; 114bc <cond_broadcast+0x90>
   11454:	e59f2064 	ldr	r2, [pc, #100]	; 114c0 <cond_broadcast+0x94>
   11458:	e59f3064 	ldr	r3, [pc, #100]	; 114c4 <cond_broadcast+0x98>
   1145c:	ebffdfca 	bl	938c <debug_panic>
   11460:	e51b300c 	ldr	r3, [fp, #-12]
   11464:	e3530000 	cmp	r3, #0
   11468:	1a000004 	bne	11480 <cond_broadcast+0x54>
   1146c:	e59f0044 	ldr	r0, [pc, #68]	; 114b8 <cond_broadcast+0x8c>
   11470:	e59f1050 	ldr	r1, [pc, #80]	; 114c8 <cond_broadcast+0x9c>
   11474:	e59f2044 	ldr	r2, [pc, #68]	; 114c0 <cond_broadcast+0x94>
   11478:	e59f3044 	ldr	r3, [pc, #68]	; 114c4 <cond_broadcast+0x98>
   1147c:	ebffdfc2 	bl	938c <debug_panic>
   11480:	ea000002 	b	11490 <cond_broadcast+0x64>
   11484:	e51b0008 	ldr	r0, [fp, #-8]
   11488:	e51b100c 	ldr	r1, [fp, #-12]
   1148c:	ebffffa3 	bl	11320 <cond_signal>
   11490:	e51b3008 	ldr	r3, [fp, #-8]
   11494:	e1a00003 	mov	r0, r3
   11498:	ebffe879 	bl	b684 <list_empty>
   1149c:	e1a03000 	mov	r3, r0
   114a0:	e2233001 	eor	r3, r3, #1
   114a4:	e6ef3073 	uxtb	r3, r3
   114a8:	e3530000 	cmp	r3, #0
   114ac:	1afffff4 	bne	11484 <cond_broadcast+0x58>
   114b0:	e24bd004 	sub	sp, fp, #4
   114b4:	e8bd8800 	pop	{fp, pc}
   114b8:	00016514 	.word	0x00016514
   114bc:	0000014d 	.word	0x0000014d
   114c0:	000165f4 	.word	0x000165f4
   114c4:	00016524 	.word	0x00016524
   114c8:	0000014e 	.word	0x0000014e

000114cc <timer_init>:
   114cc:	e92d4800 	push	{fp, lr}
   114d0:	e28db004 	add	fp, sp, #4
   114d4:	e59f002c 	ldr	r0, [pc, #44]	; 11508 <timer_init+0x3c>
   114d8:	ebfff32d 	bl	e194 <printf>
   114dc:	e59f0028 	ldr	r0, [pc, #40]	; 1150c <timer_init+0x40>
   114e0:	e3a01000 	mov	r1, #0
   114e4:	ebfffda4 	bl	10b7c <sema_init>
   114e8:	e3a00001 	mov	r0, #1
   114ec:	e59f101c 	ldr	r1, [pc, #28]	; 11510 <timer_init+0x44>
   114f0:	e59f201c 	ldr	r2, [pc, #28]	; 11514 <timer_init+0x48>
   114f4:	ebffeaff 	bl	c0f8 <interrupts_register_irq>
   114f8:	e3a00001 	mov	r0, #1
   114fc:	e59f1014 	ldr	r1, [pc, #20]	; 11518 <timer_init+0x4c>
   11500:	eb00006f 	bl	116c4 <timer_set_interval>
   11504:	e8bd8800 	pop	{fp, pc}
   11508:	00016608 	.word	0x00016608
   1150c:	0001a604 	.word	0x0001a604
   11510:	00011674 	.word	0x00011674
   11514:	00016624 	.word	0x00016624
   11518:	0007a120 	.word	0x0007a120

0001151c <timer_get_timestamp>:
   1151c:	e52db004 	push	{fp}		; (str fp, [sp, #-4]!)
   11520:	e28db000 	add	fp, sp, #0
   11524:	e59f3010 	ldr	r3, [pc, #16]	; 1153c <timer_get_timestamp+0x20>
   11528:	e5933004 	ldr	r3, [r3, #4]
   1152c:	e1a00003 	mov	r0, r3
   11530:	e24bd000 	sub	sp, fp, #0
   11534:	e49db004 	pop	{fp}		; (ldr fp, [sp], #4)
   11538:	e12fff1e 	bx	lr
   1153c:	20003000 	.word	0x20003000

00011540 <timer_msleep>:
   11540:	e92d4800 	push	{fp, lr}
   11544:	e28db004 	add	fp, sp, #4
   11548:	e24dd010 	sub	sp, sp, #16
   1154c:	e50b0010 	str	r0, [fp, #-16]
   11550:	ebfffff1 	bl	1151c <timer_get_timestamp>
   11554:	e50b000c 	str	r0, [fp, #-12]
   11558:	ebffffef 	bl	1151c <timer_get_timestamp>
   1155c:	e1a02000 	mov	r2, r0
   11560:	e51b300c 	ldr	r3, [fp, #-12]
   11564:	e0633002 	rsb	r3, r3, r2
   11568:	e50b3008 	str	r3, [fp, #-8]
   1156c:	ea000004 	b	11584 <timer_msleep+0x44>
   11570:	ebffffe9 	bl	1151c <timer_get_timestamp>
   11574:	e1a02000 	mov	r2, r0
   11578:	e51b300c 	ldr	r3, [fp, #-12]
   1157c:	e0633002 	rsb	r3, r3, r2
   11580:	e50b3008 	str	r3, [fp, #-8]
   11584:	e51b2010 	ldr	r2, [fp, #-16]
   11588:	e51b3008 	ldr	r3, [fp, #-8]
   1158c:	e1520003 	cmp	r2, r3
   11590:	cafffff6 	bgt	11570 <timer_msleep+0x30>
   11594:	e24bd004 	sub	sp, fp, #4
   11598:	e8bd8800 	pop	{fp, pc}

0001159c <my_timer_msleep>:
   1159c:	e92d4800 	push	{fp, lr}
   115a0:	e28db004 	add	fp, sp, #4
   115a4:	e24dd010 	sub	sp, sp, #16
   115a8:	e50b0010 	str	r0, [fp, #-16]
   115ac:	ebffffda 	bl	1151c <timer_get_timestamp>
   115b0:	e50b000c 	str	r0, [fp, #-12]
   115b4:	ebffffd8 	bl	1151c <timer_get_timestamp>
   115b8:	e1a02000 	mov	r2, r0
   115bc:	e51b300c 	ldr	r3, [fp, #-12]
   115c0:	e0633002 	rsb	r3, r3, r2
   115c4:	e50b3008 	str	r3, [fp, #-8]
   115c8:	ea00000b 	b	115fc <my_timer_msleep+0x60>
   115cc:	eb00025c 	bl	11f44 <thread_current>
   115d0:	e1a03000 	mov	r3, r0
   115d4:	e5d33004 	ldrb	r3, [r3, #4]
   115d8:	e3530000 	cmp	r3, #0
   115dc:	1a000001 	bne	115e8 <my_timer_msleep+0x4c>
   115e0:	e59f002c 	ldr	r0, [pc, #44]	; 11614 <my_timer_msleep+0x78>
   115e4:	ebfffd7d 	bl	10be0 <sema_down>
   115e8:	ebffffcb 	bl	1151c <timer_get_timestamp>
   115ec:	e1a02000 	mov	r2, r0
   115f0:	e51b300c 	ldr	r3, [fp, #-12]
   115f4:	e0633002 	rsb	r3, r3, r2
   115f8:	e50b3008 	str	r3, [fp, #-8]
   115fc:	e51b2010 	ldr	r2, [fp, #-16]
   11600:	e51b3008 	ldr	r3, [fp, #-8]
   11604:	e1520003 	cmp	r2, r3
   11608:	caffffef 	bgt	115cc <my_timer_msleep+0x30>
   1160c:	e24bd004 	sub	sp, fp, #4
   11610:	e8bd8800 	pop	{fp, pc}
   11614:	0001a604 	.word	0x0001a604

00011618 <timer_reset_timer_compare>:
   11618:	e52db004 	push	{fp}		; (str fp, [sp, #-4]!)
   1161c:	e28db000 	add	fp, sp, #0
   11620:	e24dd00c 	sub	sp, sp, #12
   11624:	e50b0008 	str	r0, [fp, #-8]
   11628:	e51b3008 	ldr	r3, [fp, #-8]
   1162c:	e3530003 	cmp	r3, #3
   11630:	ca000002 	bgt	11640 <timer_reset_timer_compare+0x28>
   11634:	e51b3008 	ldr	r3, [fp, #-8]
   11638:	e3530000 	cmp	r3, #0
   1163c:	aa000000 	bge	11644 <timer_reset_timer_compare+0x2c>
   11640:	ea000007 	b	11664 <timer_reset_timer_compare+0x4c>
   11644:	e59f3024 	ldr	r3, [pc, #36]	; 11670 <timer_reset_timer_compare+0x58>
   11648:	e59f2020 	ldr	r2, [pc, #32]	; 11670 <timer_reset_timer_compare+0x58>
   1164c:	e5921000 	ldr	r1, [r2]
   11650:	e3a00001 	mov	r0, #1
   11654:	e51b2008 	ldr	r2, [fp, #-8]
   11658:	e1a02210 	lsl	r2, r0, r2
   1165c:	e1812002 	orr	r2, r1, r2
   11660:	e5832000 	str	r2, [r3]
   11664:	e24bd000 	sub	sp, fp, #0
   11668:	e49db004 	pop	{fp}		; (ldr fp, [sp], #4)
   1166c:	e12fff1e 	bx	lr
   11670:	20003000 	.word	0x20003000

00011674 <timer_irq_handler>:
   11674:	e92d4800 	push	{fp, lr}
   11678:	e28db004 	add	fp, sp, #4
   1167c:	e24dd008 	sub	sp, sp, #8
   11680:	e50b0008 	str	r0, [fp, #-8]
   11684:	e59f002c 	ldr	r0, [pc, #44]	; 116b8 <timer_irq_handler+0x44>
   11688:	ebfffdb0 	bl	10d50 <sema_up>
   1168c:	e3a00001 	mov	r0, #1
   11690:	ebffffe0 	bl	11618 <timer_reset_timer_compare>
   11694:	e51b0008 	ldr	r0, [fp, #-8]
   11698:	eb0000eb 	bl	11a4c <thread_tick>
   1169c:	e59f0018 	ldr	r0, [pc, #24]	; 116bc <timer_irq_handler+0x48>
   116a0:	ebffffa6 	bl	11540 <timer_msleep>
   116a4:	e3a00001 	mov	r0, #1
   116a8:	e59f1010 	ldr	r1, [pc, #16]	; 116c0 <timer_irq_handler+0x4c>
   116ac:	eb000004 	bl	116c4 <timer_set_interval>
   116b0:	e24bd004 	sub	sp, fp, #4
   116b4:	e8bd8800 	pop	{fp, pc}
   116b8:	0001a604 	.word	0x0001a604
   116bc:	000493e0 	.word	0x000493e0
   116c0:	0007a120 	.word	0x0007a120

000116c4 <timer_set_interval>:
   116c4:	e52db004 	push	{fp}		; (str fp, [sp, #-4]!)
   116c8:	e28db000 	add	fp, sp, #0
   116cc:	e24dd014 	sub	sp, sp, #20
   116d0:	e50b0010 	str	r0, [fp, #-16]
   116d4:	e50b1014 	str	r1, [fp, #-20]
   116d8:	e59f304c 	ldr	r3, [pc, #76]	; 1172c <timer_set_interval+0x68>
   116dc:	e5932004 	ldr	r2, [r3, #4]
   116e0:	e51b3014 	ldr	r3, [fp, #-20]
   116e4:	e0823003 	add	r3, r2, r3
   116e8:	e50b3008 	str	r3, [fp, #-8]
   116ec:	e51b3010 	ldr	r3, [fp, #-16]
   116f0:	e3530001 	cmp	r3, #1
   116f4:	1a000003 	bne	11708 <timer_set_interval+0x44>
   116f8:	e59f302c 	ldr	r3, [pc, #44]	; 1172c <timer_set_interval+0x68>
   116fc:	e51b2008 	ldr	r2, [fp, #-8]
   11700:	e5832010 	str	r2, [r3, #16]
   11704:	ea000005 	b	11720 <timer_set_interval+0x5c>
   11708:	e51b3010 	ldr	r3, [fp, #-16]
   1170c:	e3530003 	cmp	r3, #3
   11710:	1a000002 	bne	11720 <timer_set_interval+0x5c>
   11714:	e59f3010 	ldr	r3, [pc, #16]	; 1172c <timer_set_interval+0x68>
   11718:	e51b2008 	ldr	r2, [fp, #-8]
   1171c:	e5832018 	str	r2, [r3, #24]
   11720:	e24bd000 	sub	sp, fp, #0
   11724:	e49db004 	pop	{fp}		; (ldr fp, [sp], #4)
   11728:	e12fff1e 	bx	lr
   1172c:	20003000 	.word	0x20003000

00011730 <pg_round_down>:
   11730:	e52db004 	push	{fp}		; (str fp, [sp, #-4]!)
   11734:	e28db000 	add	fp, sp, #0
   11738:	e24dd00c 	sub	sp, sp, #12
   1173c:	e50b0008 	str	r0, [fp, #-8]
   11740:	e51b3008 	ldr	r3, [fp, #-8]
   11744:	e3c33eff 	bic	r3, r3, #4080	; 0xff0
   11748:	e3c3300f 	bic	r3, r3, #15
   1174c:	e1a00003 	mov	r0, r3
   11750:	e24bd000 	sub	sp, fp, #0
   11754:	e49db004 	pop	{fp}		; (ldr fp, [sp], #4)
   11758:	e12fff1e 	bx	lr

0001175c <thread_init>:
   1175c:	e92d4818 	push	{r3, r4, fp, lr}
   11760:	e28db00c 	add	fp, sp, #12
   11764:	ebffeab1 	bl	c230 <interrupts_get_level>
   11768:	e1a03000 	mov	r3, r0
   1176c:	e3530000 	cmp	r3, #0
   11770:	0a000004 	beq	11788 <thread_init+0x2c>
   11774:	e59f00a4 	ldr	r0, [pc, #164]	; 11820 <thread_init+0xc4>
   11778:	e3a01070 	mov	r1, #112	; 0x70
   1177c:	e59f20a0 	ldr	r2, [pc, #160]	; 11824 <thread_init+0xc8>
   11780:	e59f30a0 	ldr	r3, [pc, #160]	; 11828 <thread_init+0xcc>
   11784:	ebffdf00 	bl	938c <debug_panic>
   11788:	e59f109c 	ldr	r1, [pc, #156]	; 1182c <thread_init+0xd0>
   1178c:	e3a02000 	mov	r2, #0
   11790:	e3a03000 	mov	r3, #0
   11794:	e1c120f0 	strd	r2, [r1]
   11798:	e59f1090 	ldr	r1, [pc, #144]	; 11830 <thread_init+0xd4>
   1179c:	e3a02000 	mov	r2, #0
   117a0:	e3a03000 	mov	r3, #0
   117a4:	e1c120f0 	strd	r2, [r1]
   117a8:	e59f1084 	ldr	r1, [pc, #132]	; 11834 <thread_init+0xd8>
   117ac:	e3a02000 	mov	r2, #0
   117b0:	e3a03000 	mov	r3, #0
   117b4:	e1c120f0 	strd	r2, [r1]
   117b8:	e59f0078 	ldr	r0, [pc, #120]	; 11838 <thread_init+0xdc>
   117bc:	ebfffdcd 	bl	10ef8 <lock_init>
   117c0:	e59f0074 	ldr	r0, [pc, #116]	; 1183c <thread_init+0xe0>
   117c4:	ebffe5c8 	bl	aeec <list_init>
   117c8:	e59f0070 	ldr	r0, [pc, #112]	; 11840 <thread_init+0xe4>
   117cc:	ebffe5c6 	bl	aeec <list_init>
   117d0:	eb00007e 	bl	119d0 <get_first_thread>
   117d4:	e1a02000 	mov	r2, r0
   117d8:	e59f3064 	ldr	r3, [pc, #100]	; 11844 <thread_init+0xe8>
   117dc:	e5832000 	str	r2, [r3]
   117e0:	e59f305c 	ldr	r3, [pc, #92]	; 11844 <thread_init+0xe8>
   117e4:	e5933000 	ldr	r3, [r3]
   117e8:	e1a00003 	mov	r0, r3
   117ec:	e59f1054 	ldr	r1, [pc, #84]	; 11848 <thread_init+0xec>
   117f0:	e3a0201f 	mov	r2, #31
   117f4:	eb000014 	bl	1184c <init_thread>
   117f8:	e59f3044 	ldr	r3, [pc, #68]	; 11844 <thread_init+0xe8>
   117fc:	e5933000 	ldr	r3, [r3]
   11800:	e3a02000 	mov	r2, #0
   11804:	e5c32004 	strb	r2, [r3, #4]
   11808:	e59f3034 	ldr	r3, [pc, #52]	; 11844 <thread_init+0xe8>
   1180c:	e5934000 	ldr	r4, [r3]
   11810:	eb00005b 	bl	11984 <allocate_tid>
   11814:	e1a03000 	mov	r3, r0
   11818:	e5843000 	str	r3, [r4]
   1181c:	e8bd8818 	pop	{r3, r4, fp, pc}
   11820:	00016634 	.word	0x00016634
   11824:	000167ec 	.word	0x000167ec
   11828:	00016648 	.word	0x00016648
   1182c:	0001a660 	.word	0x0001a660
   11830:	0001a668 	.word	0x0001a668
   11834:	0001a670 	.word	0x0001a670
   11838:	0001a644 	.word	0x0001a644
   1183c:	0001a61c 	.word	0x0001a61c
   11840:	0001a62c 	.word	0x0001a62c
   11844:	0001a640 	.word	0x0001a640
   11848:	0001665c 	.word	0x0001665c

0001184c <init_thread>:
   1184c:	e92d4800 	push	{fp, lr}
   11850:	e28db004 	add	fp, sp, #4
   11854:	e24dd010 	sub	sp, sp, #16
   11858:	e50b0008 	str	r0, [fp, #-8]
   1185c:	e50b100c 	str	r1, [fp, #-12]
   11860:	e50b2010 	str	r2, [fp, #-16]
   11864:	e51b3008 	ldr	r3, [fp, #-8]
   11868:	e3530000 	cmp	r3, #0
   1186c:	1a000004 	bne	11884 <init_thread+0x38>
   11870:	e59f00f8 	ldr	r0, [pc, #248]	; 11970 <init_thread+0x124>
   11874:	e3a01084 	mov	r1, #132	; 0x84
   11878:	e59f20f4 	ldr	r2, [pc, #244]	; 11974 <init_thread+0x128>
   1187c:	e59f30f4 	ldr	r3, [pc, #244]	; 11978 <init_thread+0x12c>
   11880:	ebffdec1 	bl	938c <debug_panic>
   11884:	e51b3010 	ldr	r3, [fp, #-16]
   11888:	e3530000 	cmp	r3, #0
   1188c:	ba000007 	blt	118b0 <init_thread+0x64>
   11890:	e51b3010 	ldr	r3, [fp, #-16]
   11894:	e353003f 	cmp	r3, #63	; 0x3f
   11898:	ca000004 	bgt	118b0 <init_thread+0x64>
   1189c:	e1a00000 	nop			; (mov r0, r0)
   118a0:	e51b300c 	ldr	r3, [fp, #-12]
   118a4:	e3530000 	cmp	r3, #0
   118a8:	1a00000a 	bne	118d8 <init_thread+0x8c>
   118ac:	ea000004 	b	118c4 <init_thread+0x78>
   118b0:	e59f00b8 	ldr	r0, [pc, #184]	; 11970 <init_thread+0x124>
   118b4:	e3a01085 	mov	r1, #133	; 0x85
   118b8:	e59f20b4 	ldr	r2, [pc, #180]	; 11974 <init_thread+0x128>
   118bc:	e59f30b4 	ldr	r3, [pc, #180]	; 11978 <init_thread+0x12c>
   118c0:	ebffdeb1 	bl	938c <debug_panic>
   118c4:	e59f00a4 	ldr	r0, [pc, #164]	; 11970 <init_thread+0x124>
   118c8:	e3a01086 	mov	r1, #134	; 0x86
   118cc:	e59f20a0 	ldr	r2, [pc, #160]	; 11974 <init_thread+0x128>
   118d0:	e59f30a0 	ldr	r3, [pc, #160]	; 11978 <init_thread+0x12c>
   118d4:	ebffdeac 	bl	938c <debug_panic>
   118d8:	e51b0008 	ldr	r0, [fp, #-8]
   118dc:	e3a01000 	mov	r1, #0
   118e0:	e3a020a0 	mov	r2, #160	; 0xa0
   118e4:	ebfffbc6 	bl	10804 <memset>
   118e8:	e51b3008 	ldr	r3, [fp, #-8]
   118ec:	e3a02002 	mov	r2, #2
   118f0:	e5c32004 	strb	r2, [r3, #4]
   118f4:	e51b3008 	ldr	r3, [fp, #-8]
   118f8:	e2833005 	add	r3, r3, #5
   118fc:	e1a00003 	mov	r0, r3
   11900:	e51b100c 	ldr	r1, [fp, #-12]
   11904:	e3a02014 	mov	r2, #20
   11908:	ebfffc1e 	bl	10988 <strlcpy>
   1190c:	ebffdafd 	bl	8508 <get_current_sp>
   11910:	e1a02000 	mov	r2, r0
   11914:	e51b3008 	ldr	r3, [fp, #-8]
   11918:	e583202c 	str	r2, [r3, #44]	; 0x2c
   1191c:	e51b3008 	ldr	r3, [fp, #-8]
   11920:	e51b2010 	ldr	r2, [fp, #-16]
   11924:	e583201c 	str	r2, [r3, #28]
   11928:	e51b3008 	ldr	r3, [fp, #-8]
   1192c:	e59f2048 	ldr	r2, [pc, #72]	; 1197c <init_thread+0x130>
   11930:	e5832098 	str	r2, [r3, #152]	; 0x98
   11934:	e51b3008 	ldr	r3, [fp, #-8]
   11938:	e2833074 	add	r3, r3, #116	; 0x74
   1193c:	e1a00003 	mov	r0, r3
   11940:	ebffe569 	bl	aeec <list_init>
   11944:	e51b3008 	ldr	r3, [fp, #-8]
   11948:	e283306c 	add	r3, r3, #108	; 0x6c
   1194c:	e59f002c 	ldr	r0, [pc, #44]	; 11980 <init_thread+0x134>
   11950:	e1a01003 	mov	r1, r3
   11954:	ebffe6b8 	bl	b43c <list_push_back>
   11958:	e51b3008 	ldr	r3, [fp, #-8]
   1195c:	e2833028 	add	r3, r3, #40	; 0x28
   11960:	e1a00003 	mov	r0, r3
   11964:	eb000430 	bl	12a2c <set_current_interrupts_stack_frame>
   11968:	e24bd004 	sub	sp, fp, #4
   1196c:	e8bd8800 	pop	{fp, pc}
   11970:	00016634 	.word	0x00016634
   11974:	000167f8 	.word	0x000167f8
   11978:	00016648 	.word	0x00016648
   1197c:	cd6abf4b 	.word	0xcd6abf4b
   11980:	0001a62c 	.word	0x0001a62c

00011984 <allocate_tid>:
   11984:	e92d4800 	push	{fp, lr}
   11988:	e28db004 	add	fp, sp, #4
   1198c:	e24dd008 	sub	sp, sp, #8
   11990:	e59f0030 	ldr	r0, [pc, #48]	; 119c8 <allocate_tid+0x44>
   11994:	ebfffd70 	bl	10f5c <lock_acquire>
   11998:	e59f302c 	ldr	r3, [pc, #44]	; 119cc <allocate_tid+0x48>
   1199c:	e5933000 	ldr	r3, [r3]
   119a0:	e2831001 	add	r1, r3, #1
   119a4:	e59f2020 	ldr	r2, [pc, #32]	; 119cc <allocate_tid+0x48>
   119a8:	e5821000 	str	r1, [r2]
   119ac:	e50b3008 	str	r3, [fp, #-8]
   119b0:	e59f0010 	ldr	r0, [pc, #16]	; 119c8 <allocate_tid+0x44>
   119b4:	ebfffdc4 	bl	110cc <lock_release>
   119b8:	e51b3008 	ldr	r3, [fp, #-8]
   119bc:	e1a00003 	mov	r0, r3
   119c0:	e24bd004 	sub	sp, fp, #4
   119c4:	e8bd8800 	pop	{fp, pc}
   119c8:	0001a644 	.word	0x0001a644
   119cc:	0001905c 	.word	0x0001905c

000119d0 <get_first_thread>:
   119d0:	e92d4800 	push	{fp, lr}
   119d4:	e28db004 	add	fp, sp, #4
   119d8:	e24dd008 	sub	sp, sp, #8
   119dc:	ebffdac9 	bl	8508 <get_current_sp>
   119e0:	e50b0008 	str	r0, [fp, #-8]
   119e4:	e51b0008 	ldr	r0, [fp, #-8]
   119e8:	ebffff50 	bl	11730 <pg_round_down>
   119ec:	e1a03000 	mov	r3, r0
   119f0:	e1a00003 	mov	r0, r3
   119f4:	e24bd004 	sub	sp, fp, #4
   119f8:	e8bd8800 	pop	{fp, pc}

000119fc <thread_start>:
   119fc:	e92d4800 	push	{fp, lr}
   11a00:	e28db004 	add	fp, sp, #4
   11a04:	e24dd018 	sub	sp, sp, #24
   11a08:	e24b3018 	sub	r3, fp, #24
   11a0c:	e1a00003 	mov	r0, r3
   11a10:	e3a01000 	mov	r1, #0
   11a14:	ebfffc58 	bl	10b7c <sema_init>
   11a18:	e24b3018 	sub	r3, fp, #24
   11a1c:	e59f0020 	ldr	r0, [pc, #32]	; 11a44 <thread_start+0x48>
   11a20:	e3a0103f 	mov	r1, #63	; 0x3f
   11a24:	e59f201c 	ldr	r2, [pc, #28]	; 11a48 <thread_start+0x4c>
   11a28:	eb000048 	bl	11b50 <thread_create>
   11a2c:	ebffea1d 	bl	c2a8 <interrupts_enable>
   11a30:	e24b3018 	sub	r3, fp, #24
   11a34:	e1a00003 	mov	r0, r3
   11a38:	ebfffc68 	bl	10be0 <sema_down>
   11a3c:	e24bd004 	sub	sp, fp, #4
   11a40:	e8bd8800 	pop	{fp, pc}
   11a44:	00016664 	.word	0x00016664
   11a48:	000126e4 	.word	0x000126e4

00011a4c <thread_tick>:
   11a4c:	e92d4800 	push	{fp, lr}
   11a50:	e28db004 	add	fp, sp, #4
   11a54:	e24dd010 	sub	sp, sp, #16
   11a58:	e50b0010 	str	r0, [fp, #-16]
   11a5c:	e51b0010 	ldr	r0, [fp, #-16]
   11a60:	eb0003f1 	bl	12a2c <set_current_interrupts_stack_frame>
   11a64:	eb000136 	bl	11f44 <thread_current>
   11a68:	e50b0008 	str	r0, [fp, #-8]
   11a6c:	e59f3080 	ldr	r3, [pc, #128]	; 11af4 <thread_tick+0xa8>
   11a70:	e5933000 	ldr	r3, [r3]
   11a74:	e51b2008 	ldr	r2, [fp, #-8]
   11a78:	e1520003 	cmp	r2, r3
   11a7c:	1a000006 	bne	11a9c <thread_tick+0x50>
   11a80:	e59f3070 	ldr	r3, [pc, #112]	; 11af8 <thread_tick+0xac>
   11a84:	e1c320d0 	ldrd	r2, [r3]
   11a88:	e2922001 	adds	r2, r2, #1
   11a8c:	e2a33000 	adc	r3, r3, #0
   11a90:	e59f1060 	ldr	r1, [pc, #96]	; 11af8 <thread_tick+0xac>
   11a94:	e1c120f0 	strd	r2, [r1]
   11a98:	ea000009 	b	11ac4 <thread_tick+0x78>
   11a9c:	e59f3058 	ldr	r3, [pc, #88]	; 11afc <thread_tick+0xb0>
   11aa0:	e1c320d0 	ldrd	r2, [r3]
   11aa4:	e2922001 	adds	r2, r2, #1
   11aa8:	e2a33000 	adc	r3, r3, #0
   11aac:	e59f1048 	ldr	r1, [pc, #72]	; 11afc <thread_tick+0xb0>
   11ab0:	e1c120f0 	strd	r2, [r1]
   11ab4:	e59f3040 	ldr	r3, [pc, #64]	; 11afc <thread_tick+0xb0>
   11ab8:	e1c320d0 	ldrd	r2, [r3]
   11abc:	e51b1008 	ldr	r1, [fp, #-8]
   11ac0:	e1c129f0 	strd	r2, [r1, #144]	; 0x90
   11ac4:	e59f3034 	ldr	r3, [pc, #52]	; 11b00 <thread_tick+0xb4>
   11ac8:	e5933000 	ldr	r3, [r3]
   11acc:	e2832001 	add	r2, r3, #1
   11ad0:	e59f3028 	ldr	r3, [pc, #40]	; 11b00 <thread_tick+0xb4>
   11ad4:	e5832000 	str	r2, [r3]
   11ad8:	e59f3020 	ldr	r3, [pc, #32]	; 11b00 <thread_tick+0xb4>
   11adc:	e5933000 	ldr	r3, [r3]
   11ae0:	e3530001 	cmp	r3, #1
   11ae4:	9a000000 	bls	11aec <thread_tick+0xa0>
   11ae8:	ebffea3d 	bl	c3e4 <interrupts_yield_on_return>
   11aec:	e24bd004 	sub	sp, fp, #4
   11af0:	e8bd8800 	pop	{fp, pc}
   11af4:	0001a63c 	.word	0x0001a63c
   11af8:	0001a660 	.word	0x0001a660
   11afc:	0001a668 	.word	0x0001a668
   11b00:	0001a678 	.word	0x0001a678

00011b04 <thread_print_stats>:
   11b04:	e92d4830 	push	{r4, r5, fp, lr}
   11b08:	e28db00c 	add	fp, sp, #12
   11b0c:	e24dd010 	sub	sp, sp, #16
   11b10:	e59f3028 	ldr	r3, [pc, #40]	; 11b40 <thread_print_stats+0x3c>
   11b14:	e1c320d0 	ldrd	r2, [r3]
   11b18:	e59f1024 	ldr	r1, [pc, #36]	; 11b44 <thread_print_stats+0x40>
   11b1c:	e1c140d0 	ldrd	r4, [r1]
   11b20:	e59f1020 	ldr	r1, [pc, #32]	; 11b48 <thread_print_stats+0x44>
   11b24:	e1c100d0 	ldrd	r0, [r1]
   11b28:	e1cd40f0 	strd	r4, [sp]
   11b2c:	e1cd00f8 	strd	r0, [sp, #8]
   11b30:	e59f0014 	ldr	r0, [pc, #20]	; 11b4c <thread_print_stats+0x48>
   11b34:	ebfff196 	bl	e194 <printf>
   11b38:	e24bd00c 	sub	sp, fp, #12
   11b3c:	e8bd8830 	pop	{r4, r5, fp, pc}
   11b40:	0001a660 	.word	0x0001a660
   11b44:	0001a668 	.word	0x0001a668
   11b48:	0001a670 	.word	0x0001a670
   11b4c:	00016670 	.word	0x00016670

00011b50 <thread_create>:
   11b50:	e92d4800 	push	{fp, lr}
   11b54:	e28db004 	add	fp, sp, #4
   11b58:	e24dd020 	sub	sp, sp, #32
   11b5c:	e50b0018 	str	r0, [fp, #-24]
   11b60:	e50b101c 	str	r1, [fp, #-28]
   11b64:	e50b2020 	str	r2, [fp, #-32]
   11b68:	e50b3024 	str	r3, [fp, #-36]	; 0x24
   11b6c:	e51b301c 	ldr	r3, [fp, #-28]
   11b70:	e3530000 	cmp	r3, #0
   11b74:	ba000007 	blt	11b98 <thread_create+0x48>
   11b78:	e51b301c 	ldr	r3, [fp, #-28]
   11b7c:	e353003f 	cmp	r3, #63	; 0x3f
   11b80:	ca000004 	bgt	11b98 <thread_create+0x48>
   11b84:	e1a00000 	nop			; (mov r0, r0)
   11b88:	e51b3018 	ldr	r3, [fp, #-24]
   11b8c:	e3530000 	cmp	r3, #0
   11b90:	1a00000a 	bne	11bc0 <thread_create+0x70>
   11b94:	ea000004 	b	11bac <thread_create+0x5c>
   11b98:	e59f0178 	ldr	r0, [pc, #376]	; 11d18 <thread_create+0x1c8>
   11b9c:	e3a010eb 	mov	r1, #235	; 0xeb
   11ba0:	e59f2174 	ldr	r2, [pc, #372]	; 11d1c <thread_create+0x1cc>
   11ba4:	e59f3174 	ldr	r3, [pc, #372]	; 11d20 <thread_create+0x1d0>
   11ba8:	ebffddf7 	bl	938c <debug_panic>
   11bac:	e59f0164 	ldr	r0, [pc, #356]	; 11d18 <thread_create+0x1c8>
   11bb0:	e3a010ec 	mov	r1, #236	; 0xec
   11bb4:	e59f2160 	ldr	r2, [pc, #352]	; 11d1c <thread_create+0x1cc>
   11bb8:	e59f3160 	ldr	r3, [pc, #352]	; 11d20 <thread_create+0x1d0>
   11bbc:	ebffddf2 	bl	938c <debug_panic>
   11bc0:	e51b3020 	ldr	r3, [fp, #-32]
   11bc4:	e3530000 	cmp	r3, #0
   11bc8:	1a000004 	bne	11be0 <thread_create+0x90>
   11bcc:	e59f0144 	ldr	r0, [pc, #324]	; 11d18 <thread_create+0x1c8>
   11bd0:	e3a010ed 	mov	r1, #237	; 0xed
   11bd4:	e59f2140 	ldr	r2, [pc, #320]	; 11d1c <thread_create+0x1cc>
   11bd8:	e59f3140 	ldr	r3, [pc, #320]	; 11d20 <thread_create+0x1d0>
   11bdc:	ebffddea 	bl	938c <debug_panic>
   11be0:	ebffe9bb 	bl	c2d4 <interrupts_disable>
   11be4:	e1a03000 	mov	r3, r0
   11be8:	e54b3005 	strb	r3, [fp, #-5]
   11bec:	e3a00002 	mov	r0, #2
   11bf0:	ebffee46 	bl	d510 <palloc_get_page>
   11bf4:	e50b000c 	str	r0, [fp, #-12]
   11bf8:	e51b300c 	ldr	r3, [fp, #-12]
   11bfc:	e3530000 	cmp	r3, #0
   11c00:	1a000001 	bne	11c0c <thread_create+0xbc>
   11c04:	e3e03000 	mvn	r3, #0
   11c08:	ea00003f 	b	11d0c <thread_create+0x1bc>
   11c0c:	ebffff5c 	bl	11984 <allocate_tid>
   11c10:	e1a02000 	mov	r2, r0
   11c14:	e51b300c 	ldr	r3, [fp, #-12]
   11c18:	e5832000 	str	r2, [r3]
   11c1c:	e51b300c 	ldr	r3, [fp, #-12]
   11c20:	e5933000 	ldr	r3, [r3]
   11c24:	e50b3010 	str	r3, [fp, #-16]
   11c28:	e51b300c 	ldr	r3, [fp, #-12]
   11c2c:	e3a02002 	mov	r2, #2
   11c30:	e5c32004 	strb	r2, [r3, #4]
   11c34:	e51b300c 	ldr	r3, [fp, #-12]
   11c38:	e2833005 	add	r3, r3, #5
   11c3c:	e1a00003 	mov	r0, r3
   11c40:	e51b1018 	ldr	r1, [fp, #-24]
   11c44:	e3a02014 	mov	r2, #20
   11c48:	ebfffb4e 	bl	10988 <strlcpy>
   11c4c:	e51b300c 	ldr	r3, [fp, #-12]
   11c50:	e51b201c 	ldr	r2, [fp, #-28]
   11c54:	e583201c 	str	r2, [r3, #28]
   11c58:	e51b300c 	ldr	r3, [fp, #-12]
   11c5c:	e59f20c0 	ldr	r2, [pc, #192]	; 11d24 <thread_create+0x1d4>
   11c60:	e5832098 	str	r2, [r3, #152]	; 0x98
   11c64:	e51b300c 	ldr	r3, [fp, #-12]
   11c68:	e51b2020 	ldr	r2, [fp, #-32]
   11c6c:	e5832020 	str	r2, [r3, #32]
   11c70:	e51b300c 	ldr	r3, [fp, #-12]
   11c74:	e2833eff 	add	r3, r3, #4080	; 0xff0
   11c78:	e283300c 	add	r3, r3, #12
   11c7c:	e51b200c 	ldr	r2, [fp, #-12]
   11c80:	e582302c 	str	r3, [r2, #44]	; 0x2c
   11c84:	e51b2020 	ldr	r2, [fp, #-32]
   11c88:	e51b300c 	ldr	r3, [fp, #-12]
   11c8c:	e5832038 	str	r2, [r3, #56]	; 0x38
   11c90:	e51b2024 	ldr	r2, [fp, #-36]	; 0x24
   11c94:	e51b300c 	ldr	r3, [fp, #-12]
   11c98:	e583203c 	str	r2, [r3, #60]	; 0x3c
   11c9c:	e51b300c 	ldr	r3, [fp, #-12]
   11ca0:	e59f2080 	ldr	r2, [pc, #128]	; 11d28 <thread_create+0x1d8>
   11ca4:	e5832034 	str	r2, [r3, #52]	; 0x34
   11ca8:	e51b300c 	ldr	r3, [fp, #-12]
   11cac:	e3a0205f 	mov	r2, #95	; 0x5f
   11cb0:	e5832028 	str	r2, [r3, #40]	; 0x28
   11cb4:	e51b300c 	ldr	r3, [fp, #-12]
   11cb8:	e3a02000 	mov	r2, #0
   11cbc:	e5832030 	str	r2, [r3, #48]	; 0x30
   11cc0:	e51b300c 	ldr	r3, [fp, #-12]
   11cc4:	e2833074 	add	r3, r3, #116	; 0x74
   11cc8:	e1a00003 	mov	r0, r3
   11ccc:	ebffe486 	bl	aeec <list_init>
   11cd0:	e51b300c 	ldr	r3, [fp, #-12]
   11cd4:	e283306c 	add	r3, r3, #108	; 0x6c
   11cd8:	e59f004c 	ldr	r0, [pc, #76]	; 11d2c <thread_create+0x1dc>
   11cdc:	e1a01003 	mov	r1, r3
   11ce0:	ebffe5d5 	bl	b43c <list_push_back>
   11ce4:	e51b300c 	ldr	r3, [fp, #-12]
   11ce8:	e2833074 	add	r3, r3, #116	; 0x74
   11cec:	e1a00003 	mov	r0, r3
   11cf0:	ebffe47d 	bl	aeec <list_init>
   11cf4:	e55b3005 	ldrb	r3, [fp, #-5]
   11cf8:	e1a00003 	mov	r0, r3
   11cfc:	ebffe959 	bl	c268 <interrupts_set_level>
   11d00:	e51b000c 	ldr	r0, [fp, #-12]
   11d04:	eb00005b 	bl	11e78 <thread_unblock>
   11d08:	e51b3010 	ldr	r3, [fp, #-16]
   11d0c:	e1a00003 	mov	r0, r3
   11d10:	e24bd004 	sub	sp, fp, #4
   11d14:	e8bd8800 	pop	{fp, pc}
   11d18:	00016634 	.word	0x00016634
   11d1c:	00016804 	.word	0x00016804
   11d20:	00016648 	.word	0x00016648
   11d24:	cd6abf4b 	.word	0xcd6abf4b
   11d28:	00012788 	.word	0x00012788
   11d2c:	0001a62c 	.word	0x0001a62c

00011d30 <thread_wait>:
   11d30:	e92d4810 	push	{r4, fp, lr}
   11d34:	e28db008 	add	fp, sp, #8
   11d38:	e24dd01c 	sub	sp, sp, #28
   11d3c:	e50b0020 	str	r0, [fp, #-32]
   11d40:	ebffe963 	bl	c2d4 <interrupts_disable>
   11d44:	e1a03000 	mov	r3, r0
   11d48:	e54b3011 	strb	r3, [fp, #-17]
   11d4c:	e59f00a0 	ldr	r0, [pc, #160]	; 11df4 <thread_wait+0xc4>
   11d50:	ebffe483 	bl	af64 <list_begin>
   11d54:	e50b0010 	str	r0, [fp, #-16]
   11d58:	ea00001a 	b	11dc8 <thread_wait+0x98>
   11d5c:	e51b3010 	ldr	r3, [fp, #-16]
   11d60:	e2833004 	add	r3, r3, #4
   11d64:	e2433070 	sub	r3, r3, #112	; 0x70
   11d68:	e50b3018 	str	r3, [fp, #-24]
   11d6c:	e51b3018 	ldr	r3, [fp, #-24]
   11d70:	e5932000 	ldr	r2, [r3]
   11d74:	e51b3020 	ldr	r3, [fp, #-32]
   11d78:	e1520003 	cmp	r2, r3
   11d7c:	1a00000e 	bne	11dbc <thread_wait+0x8c>
   11d80:	e51b3018 	ldr	r3, [fp, #-24]
   11d84:	e5d33004 	ldrb	r3, [r3, #4]
   11d88:	e3530003 	cmp	r3, #3
   11d8c:	0a000009 	beq	11db8 <thread_wait+0x88>
   11d90:	e51b3018 	ldr	r3, [fp, #-24]
   11d94:	e2834074 	add	r4, r3, #116	; 0x74
   11d98:	eb000069 	bl	11f44 <thread_current>
   11d9c:	e1a03000 	mov	r3, r0
   11da0:	e2833084 	add	r3, r3, #132	; 0x84
   11da4:	e1a00004 	mov	r0, r4
   11da8:	e1a01003 	mov	r1, r3
   11dac:	ebffe5a2 	bl	b43c <list_push_back>
   11db0:	eb000010 	bl	11df8 <thread_block>
   11db4:	ea000009 	b	11de0 <thread_wait+0xb0>
   11db8:	ea000008 	b	11de0 <thread_wait+0xb0>
   11dbc:	e51b0010 	ldr	r0, [fp, #-16]
   11dc0:	ebffe47b 	bl	afb4 <list_next>
   11dc4:	e50b0010 	str	r0, [fp, #-16]
   11dc8:	e59f0024 	ldr	r0, [pc, #36]	; 11df4 <thread_wait+0xc4>
   11dcc:	ebffe493 	bl	b020 <list_end>
   11dd0:	e1a02000 	mov	r2, r0
   11dd4:	e51b3010 	ldr	r3, [fp, #-16]
   11dd8:	e1520003 	cmp	r2, r3
   11ddc:	1affffde 	bne	11d5c <thread_wait+0x2c>
   11de0:	e55b3011 	ldrb	r3, [fp, #-17]
   11de4:	e1a00003 	mov	r0, r3
   11de8:	ebffe91e 	bl	c268 <interrupts_set_level>
   11dec:	e24bd008 	sub	sp, fp, #8
   11df0:	e8bd8810 	pop	{r4, fp, pc}
   11df4:	0001a62c 	.word	0x0001a62c

00011df8 <thread_block>:
   11df8:	e92d4800 	push	{fp, lr}
   11dfc:	e28db004 	add	fp, sp, #4
   11e00:	ebffe965 	bl	c39c <interrupts_context>
   11e04:	e1a03000 	mov	r3, r0
   11e08:	e2233001 	eor	r3, r3, #1
   11e0c:	e6ef3073 	uxtb	r3, r3
   11e10:	e3530000 	cmp	r3, #0
   11e14:	1a000004 	bne	11e2c <thread_block+0x34>
   11e18:	e59f0048 	ldr	r0, [pc, #72]	; 11e68 <thread_block+0x70>
   11e1c:	e59f1048 	ldr	r1, [pc, #72]	; 11e6c <thread_block+0x74>
   11e20:	e59f2048 	ldr	r2, [pc, #72]	; 11e70 <thread_block+0x78>
   11e24:	e59f3048 	ldr	r3, [pc, #72]	; 11e74 <thread_block+0x7c>
   11e28:	ebffdd57 	bl	938c <debug_panic>
   11e2c:	ebffe8ff 	bl	c230 <interrupts_get_level>
   11e30:	e1a03000 	mov	r3, r0
   11e34:	e3530000 	cmp	r3, #0
   11e38:	0a000004 	beq	11e50 <thread_block+0x58>
   11e3c:	e59f0024 	ldr	r0, [pc, #36]	; 11e68 <thread_block+0x70>
   11e40:	e3a01f51 	mov	r1, #324	; 0x144
   11e44:	e59f2024 	ldr	r2, [pc, #36]	; 11e70 <thread_block+0x78>
   11e48:	e59f3024 	ldr	r3, [pc, #36]	; 11e74 <thread_block+0x7c>
   11e4c:	ebffdd4e 	bl	938c <debug_panic>
   11e50:	eb00003b 	bl	11f44 <thread_current>
   11e54:	e1a03000 	mov	r3, r0
   11e58:	e3a02002 	mov	r2, #2
   11e5c:	e5c32004 	strb	r2, [r3, #4]
   11e60:	eb0000d6 	bl	121c0 <schedule>
   11e64:	e8bd8800 	pop	{fp, pc}
   11e68:	00016634 	.word	0x00016634
   11e6c:	00000143 	.word	0x00000143
   11e70:	00016814 	.word	0x00016814
   11e74:	00016648 	.word	0x00016648

00011e78 <thread_unblock>:
   11e78:	e92d4800 	push	{fp, lr}
   11e7c:	e28db004 	add	fp, sp, #4
   11e80:	e24dd010 	sub	sp, sp, #16
   11e84:	e50b0010 	str	r0, [fp, #-16]
   11e88:	e51b0010 	ldr	r0, [fp, #-16]
   11e8c:	eb00026a 	bl	1283c <is_thread>
   11e90:	e1a03000 	mov	r3, r0
   11e94:	e3530000 	cmp	r3, #0
   11e98:	1a000004 	bne	11eb0 <thread_unblock+0x38>
   11e9c:	e59f0070 	ldr	r0, [pc, #112]	; 11f14 <thread_unblock+0x9c>
   11ea0:	e3a01f55 	mov	r1, #340	; 0x154
   11ea4:	e59f206c 	ldr	r2, [pc, #108]	; 11f18 <thread_unblock+0xa0>
   11ea8:	e59f306c 	ldr	r3, [pc, #108]	; 11f1c <thread_unblock+0xa4>
   11eac:	ebffdd36 	bl	938c <debug_panic>
   11eb0:	ebffe907 	bl	c2d4 <interrupts_disable>
   11eb4:	e1a03000 	mov	r3, r0
   11eb8:	e54b3005 	strb	r3, [fp, #-5]
   11ebc:	e51b3010 	ldr	r3, [fp, #-16]
   11ec0:	e5d33004 	ldrb	r3, [r3, #4]
   11ec4:	e3530002 	cmp	r3, #2
   11ec8:	0a000004 	beq	11ee0 <thread_unblock+0x68>
   11ecc:	e59f0040 	ldr	r0, [pc, #64]	; 11f14 <thread_unblock+0x9c>
   11ed0:	e59f1048 	ldr	r1, [pc, #72]	; 11f20 <thread_unblock+0xa8>
   11ed4:	e59f203c 	ldr	r2, [pc, #60]	; 11f18 <thread_unblock+0xa0>
   11ed8:	e59f303c 	ldr	r3, [pc, #60]	; 11f1c <thread_unblock+0xa4>
   11edc:	ebffdd2a 	bl	938c <debug_panic>
   11ee0:	e51b3010 	ldr	r3, [fp, #-16]
   11ee4:	e2833084 	add	r3, r3, #132	; 0x84
   11ee8:	e59f0034 	ldr	r0, [pc, #52]	; 11f24 <thread_unblock+0xac>
   11eec:	e1a01003 	mov	r1, r3
   11ef0:	ebffe551 	bl	b43c <list_push_back>
   11ef4:	e51b3010 	ldr	r3, [fp, #-16]
   11ef8:	e3a02001 	mov	r2, #1
   11efc:	e5c32004 	strb	r2, [r3, #4]
   11f00:	e55b3005 	ldrb	r3, [fp, #-5]
   11f04:	e1a00003 	mov	r0, r3
   11f08:	ebffe8d6 	bl	c268 <interrupts_set_level>
   11f0c:	e24bd004 	sub	sp, fp, #4
   11f10:	e8bd8800 	pop	{fp, pc}
   11f14:	00016634 	.word	0x00016634
   11f18:	00016824 	.word	0x00016824
   11f1c:	00016648 	.word	0x00016648
   11f20:	00000157 	.word	0x00000157
   11f24:	0001a61c 	.word	0x0001a61c

00011f28 <thread_name>:
   11f28:	e92d4800 	push	{fp, lr}
   11f2c:	e28db004 	add	fp, sp, #4
   11f30:	eb000003 	bl	11f44 <thread_current>
   11f34:	e1a03000 	mov	r3, r0
   11f38:	e2833005 	add	r3, r3, #5
   11f3c:	e1a00003 	mov	r0, r3
   11f40:	e8bd8800 	pop	{fp, pc}

00011f44 <thread_current>:
   11f44:	e92d4800 	push	{fp, lr}
   11f48:	e28db004 	add	fp, sp, #4
   11f4c:	e24dd008 	sub	sp, sp, #8
   11f50:	eb000224 	bl	127e8 <thread_get_running_thread>
   11f54:	e50b0008 	str	r0, [fp, #-8]
   11f58:	e51b0008 	ldr	r0, [fp, #-8]
   11f5c:	eb000236 	bl	1283c <is_thread>
   11f60:	e1a03000 	mov	r3, r0
   11f64:	e3530000 	cmp	r3, #0
   11f68:	1a000004 	bne	11f80 <thread_current+0x3c>
   11f6c:	e59f0040 	ldr	r0, [pc, #64]	; 11fb4 <thread_current+0x70>
   11f70:	e3a01f5b 	mov	r1, #364	; 0x16c
   11f74:	e59f203c 	ldr	r2, [pc, #60]	; 11fb8 <thread_current+0x74>
   11f78:	e59f303c 	ldr	r3, [pc, #60]	; 11fbc <thread_current+0x78>
   11f7c:	ebffdd02 	bl	938c <debug_panic>
   11f80:	e51b3008 	ldr	r3, [fp, #-8]
   11f84:	e5d33004 	ldrb	r3, [r3, #4]
   11f88:	e3530000 	cmp	r3, #0
   11f8c:	0a000004 	beq	11fa4 <thread_current+0x60>
   11f90:	e59f001c 	ldr	r0, [pc, #28]	; 11fb4 <thread_current+0x70>
   11f94:	e59f1024 	ldr	r1, [pc, #36]	; 11fc0 <thread_current+0x7c>
   11f98:	e59f2018 	ldr	r2, [pc, #24]	; 11fb8 <thread_current+0x74>
   11f9c:	e59f3018 	ldr	r3, [pc, #24]	; 11fbc <thread_current+0x78>
   11fa0:	ebffdcf9 	bl	938c <debug_panic>
   11fa4:	e51b3008 	ldr	r3, [fp, #-8]
   11fa8:	e1a00003 	mov	r0, r3
   11fac:	e24bd004 	sub	sp, fp, #4
   11fb0:	e8bd8800 	pop	{fp, pc}
   11fb4:	00016634 	.word	0x00016634
   11fb8:	00016834 	.word	0x00016834
   11fbc:	00016648 	.word	0x00016648
   11fc0:	0000016d 	.word	0x0000016d

00011fc4 <thread_tid>:
   11fc4:	e92d4800 	push	{fp, lr}
   11fc8:	e28db004 	add	fp, sp, #4
   11fcc:	ebffffdc 	bl	11f44 <thread_current>
   11fd0:	e1a03000 	mov	r3, r0
   11fd4:	e5933000 	ldr	r3, [r3]
   11fd8:	e1a00003 	mov	r0, r3
   11fdc:	e8bd8800 	pop	{fp, pc}

00011fe0 <thread_exit>:
   11fe0:	e92d4800 	push	{fp, lr}
   11fe4:	e28db004 	add	fp, sp, #4
   11fe8:	ebffe8eb 	bl	c39c <interrupts_context>
   11fec:	e1a03000 	mov	r3, r0
   11ff0:	e2233001 	eor	r3, r3, #1
   11ff4:	e6ef3073 	uxtb	r3, r3
   11ff8:	e3530000 	cmp	r3, #0
   11ffc:	1a000004 	bne	12014 <thread_exit+0x34>
   12000:	e59f00c4 	ldr	r0, [pc, #196]	; 120cc <thread_exit+0xec>
   12004:	e59f10c4 	ldr	r1, [pc, #196]	; 120d0 <thread_exit+0xf0>
   12008:	e59f20c4 	ldr	r2, [pc, #196]	; 120d4 <thread_exit+0xf4>
   1200c:	e59f30c4 	ldr	r3, [pc, #196]	; 120d8 <thread_exit+0xf8>
   12010:	ebffdcdd 	bl	938c <debug_panic>
   12014:	ebffffca 	bl	11f44 <thread_current>
   12018:	e1a03000 	mov	r3, r0
   1201c:	e5d33004 	ldrb	r3, [r3, #4]
   12020:	e3530000 	cmp	r3, #0
   12024:	0a000004 	beq	1203c <thread_exit+0x5c>
   12028:	e59f009c 	ldr	r0, [pc, #156]	; 120cc <thread_exit+0xec>
   1202c:	e59f10a8 	ldr	r1, [pc, #168]	; 120dc <thread_exit+0xfc>
   12030:	e59f209c 	ldr	r2, [pc, #156]	; 120d4 <thread_exit+0xf4>
   12034:	e59f309c 	ldr	r3, [pc, #156]	; 120d8 <thread_exit+0xf8>
   12038:	ebffdcd3 	bl	938c <debug_panic>
   1203c:	ebffe8a4 	bl	c2d4 <interrupts_disable>
   12040:	ea000008 	b	12068 <thread_exit+0x88>
   12044:	ebffffbe 	bl	11f44 <thread_current>
   12048:	e1a03000 	mov	r3, r0
   1204c:	e2833074 	add	r3, r3, #116	; 0x74
   12050:	e1a00003 	mov	r0, r3
   12054:	ebffe525 	bl	b4f0 <list_pop_front>
   12058:	e1a03000 	mov	r3, r0
   1205c:	e59f007c 	ldr	r0, [pc, #124]	; 120e0 <thread_exit+0x100>
   12060:	e1a01003 	mov	r1, r3
   12064:	ebffe4f4 	bl	b43c <list_push_back>
   12068:	ebffffb5 	bl	11f44 <thread_current>
   1206c:	e1a03000 	mov	r3, r0
   12070:	e2833074 	add	r3, r3, #116	; 0x74
   12074:	e1a00003 	mov	r0, r3
   12078:	ebffe581 	bl	b684 <list_empty>
   1207c:	e1a03000 	mov	r3, r0
   12080:	e2233001 	eor	r3, r3, #1
   12084:	e6ef3073 	uxtb	r3, r3
   12088:	e3530000 	cmp	r3, #0
   1208c:	1affffec 	bne	12044 <thread_exit+0x64>
   12090:	ebffffab 	bl	11f44 <thread_current>
   12094:	e1a03000 	mov	r3, r0
   12098:	e283306c 	add	r3, r3, #108	; 0x6c
   1209c:	e1a00003 	mov	r0, r3
   120a0:	ebffe4f2 	bl	b470 <list_remove>
   120a4:	ebffffa6 	bl	11f44 <thread_current>
   120a8:	e1a03000 	mov	r3, r0
   120ac:	e3a02003 	mov	r2, #3
   120b0:	e5c32004 	strb	r2, [r3, #4]
   120b4:	eb000041 	bl	121c0 <schedule>
   120b8:	e59f000c 	ldr	r0, [pc, #12]	; 120cc <thread_exit+0xec>
   120bc:	e59f1020 	ldr	r1, [pc, #32]	; 120e4 <thread_exit+0x104>
   120c0:	e59f200c 	ldr	r2, [pc, #12]	; 120d4 <thread_exit+0xf4>
   120c4:	e59f301c 	ldr	r3, [pc, #28]	; 120e8 <thread_exit+0x108>
   120c8:	ebffdcaf 	bl	938c <debug_panic>
   120cc:	00016634 	.word	0x00016634
   120d0:	0000017a 	.word	0x0000017a
   120d4:	00016844 	.word	0x00016844
   120d8:	00016648 	.word	0x00016648
   120dc:	0000017b 	.word	0x0000017b
   120e0:	0001a61c 	.word	0x0001a61c
   120e4:	0000018d 	.word	0x0000018d
   120e8:	000166b0 	.word	0x000166b0

000120ec <thread_yield>:
   120ec:	e92d4800 	push	{fp, lr}
   120f0:	e28db004 	add	fp, sp, #4
   120f4:	e24dd008 	sub	sp, sp, #8
   120f8:	ebffff91 	bl	11f44 <thread_current>
   120fc:	e50b0008 	str	r0, [fp, #-8]
   12100:	ebffe8a5 	bl	c39c <interrupts_context>
   12104:	e1a03000 	mov	r3, r0
   12108:	e2233001 	eor	r3, r3, #1
   1210c:	e6ef3073 	uxtb	r3, r3
   12110:	e3530000 	cmp	r3, #0
   12114:	1a000004 	bne	1212c <thread_yield+0x40>
   12118:	e59f0088 	ldr	r0, [pc, #136]	; 121a8 <thread_yield+0xbc>
   1211c:	e59f1088 	ldr	r1, [pc, #136]	; 121ac <thread_yield+0xc0>
   12120:	e59f2088 	ldr	r2, [pc, #136]	; 121b0 <thread_yield+0xc4>
   12124:	e59f3088 	ldr	r3, [pc, #136]	; 121b4 <thread_yield+0xc8>
   12128:	ebffdc97 	bl	938c <debug_panic>
   1212c:	e51b3008 	ldr	r3, [fp, #-8]
   12130:	e5d33004 	ldrb	r3, [r3, #4]
   12134:	e3530003 	cmp	r3, #3
   12138:	1a000004 	bne	12150 <thread_yield+0x64>
   1213c:	e59f0064 	ldr	r0, [pc, #100]	; 121a8 <thread_yield+0xbc>
   12140:	e3a01f66 	mov	r1, #408	; 0x198
   12144:	e59f2064 	ldr	r2, [pc, #100]	; 121b0 <thread_yield+0xc4>
   12148:	e59f3064 	ldr	r3, [pc, #100]	; 121b4 <thread_yield+0xc8>
   1214c:	ebffdc8e 	bl	938c <debug_panic>
   12150:	ebffe85f 	bl	c2d4 <interrupts_disable>
   12154:	e1a03000 	mov	r3, r0
   12158:	e54b3009 	strb	r3, [fp, #-9]
   1215c:	e59f3054 	ldr	r3, [pc, #84]	; 121b8 <thread_yield+0xcc>
   12160:	e5933000 	ldr	r3, [r3]
   12164:	e51b2008 	ldr	r2, [fp, #-8]
   12168:	e1520003 	cmp	r2, r3
   1216c:	0a000004 	beq	12184 <thread_yield+0x98>
   12170:	e51b3008 	ldr	r3, [fp, #-8]
   12174:	e2833084 	add	r3, r3, #132	; 0x84
   12178:	e59f003c 	ldr	r0, [pc, #60]	; 121bc <thread_yield+0xd0>
   1217c:	e1a01003 	mov	r1, r3
   12180:	ebffe4ad 	bl	b43c <list_push_back>
   12184:	e51b3008 	ldr	r3, [fp, #-8]
   12188:	e3a02001 	mov	r2, #1
   1218c:	e5c32004 	strb	r2, [r3, #4]
   12190:	eb00000a 	bl	121c0 <schedule>
   12194:	e55b3009 	ldrb	r3, [fp, #-9]
   12198:	e1a00003 	mov	r0, r3
   1219c:	ebffe831 	bl	c268 <interrupts_set_level>
   121a0:	e24bd004 	sub	sp, fp, #4
   121a4:	e8bd8800 	pop	{fp, pc}
   121a8:	00016634 	.word	0x00016634
   121ac:	00000197 	.word	0x00000197
   121b0:	00016850 	.word	0x00016850
   121b4:	00016648 	.word	0x00016648
   121b8:	0001a63c 	.word	0x0001a63c
   121bc:	0001a61c 	.word	0x0001a61c

000121c0 <schedule>:
   121c0:	e92d4800 	push	{fp, lr}
   121c4:	e28db004 	add	fp, sp, #4
   121c8:	e24dd008 	sub	sp, sp, #8
   121cc:	eb000185 	bl	127e8 <thread_get_running_thread>
   121d0:	e50b000c 	str	r0, [fp, #-12]
   121d4:	e59f30c0 	ldr	r3, [pc, #192]	; 1229c <schedule+0xdc>
   121d8:	e5d33000 	ldrb	r3, [r3]
   121dc:	e3530000 	cmp	r3, #0
   121e0:	0a000002 	beq	121f0 <schedule+0x30>
   121e4:	eb0001d7 	bl	12948 <thread_get_next_priority_thread_to_run>
   121e8:	e50b0008 	str	r0, [fp, #-8]
   121ec:	ea000001 	b	121f8 <schedule+0x38>
   121f0:	eb0001c1 	bl	128fc <thread_get_next_thread_to_run>
   121f4:	e50b0008 	str	r0, [fp, #-8]
   121f8:	ebffe80c 	bl	c230 <interrupts_get_level>
   121fc:	e1a03000 	mov	r3, r0
   12200:	e3530000 	cmp	r3, #0
   12204:	0a000004 	beq	1221c <schedule+0x5c>
   12208:	e59f0090 	ldr	r0, [pc, #144]	; 122a0 <schedule+0xe0>
   1220c:	e3a01f6b 	mov	r1, #428	; 0x1ac
   12210:	e59f208c 	ldr	r2, [pc, #140]	; 122a4 <schedule+0xe4>
   12214:	e59f308c 	ldr	r3, [pc, #140]	; 122a8 <schedule+0xe8>
   12218:	ebffdc5b 	bl	938c <debug_panic>
   1221c:	e51b300c 	ldr	r3, [fp, #-12]
   12220:	e5d33004 	ldrb	r3, [r3, #4]
   12224:	e3530000 	cmp	r3, #0
   12228:	1a000004 	bne	12240 <schedule+0x80>
   1222c:	e59f006c 	ldr	r0, [pc, #108]	; 122a0 <schedule+0xe0>
   12230:	e59f1074 	ldr	r1, [pc, #116]	; 122ac <schedule+0xec>
   12234:	e59f2068 	ldr	r2, [pc, #104]	; 122a4 <schedule+0xe4>
   12238:	e59f3068 	ldr	r3, [pc, #104]	; 122a8 <schedule+0xe8>
   1223c:	ebffdc52 	bl	938c <debug_panic>
   12240:	e51b0008 	ldr	r0, [fp, #-8]
   12244:	eb00017c 	bl	1283c <is_thread>
   12248:	e1a03000 	mov	r3, r0
   1224c:	e3530000 	cmp	r3, #0
   12250:	1a000004 	bne	12268 <schedule+0xa8>
   12254:	e59f0044 	ldr	r0, [pc, #68]	; 122a0 <schedule+0xe0>
   12258:	e59f1050 	ldr	r1, [pc, #80]	; 122b0 <schedule+0xf0>
   1225c:	e59f2040 	ldr	r2, [pc, #64]	; 122a4 <schedule+0xe4>
   12260:	e59f3040 	ldr	r3, [pc, #64]	; 122a8 <schedule+0xe8>
   12264:	ebffdc48 	bl	938c <debug_panic>
   12268:	ebffe854 	bl	c3c0 <interrupts_was_irq_generated>
   1226c:	e1a03000 	mov	r3, r0
   12270:	e3530000 	cmp	r3, #0
   12274:	0a000003 	beq	12288 <schedule+0xc8>
   12278:	e51b000c 	ldr	r0, [fp, #-12]
   1227c:	e51b1008 	ldr	r1, [fp, #-8]
   12280:	eb00000b 	bl	122b4 <schedule_in_interrupt>
   12284:	ea000002 	b	12294 <schedule+0xd4>
   12288:	e51b000c 	ldr	r0, [fp, #-12]
   1228c:	e51b1008 	ldr	r1, [fp, #-8]
   12290:	eb00004b 	bl	123c4 <schedule_not_in_interrupt>
   12294:	e24bd004 	sub	sp, fp, #4
   12298:	e8bd8800 	pop	{fp, pc}
   1229c:	0001a618 	.word	0x0001a618
   122a0:	00016634 	.word	0x00016634
   122a4:	00016860 	.word	0x00016860
   122a8:	00016648 	.word	0x00016648
   122ac:	000001ad 	.word	0x000001ad
   122b0:	000001ae 	.word	0x000001ae

000122b4 <schedule_in_interrupt>:
   122b4:	e92d4800 	push	{fp, lr}
   122b8:	e28db004 	add	fp, sp, #4
   122bc:	e24dd008 	sub	sp, sp, #8
   122c0:	e50b0008 	str	r0, [fp, #-8]
   122c4:	e50b100c 	str	r1, [fp, #-12]
   122c8:	ebffe7d8 	bl	c230 <interrupts_get_level>
   122cc:	e1a03000 	mov	r3, r0
   122d0:	e3530000 	cmp	r3, #0
   122d4:	0a000004 	beq	122ec <schedule_in_interrupt+0x38>
   122d8:	e59f00cc 	ldr	r0, [pc, #204]	; 123ac <schedule_in_interrupt+0xf8>
   122dc:	e59f10cc 	ldr	r1, [pc, #204]	; 123b0 <schedule_in_interrupt+0xfc>
   122e0:	e59f20cc 	ldr	r2, [pc, #204]	; 123b4 <schedule_in_interrupt+0x100>
   122e4:	e59f30cc 	ldr	r3, [pc, #204]	; 123b8 <schedule_in_interrupt+0x104>
   122e8:	ebffdc27 	bl	938c <debug_panic>
   122ec:	e51b0008 	ldr	r0, [fp, #-8]
   122f0:	eb000151 	bl	1283c <is_thread>
   122f4:	e1a03000 	mov	r3, r0
   122f8:	e3530000 	cmp	r3, #0
   122fc:	1a000004 	bne	12314 <schedule_in_interrupt+0x60>
   12300:	e59f00a4 	ldr	r0, [pc, #164]	; 123ac <schedule_in_interrupt+0xf8>
   12304:	e59f10b0 	ldr	r1, [pc, #176]	; 123bc <schedule_in_interrupt+0x108>
   12308:	e59f20a4 	ldr	r2, [pc, #164]	; 123b4 <schedule_in_interrupt+0x100>
   1230c:	e59f30a4 	ldr	r3, [pc, #164]	; 123b8 <schedule_in_interrupt+0x104>
   12310:	ebffdc1d 	bl	938c <debug_panic>
   12314:	e51b000c 	ldr	r0, [fp, #-12]
   12318:	eb000147 	bl	1283c <is_thread>
   1231c:	e1a03000 	mov	r3, r0
   12320:	e3530000 	cmp	r3, #0
   12324:	1a000004 	bne	1233c <schedule_in_interrupt+0x88>
   12328:	e59f007c 	ldr	r0, [pc, #124]	; 123ac <schedule_in_interrupt+0xf8>
   1232c:	e3a01d07 	mov	r1, #448	; 0x1c0
   12330:	e59f207c 	ldr	r2, [pc, #124]	; 123b4 <schedule_in_interrupt+0x100>
   12334:	e59f307c 	ldr	r3, [pc, #124]	; 123b8 <schedule_in_interrupt+0x104>
   12338:	ebffdc13 	bl	938c <debug_panic>
   1233c:	ebffe81f 	bl	c3c0 <interrupts_was_irq_generated>
   12340:	e1a03000 	mov	r3, r0
   12344:	e3530000 	cmp	r3, #0
   12348:	1a000004 	bne	12360 <schedule_in_interrupt+0xac>
   1234c:	e59f0058 	ldr	r0, [pc, #88]	; 123ac <schedule_in_interrupt+0xf8>
   12350:	e59f1068 	ldr	r1, [pc, #104]	; 123c0 <schedule_in_interrupt+0x10c>
   12354:	e59f2058 	ldr	r2, [pc, #88]	; 123b4 <schedule_in_interrupt+0x100>
   12358:	e59f3058 	ldr	r3, [pc, #88]	; 123b8 <schedule_in_interrupt+0x104>
   1235c:	ebffdc0a 	bl	938c <debug_panic>
   12360:	eb0001c7 	bl	12a84 <get_current_interrupts_stack_frame>
   12364:	e1a03000 	mov	r3, r0
   12368:	e51b0008 	ldr	r0, [fp, #-8]
   1236c:	e1a01003 	mov	r1, r3
   12370:	eb00018d 	bl	129ac <thread_save_stack_frame>
   12374:	e51b2008 	ldr	r2, [fp, #-8]
   12378:	e51b300c 	ldr	r3, [fp, #-12]
   1237c:	e1520003 	cmp	r2, r3
   12380:	0a000004 	beq	12398 <schedule_in_interrupt+0xe4>
   12384:	eb0001be 	bl	12a84 <get_current_interrupts_stack_frame>
   12388:	e1a03000 	mov	r3, r0
   1238c:	e51b000c 	ldr	r0, [fp, #-12]
   12390:	e1a01003 	mov	r1, r3
   12394:	eb000194 	bl	129ec <context_switch>
   12398:	e51b0008 	ldr	r0, [fp, #-8]
   1239c:	e51b100c 	ldr	r1, [fp, #-12]
   123a0:	eb000045 	bl	124bc <thread_schedule_tail>
   123a4:	e24bd004 	sub	sp, fp, #4
   123a8:	e8bd8800 	pop	{fp, pc}
   123ac:	00016634 	.word	0x00016634
   123b0:	000001be 	.word	0x000001be
   123b4:	0001686c 	.word	0x0001686c
   123b8:	00016648 	.word	0x00016648
   123bc:	000001bf 	.word	0x000001bf
   123c0:	000001c1 	.word	0x000001c1

000123c4 <schedule_not_in_interrupt>:
   123c4:	e92d4800 	push	{fp, lr}
   123c8:	e28db004 	add	fp, sp, #4
   123cc:	e24dd008 	sub	sp, sp, #8
   123d0:	e50b0008 	str	r0, [fp, #-8]
   123d4:	e50b100c 	str	r1, [fp, #-12]
   123d8:	ebffe794 	bl	c230 <interrupts_get_level>
   123dc:	e1a03000 	mov	r3, r0
   123e0:	e3530000 	cmp	r3, #0
   123e4:	0a000004 	beq	123fc <schedule_not_in_interrupt+0x38>
   123e8:	e59f00b4 	ldr	r0, [pc, #180]	; 124a4 <schedule_not_in_interrupt+0xe0>
   123ec:	e59f10b4 	ldr	r1, [pc, #180]	; 124a8 <schedule_not_in_interrupt+0xe4>
   123f0:	e59f20b4 	ldr	r2, [pc, #180]	; 124ac <schedule_not_in_interrupt+0xe8>
   123f4:	e59f30b4 	ldr	r3, [pc, #180]	; 124b0 <schedule_not_in_interrupt+0xec>
   123f8:	ebffdbe3 	bl	938c <debug_panic>
   123fc:	e51b0008 	ldr	r0, [fp, #-8]
   12400:	eb00010d 	bl	1283c <is_thread>
   12404:	e1a03000 	mov	r3, r0
   12408:	e3530000 	cmp	r3, #0
   1240c:	1a000004 	bne	12424 <schedule_not_in_interrupt+0x60>
   12410:	e59f008c 	ldr	r0, [pc, #140]	; 124a4 <schedule_not_in_interrupt+0xe0>
   12414:	e59f1098 	ldr	r1, [pc, #152]	; 124b4 <schedule_not_in_interrupt+0xf0>
   12418:	e59f208c 	ldr	r2, [pc, #140]	; 124ac <schedule_not_in_interrupt+0xe8>
   1241c:	e59f308c 	ldr	r3, [pc, #140]	; 124b0 <schedule_not_in_interrupt+0xec>
   12420:	ebffdbd9 	bl	938c <debug_panic>
   12424:	e51b000c 	ldr	r0, [fp, #-12]
   12428:	eb000103 	bl	1283c <is_thread>
   1242c:	e1a03000 	mov	r3, r0
   12430:	e3530000 	cmp	r3, #0
   12434:	1a000004 	bne	1244c <schedule_not_in_interrupt+0x88>
   12438:	e59f0064 	ldr	r0, [pc, #100]	; 124a4 <schedule_not_in_interrupt+0xe0>
   1243c:	e3a01f75 	mov	r1, #468	; 0x1d4
   12440:	e59f2064 	ldr	r2, [pc, #100]	; 124ac <schedule_not_in_interrupt+0xe8>
   12444:	e59f3064 	ldr	r3, [pc, #100]	; 124b0 <schedule_not_in_interrupt+0xec>
   12448:	ebffdbcf 	bl	938c <debug_panic>
   1244c:	ebffe7db 	bl	c3c0 <interrupts_was_irq_generated>
   12450:	e1a03000 	mov	r3, r0
   12454:	e2233001 	eor	r3, r3, #1
   12458:	e6ef3073 	uxtb	r3, r3
   1245c:	e3530000 	cmp	r3, #0
   12460:	1a000004 	bne	12478 <schedule_not_in_interrupt+0xb4>
   12464:	e59f0038 	ldr	r0, [pc, #56]	; 124a4 <schedule_not_in_interrupt+0xe0>
   12468:	e59f1048 	ldr	r1, [pc, #72]	; 124b8 <schedule_not_in_interrupt+0xf4>
   1246c:	e59f2038 	ldr	r2, [pc, #56]	; 124ac <schedule_not_in_interrupt+0xe8>
   12470:	e59f3038 	ldr	r3, [pc, #56]	; 124b0 <schedule_not_in_interrupt+0xec>
   12474:	ebffdbc4 	bl	938c <debug_panic>
   12478:	e51b3008 	ldr	r3, [fp, #-8]
   1247c:	e2832028 	add	r2, r3, #40	; 0x28
   12480:	e51b300c 	ldr	r3, [fp, #-12]
   12484:	e2833028 	add	r3, r3, #40	; 0x28
   12488:	e1a00002 	mov	r0, r2
   1248c:	e1a01003 	mov	r1, r3
   12490:	e51b2008 	ldr	r2, [fp, #-8]
   12494:	e51b300c 	ldr	r3, [fp, #-12]
   12498:	ebffd717 	bl	80fc <save_and_switch_context>
   1249c:	e24bd004 	sub	sp, fp, #4
   124a0:	e8bd8800 	pop	{fp, pc}
   124a4:	00016634 	.word	0x00016634
   124a8:	000001d2 	.word	0x000001d2
   124ac:	00016884 	.word	0x00016884
   124b0:	00016648 	.word	0x00016648
   124b4:	000001d3 	.word	0x000001d3
   124b8:	000001d5 	.word	0x000001d5

000124bc <thread_schedule_tail>:
   124bc:	e92d4800 	push	{fp, lr}
   124c0:	e28db004 	add	fp, sp, #4
   124c4:	e24dd008 	sub	sp, sp, #8
   124c8:	e50b0008 	str	r0, [fp, #-8]
   124cc:	e50b100c 	str	r1, [fp, #-12]
   124d0:	ebffe756 	bl	c230 <interrupts_get_level>
   124d4:	e1a03000 	mov	r3, r0
   124d8:	e3530000 	cmp	r3, #0
   124dc:	0a000004 	beq	124f4 <thread_schedule_tail+0x38>
   124e0:	e59f0084 	ldr	r0, [pc, #132]	; 1256c <thread_schedule_tail+0xb0>
   124e4:	e59f1084 	ldr	r1, [pc, #132]	; 12570 <thread_schedule_tail+0xb4>
   124e8:	e59f2084 	ldr	r2, [pc, #132]	; 12574 <thread_schedule_tail+0xb8>
   124ec:	e59f3084 	ldr	r3, [pc, #132]	; 12578 <thread_schedule_tail+0xbc>
   124f0:	ebffdba5 	bl	938c <debug_panic>
   124f4:	e59f3080 	ldr	r3, [pc, #128]	; 1257c <thread_schedule_tail+0xc0>
   124f8:	e3a02000 	mov	r2, #0
   124fc:	e5832000 	str	r2, [r3]
   12500:	e51b300c 	ldr	r3, [fp, #-12]
   12504:	e3a02000 	mov	r2, #0
   12508:	e5c32004 	strb	r2, [r3, #4]
   1250c:	e51b3008 	ldr	r3, [fp, #-8]
   12510:	e5d33004 	ldrb	r3, [r3, #4]
   12514:	e3530003 	cmp	r3, #3
   12518:	1a000011 	bne	12564 <thread_schedule_tail+0xa8>
   1251c:	e59f305c 	ldr	r3, [pc, #92]	; 12580 <thread_schedule_tail+0xc4>
   12520:	e5933000 	ldr	r3, [r3]
   12524:	e51b2008 	ldr	r2, [fp, #-8]
   12528:	e1520003 	cmp	r2, r3
   1252c:	0a00000c 	beq	12564 <thread_schedule_tail+0xa8>
   12530:	e51b2008 	ldr	r2, [fp, #-8]
   12534:	e51b300c 	ldr	r3, [fp, #-12]
   12538:	e1520003 	cmp	r2, r3
   1253c:	1a000004 	bne	12554 <thread_schedule_tail+0x98>
   12540:	e59f0024 	ldr	r0, [pc, #36]	; 1256c <thread_schedule_tail+0xb0>
   12544:	e3a01f7d 	mov	r1, #500	; 0x1f4
   12548:	e59f2024 	ldr	r2, [pc, #36]	; 12574 <thread_schedule_tail+0xb8>
   1254c:	e59f3024 	ldr	r3, [pc, #36]	; 12578 <thread_schedule_tail+0xbc>
   12550:	ebffdb8d 	bl	938c <debug_panic>
   12554:	e51b0008 	ldr	r0, [fp, #-8]
   12558:	ebffec53 	bl	d6ac <palloc_free_page>
   1255c:	e59f0020 	ldr	r0, [pc, #32]	; 12584 <thread_schedule_tail+0xc8>
   12560:	ebfffbf6 	bl	11540 <timer_msleep>
   12564:	e24bd004 	sub	sp, fp, #4
   12568:	e8bd8800 	pop	{fp, pc}
   1256c:	00016634 	.word	0x00016634
   12570:	000001e2 	.word	0x000001e2
   12574:	000168a0 	.word	0x000168a0
   12578:	00016648 	.word	0x00016648
   1257c:	0001a678 	.word	0x0001a678
   12580:	0001a640 	.word	0x0001a640
   12584:	000f4240 	.word	0x000f4240

00012588 <thread_foreach>:
   12588:	e92d4800 	push	{fp, lr}
   1258c:	e28db004 	add	fp, sp, #4
   12590:	e24dd010 	sub	sp, sp, #16
   12594:	e50b0010 	str	r0, [fp, #-16]
   12598:	e50b1014 	str	r1, [fp, #-20]
   1259c:	ebffe723 	bl	c230 <interrupts_get_level>
   125a0:	e1a03000 	mov	r3, r0
   125a4:	e3530000 	cmp	r3, #0
   125a8:	0a000004 	beq	125c0 <thread_foreach+0x38>
   125ac:	e59f0068 	ldr	r0, [pc, #104]	; 1261c <thread_foreach+0x94>
   125b0:	e59f1068 	ldr	r1, [pc, #104]	; 12620 <thread_foreach+0x98>
   125b4:	e59f2068 	ldr	r2, [pc, #104]	; 12624 <thread_foreach+0x9c>
   125b8:	e59f3068 	ldr	r3, [pc, #104]	; 12628 <thread_foreach+0xa0>
   125bc:	ebffdb72 	bl	938c <debug_panic>
   125c0:	e59f0064 	ldr	r0, [pc, #100]	; 1262c <thread_foreach+0xa4>
   125c4:	ebffe266 	bl	af64 <list_begin>
   125c8:	e50b0008 	str	r0, [fp, #-8]
   125cc:	ea00000a 	b	125fc <thread_foreach+0x74>
   125d0:	e51b3008 	ldr	r3, [fp, #-8]
   125d4:	e2833004 	add	r3, r3, #4
   125d8:	e2433070 	sub	r3, r3, #112	; 0x70
   125dc:	e50b300c 	str	r3, [fp, #-12]
   125e0:	e51b3010 	ldr	r3, [fp, #-16]
   125e4:	e51b000c 	ldr	r0, [fp, #-12]
   125e8:	e51b1014 	ldr	r1, [fp, #-20]
   125ec:	e12fff33 	blx	r3
   125f0:	e51b0008 	ldr	r0, [fp, #-8]
   125f4:	ebffe26e 	bl	afb4 <list_next>
   125f8:	e50b0008 	str	r0, [fp, #-8]
   125fc:	e59f0028 	ldr	r0, [pc, #40]	; 1262c <thread_foreach+0xa4>
   12600:	ebffe286 	bl	b020 <list_end>
   12604:	e1a02000 	mov	r2, r0
   12608:	e51b3008 	ldr	r3, [fp, #-8]
   1260c:	e1520003 	cmp	r2, r3
   12610:	1affffee 	bne	125d0 <thread_foreach+0x48>
   12614:	e24bd004 	sub	sp, fp, #4
   12618:	e8bd8800 	pop	{fp, pc}
   1261c:	00016634 	.word	0x00016634
   12620:	00000202 	.word	0x00000202
   12624:	000168b8 	.word	0x000168b8
   12628:	00016648 	.word	0x00016648
   1262c:	0001a62c 	.word	0x0001a62c

00012630 <thread_set_priority>:
   12630:	e92d4800 	push	{fp, lr}
   12634:	e28db004 	add	fp, sp, #4
   12638:	e24dd008 	sub	sp, sp, #8
   1263c:	e50b0008 	str	r0, [fp, #-8]
   12640:	ebfffe3f 	bl	11f44 <thread_current>
   12644:	e1a03000 	mov	r3, r0
   12648:	e51b2008 	ldr	r2, [fp, #-8]
   1264c:	e583201c 	str	r2, [r3, #28]
   12650:	e24bd004 	sub	sp, fp, #4
   12654:	e8bd8800 	pop	{fp, pc}

00012658 <thread_get_priority>:
   12658:	e92d4800 	push	{fp, lr}
   1265c:	e28db004 	add	fp, sp, #4
   12660:	ebfffe37 	bl	11f44 <thread_current>
   12664:	e1a03000 	mov	r3, r0
   12668:	e593301c 	ldr	r3, [r3, #28]
   1266c:	e1a00003 	mov	r0, r3
   12670:	e8bd8800 	pop	{fp, pc}

00012674 <thread_set_nice>:
   12674:	e52db004 	push	{fp}		; (str fp, [sp, #-4]!)
   12678:	e28db000 	add	fp, sp, #0
   1267c:	e24dd00c 	sub	sp, sp, #12
   12680:	e50b0008 	str	r0, [fp, #-8]
   12684:	e24bd000 	sub	sp, fp, #0
   12688:	e49db004 	pop	{fp}		; (ldr fp, [sp], #4)
   1268c:	e12fff1e 	bx	lr

00012690 <thread_get_nice>:
   12690:	e52db004 	push	{fp}		; (str fp, [sp, #-4]!)
   12694:	e28db000 	add	fp, sp, #0
   12698:	e3a03000 	mov	r3, #0
   1269c:	e1a00003 	mov	r0, r3
   126a0:	e24bd000 	sub	sp, fp, #0
   126a4:	e49db004 	pop	{fp}		; (ldr fp, [sp], #4)
   126a8:	e12fff1e 	bx	lr

000126ac <thread_get_load_avg>:
   126ac:	e52db004 	push	{fp}		; (str fp, [sp, #-4]!)
   126b0:	e28db000 	add	fp, sp, #0
   126b4:	e3a03000 	mov	r3, #0
   126b8:	e1a00003 	mov	r0, r3
   126bc:	e24bd000 	sub	sp, fp, #0
   126c0:	e49db004 	pop	{fp}		; (ldr fp, [sp], #4)
   126c4:	e12fff1e 	bx	lr

000126c8 <thread_get_recent_cpu>:
   126c8:	e52db004 	push	{fp}		; (str fp, [sp, #-4]!)
   126cc:	e28db000 	add	fp, sp, #0
   126d0:	e3a03000 	mov	r3, #0
   126d4:	e1a00003 	mov	r0, r3
   126d8:	e24bd000 	sub	sp, fp, #0
   126dc:	e49db004 	pop	{fp}		; (ldr fp, [sp], #4)
   126e0:	e12fff1e 	bx	lr

000126e4 <idle>:
   126e4:	e92d4800 	push	{fp, lr}
   126e8:	e28db004 	add	fp, sp, #4
   126ec:	e24dd010 	sub	sp, sp, #16
   126f0:	e50b0010 	str	r0, [fp, #-16]
   126f4:	e51b3010 	ldr	r3, [fp, #-16]
   126f8:	e3530000 	cmp	r3, #0
   126fc:	1a000004 	bne	12714 <idle+0x30>
   12700:	e59f0068 	ldr	r0, [pc, #104]	; 12770 <idle+0x8c>
   12704:	e59f1068 	ldr	r1, [pc, #104]	; 12774 <idle+0x90>
   12708:	e59f2068 	ldr	r2, [pc, #104]	; 12778 <idle+0x94>
   1270c:	e59f3068 	ldr	r3, [pc, #104]	; 1277c <idle+0x98>
   12710:	ebffdb1d 	bl	938c <debug_panic>
   12714:	e51b3010 	ldr	r3, [fp, #-16]
   12718:	e50b3008 	str	r3, [fp, #-8]
   1271c:	ebfffe08 	bl	11f44 <thread_current>
   12720:	e1a02000 	mov	r2, r0
   12724:	e59f3054 	ldr	r3, [pc, #84]	; 12780 <idle+0x9c>
   12728:	e5832000 	str	r2, [r3]
   1272c:	e51b0008 	ldr	r0, [fp, #-8]
   12730:	ebfff986 	bl	10d50 <sema_up>
   12734:	e3a03e7e 	mov	r3, #2016	; 0x7e0
   12738:	e14b30ba 	strh	r3, [fp, #-10]
   1273c:	e15b30ba 	ldrh	r3, [fp, #-10]
   12740:	e1a00003 	mov	r0, r3
   12744:	ebffd68a 	bl	8174 <SetForeColour>
   12748:	e59f0034 	ldr	r0, [pc, #52]	; 12784 <idle+0xa0>
   1274c:	ebfffb7b 	bl	11540 <timer_msleep>
   12750:	ebffe6df 	bl	c2d4 <interrupts_disable>
   12754:	e1a03000 	mov	r3, r0
   12758:	e54b300b 	strb	r3, [fp, #-11]
   1275c:	ebfffda5 	bl	11df8 <thread_block>
   12760:	e55b300b 	ldrb	r3, [fp, #-11]
   12764:	e1a00003 	mov	r0, r3
   12768:	ebffe6be 	bl	c268 <interrupts_set_level>
   1276c:	eafffff2 	b	1273c <idle+0x58>
   12770:	00016634 	.word	0x00016634
   12774:	00000233 	.word	0x00000233
   12778:	000168c8 	.word	0x000168c8
   1277c:	00016648 	.word	0x00016648
   12780:	0001a63c 	.word	0x0001a63c
   12784:	000f4240 	.word	0x000f4240

00012788 <kernel_thread>:
   12788:	e92d4800 	push	{fp, lr}
   1278c:	e28db004 	add	fp, sp, #4
   12790:	e24dd008 	sub	sp, sp, #8
   12794:	e50b0008 	str	r0, [fp, #-8]
   12798:	e50b100c 	str	r1, [fp, #-12]
   1279c:	e51b3008 	ldr	r3, [fp, #-8]
   127a0:	e3530000 	cmp	r3, #0
   127a4:	1a000004 	bne	127bc <kernel_thread+0x34>
   127a8:	e59f0028 	ldr	r0, [pc, #40]	; 127d8 <kernel_thread+0x50>
   127ac:	e59f1028 	ldr	r1, [pc, #40]	; 127dc <kernel_thread+0x54>
   127b0:	e59f2028 	ldr	r2, [pc, #40]	; 127e0 <kernel_thread+0x58>
   127b4:	e59f3028 	ldr	r3, [pc, #40]	; 127e4 <kernel_thread+0x5c>
   127b8:	ebffdaf3 	bl	938c <debug_panic>
   127bc:	ebffe6b9 	bl	c2a8 <interrupts_enable>
   127c0:	e51b3008 	ldr	r3, [fp, #-8]
   127c4:	e51b000c 	ldr	r0, [fp, #-12]
   127c8:	e12fff33 	blx	r3
   127cc:	ebfffe03 	bl	11fe0 <thread_exit>
   127d0:	e24bd004 	sub	sp, fp, #4
   127d4:	e8bd8800 	pop	{fp, pc}
   127d8:	00016634 	.word	0x00016634
   127dc:	00000249 	.word	0x00000249
   127e0:	000168d0 	.word	0x000168d0
   127e4:	00016648 	.word	0x00016648

000127e8 <thread_get_running_thread>:
   127e8:	e92d4800 	push	{fp, lr}
   127ec:	e28db004 	add	fp, sp, #4
   127f0:	e24dd008 	sub	sp, sp, #8
   127f4:	ebffe6f1 	bl	c3c0 <interrupts_was_irq_generated>
   127f8:	e1a03000 	mov	r3, r0
   127fc:	e3530000 	cmp	r3, #0
   12800:	0a000005 	beq	1281c <thread_get_running_thread+0x34>
   12804:	eb00009e 	bl	12a84 <get_current_interrupts_stack_frame>
   12808:	e50b000c 	str	r0, [fp, #-12]
   1280c:	e51b300c 	ldr	r3, [fp, #-12]
   12810:	e5933004 	ldr	r3, [r3, #4]
   12814:	e50b3008 	str	r3, [fp, #-8]
   12818:	ea000001 	b	12824 <thread_get_running_thread+0x3c>
   1281c:	ebffd739 	bl	8508 <get_current_sp>
   12820:	e50b0008 	str	r0, [fp, #-8]
   12824:	e51b0008 	ldr	r0, [fp, #-8]
   12828:	ebfffbc0 	bl	11730 <pg_round_down>
   1282c:	e1a03000 	mov	r3, r0
   12830:	e1a00003 	mov	r0, r3
   12834:	e24bd004 	sub	sp, fp, #4
   12838:	e8bd8800 	pop	{fp, pc}

0001283c <is_thread>:
   1283c:	e52db004 	push	{fp}		; (str fp, [sp, #-4]!)
   12840:	e28db000 	add	fp, sp, #0
   12844:	e24dd00c 	sub	sp, sp, #12
   12848:	e50b0008 	str	r0, [fp, #-8]
   1284c:	e51b3008 	ldr	r3, [fp, #-8]
   12850:	e3530000 	cmp	r3, #0
   12854:	0a000006 	beq	12874 <is_thread+0x38>
   12858:	e51b3008 	ldr	r3, [fp, #-8]
   1285c:	e5932098 	ldr	r2, [r3, #152]	; 0x98
   12860:	e59f3028 	ldr	r3, [pc, #40]	; 12890 <is_thread+0x54>
   12864:	e1520003 	cmp	r2, r3
   12868:	1a000001 	bne	12874 <is_thread+0x38>
   1286c:	e3a03001 	mov	r3, #1
   12870:	ea000000 	b	12878 <is_thread+0x3c>
   12874:	e3a03000 	mov	r3, #0
   12878:	e2033001 	and	r3, r3, #1
   1287c:	e6ef3073 	uxtb	r3, r3
   12880:	e1a00003 	mov	r0, r3
   12884:	e24bd000 	sub	sp, fp, #0
   12888:	e49db004 	pop	{fp}		; (ldr fp, [sp], #4)
   1288c:	e12fff1e 	bx	lr
   12890:	cd6abf4b 	.word	0xcd6abf4b

00012894 <my_order_function>:
   12894:	e52db004 	push	{fp}		; (str fp, [sp, #-4]!)
   12898:	e28db000 	add	fp, sp, #0
   1289c:	e24dd01c 	sub	sp, sp, #28
   128a0:	e50b0010 	str	r0, [fp, #-16]
   128a4:	e50b1014 	str	r1, [fp, #-20]
   128a8:	e50b2018 	str	r2, [fp, #-24]
   128ac:	e51b3010 	ldr	r3, [fp, #-16]
   128b0:	e2833004 	add	r3, r3, #4
   128b4:	e2433088 	sub	r3, r3, #136	; 0x88
   128b8:	e50b3008 	str	r3, [fp, #-8]
   128bc:	e51b3014 	ldr	r3, [fp, #-20]
   128c0:	e2833004 	add	r3, r3, #4
   128c4:	e2433088 	sub	r3, r3, #136	; 0x88
   128c8:	e50b300c 	str	r3, [fp, #-12]
   128cc:	e51b3008 	ldr	r3, [fp, #-8]
   128d0:	e593201c 	ldr	r2, [r3, #28]
   128d4:	e51b300c 	ldr	r3, [fp, #-12]
   128d8:	e593301c 	ldr	r3, [r3, #28]
   128dc:	e1520003 	cmp	r2, r3
   128e0:	d3a03000 	movle	r3, #0
   128e4:	c3a03001 	movgt	r3, #1
   128e8:	e6ef3073 	uxtb	r3, r3
   128ec:	e1a00003 	mov	r0, r3
   128f0:	e24bd000 	sub	sp, fp, #0
   128f4:	e49db004 	pop	{fp}		; (ldr fp, [sp], #4)
   128f8:	e12fff1e 	bx	lr

000128fc <thread_get_next_thread_to_run>:
   128fc:	e92d4800 	push	{fp, lr}
   12900:	e28db004 	add	fp, sp, #4
   12904:	e59f0034 	ldr	r0, [pc, #52]	; 12940 <thread_get_next_thread_to_run+0x44>
   12908:	ebffe35d 	bl	b684 <list_empty>
   1290c:	e1a03000 	mov	r3, r0
   12910:	e3530000 	cmp	r3, #0
   12914:	0a000002 	beq	12924 <thread_get_next_thread_to_run+0x28>
   12918:	e59f3024 	ldr	r3, [pc, #36]	; 12944 <thread_get_next_thread_to_run+0x48>
   1291c:	e5933000 	ldr	r3, [r3]
   12920:	ea000004 	b	12938 <thread_get_next_thread_to_run+0x3c>
   12924:	e59f0014 	ldr	r0, [pc, #20]	; 12940 <thread_get_next_thread_to_run+0x44>
   12928:	ebffe2f0 	bl	b4f0 <list_pop_front>
   1292c:	e1a03000 	mov	r3, r0
   12930:	e2833004 	add	r3, r3, #4
   12934:	e2433088 	sub	r3, r3, #136	; 0x88
   12938:	e1a00003 	mov	r0, r3
   1293c:	e8bd8800 	pop	{fp, pc}
   12940:	0001a61c 	.word	0x0001a61c
   12944:	0001a63c 	.word	0x0001a63c

00012948 <thread_get_next_priority_thread_to_run>:
   12948:	e92d4800 	push	{fp, lr}
   1294c:	e28db004 	add	fp, sp, #4
   12950:	e59f0048 	ldr	r0, [pc, #72]	; 129a0 <thread_get_next_priority_thread_to_run+0x58>
   12954:	ebffe34a 	bl	b684 <list_empty>
   12958:	e1a03000 	mov	r3, r0
   1295c:	e3530000 	cmp	r3, #0
   12960:	0a000003 	beq	12974 <thread_get_next_priority_thread_to_run+0x2c>
   12964:	ebfffd9d 	bl	11fe0 <thread_exit>
   12968:	e59f3034 	ldr	r3, [pc, #52]	; 129a4 <thread_get_next_priority_thread_to_run+0x5c>
   1296c:	e5933000 	ldr	r3, [r3]
   12970:	ea000008 	b	12998 <thread_get_next_priority_thread_to_run+0x50>
   12974:	e59f0024 	ldr	r0, [pc, #36]	; 129a0 <thread_get_next_priority_thread_to_run+0x58>
   12978:	e59f1028 	ldr	r1, [pc, #40]	; 129a8 <thread_get_next_priority_thread_to_run+0x60>
   1297c:	e3a02000 	mov	r2, #0
   12980:	ebffe468 	bl	bb28 <list_sort>
   12984:	e59f0014 	ldr	r0, [pc, #20]	; 129a0 <thread_get_next_priority_thread_to_run+0x58>
   12988:	ebffe2d8 	bl	b4f0 <list_pop_front>
   1298c:	e1a03000 	mov	r3, r0
   12990:	e2833004 	add	r3, r3, #4
   12994:	e2433088 	sub	r3, r3, #136	; 0x88
   12998:	e1a00003 	mov	r0, r3
   1299c:	e8bd8800 	pop	{fp, pc}
   129a0:	0001a61c 	.word	0x0001a61c
   129a4:	0001a63c 	.word	0x0001a63c
   129a8:	00012894 	.word	0x00012894

000129ac <thread_save_stack_frame>:
   129ac:	e92d4800 	push	{fp, lr}
   129b0:	e28db004 	add	fp, sp, #4
   129b4:	e24dd008 	sub	sp, sp, #8
   129b8:	e50b0008 	str	r0, [fp, #-8]
   129bc:	e50b100c 	str	r1, [fp, #-12]
   129c0:	e51b2008 	ldr	r2, [fp, #-8]
   129c4:	e51b300c 	ldr	r3, [fp, #-12]
   129c8:	e2821028 	add	r1, r2, #40	; 0x28
   129cc:	e1a02003 	mov	r2, r3
   129d0:	e3a03044 	mov	r3, #68	; 0x44
   129d4:	e1a00001 	mov	r0, r1
   129d8:	e1a01002 	mov	r1, r2
   129dc:	e1a02003 	mov	r2, r3
   129e0:	ebfff529 	bl	fe8c <memcpy>
   129e4:	e24bd004 	sub	sp, fp, #4
   129e8:	e8bd8800 	pop	{fp, pc}

000129ec <context_switch>:
   129ec:	e92d4800 	push	{fp, lr}
   129f0:	e28db004 	add	fp, sp, #4
   129f4:	e24dd008 	sub	sp, sp, #8
   129f8:	e50b0008 	str	r0, [fp, #-8]
   129fc:	e50b100c 	str	r1, [fp, #-12]
   12a00:	e51b200c 	ldr	r2, [fp, #-12]
   12a04:	e51b3008 	ldr	r3, [fp, #-8]
   12a08:	e1a01002 	mov	r1, r2
   12a0c:	e2832028 	add	r2, r3, #40	; 0x28
   12a10:	e3a03044 	mov	r3, #68	; 0x44
   12a14:	e1a00001 	mov	r0, r1
   12a18:	e1a01002 	mov	r1, r2
   12a1c:	e1a02003 	mov	r2, r3
   12a20:	ebfff519 	bl	fe8c <memcpy>
   12a24:	e24bd004 	sub	sp, fp, #4
   12a28:	e8bd8800 	pop	{fp, pc}

00012a2c <set_current_interrupts_stack_frame>:
   12a2c:	e92d4800 	push	{fp, lr}
   12a30:	e28db004 	add	fp, sp, #4
   12a34:	e24dd008 	sub	sp, sp, #8
   12a38:	e50b0008 	str	r0, [fp, #-8]
   12a3c:	e51b3008 	ldr	r3, [fp, #-8]
   12a40:	e3530000 	cmp	r3, #0
   12a44:	1a000004 	bne	12a5c <set_current_interrupts_stack_frame+0x30>
   12a48:	e59f0020 	ldr	r0, [pc, #32]	; 12a70 <set_current_interrupts_stack_frame+0x44>
   12a4c:	e59f1020 	ldr	r1, [pc, #32]	; 12a74 <set_current_interrupts_stack_frame+0x48>
   12a50:	e59f2020 	ldr	r2, [pc, #32]	; 12a78 <set_current_interrupts_stack_frame+0x4c>
   12a54:	e59f3020 	ldr	r3, [pc, #32]	; 12a7c <set_current_interrupts_stack_frame+0x50>
   12a58:	ebffda4b 	bl	938c <debug_panic>
   12a5c:	e59f301c 	ldr	r3, [pc, #28]	; 12a80 <set_current_interrupts_stack_frame+0x54>
   12a60:	e51b2008 	ldr	r2, [fp, #-8]
   12a64:	e5832000 	str	r2, [r3]
   12a68:	e24bd004 	sub	sp, fp, #4
   12a6c:	e8bd8800 	pop	{fp, pc}
   12a70:	00016634 	.word	0x00016634
   12a74:	000002c5 	.word	0x000002c5
   12a78:	000168e0 	.word	0x000168e0
   12a7c:	00016648 	.word	0x00016648
   12a80:	0001a67c 	.word	0x0001a67c

00012a84 <get_current_interrupts_stack_frame>:
   12a84:	e92d4800 	push	{fp, lr}
   12a88:	e28db004 	add	fp, sp, #4
   12a8c:	e59f302c 	ldr	r3, [pc, #44]	; 12ac0 <get_current_interrupts_stack_frame+0x3c>
   12a90:	e5933000 	ldr	r3, [r3]
   12a94:	e3530000 	cmp	r3, #0
   12a98:	1a000004 	bne	12ab0 <get_current_interrupts_stack_frame+0x2c>
   12a9c:	e59f0020 	ldr	r0, [pc, #32]	; 12ac4 <get_current_interrupts_stack_frame+0x40>
   12aa0:	e59f1020 	ldr	r1, [pc, #32]	; 12ac8 <get_current_interrupts_stack_frame+0x44>
   12aa4:	e59f2020 	ldr	r2, [pc, #32]	; 12acc <get_current_interrupts_stack_frame+0x48>
   12aa8:	e59f3020 	ldr	r3, [pc, #32]	; 12ad0 <get_current_interrupts_stack_frame+0x4c>
   12aac:	ebffda36 	bl	938c <debug_panic>
   12ab0:	e59f3008 	ldr	r3, [pc, #8]	; 12ac0 <get_current_interrupts_stack_frame+0x3c>
   12ab4:	e5933000 	ldr	r3, [r3]
   12ab8:	e1a00003 	mov	r0, r3
   12abc:	e8bd8800 	pop	{fp, pc}
   12ac0:	0001a67c 	.word	0x0001a67c
   12ac4:	00016634 	.word	0x00016634
   12ac8:	000002cb 	.word	0x000002cb
   12acc:	00016904 	.word	0x00016904
   12ad0:	00016648 	.word	0x00016648

00012ad4 <disable_priority>:
   12ad4:	e52db004 	push	{fp}		; (str fp, [sp, #-4]!)
   12ad8:	e28db000 	add	fp, sp, #0
   12adc:	e59f3010 	ldr	r3, [pc, #16]	; 12af4 <disable_priority+0x20>
   12ae0:	e3a02000 	mov	r2, #0
   12ae4:	e5c32000 	strb	r2, [r3]
   12ae8:	e24bd000 	sub	sp, fp, #0
   12aec:	e49db004 	pop	{fp}		; (ldr fp, [sp], #4)
   12af0:	e12fff1e 	bx	lr
   12af4:	0001a618 	.word	0x0001a618

00012af8 <enable_priority>:
   12af8:	e52db004 	push	{fp}		; (str fp, [sp, #-4]!)
   12afc:	e28db000 	add	fp, sp, #0
   12b00:	e59f3010 	ldr	r3, [pc, #16]	; 12b18 <enable_priority+0x20>
   12b04:	e3a02001 	mov	r2, #1
   12b08:	e5c32000 	strb	r2, [r3]
   12b0c:	e24bd000 	sub	sp, fp, #0
   12b10:	e49db004 	pop	{fp}		; (ldr fp, [sp], #4)
   12b14:	e12fff1e 	bx	lr
   12b18:	0001a618 	.word	0x0001a618

00012b1c <show_running_thread_status>:
   12b1c:	e92d4800 	push	{fp, lr}
   12b20:	e28db004 	add	fp, sp, #4
   12b24:	e24dd010 	sub	sp, sp, #16
   12b28:	e59f00fc 	ldr	r0, [pc, #252]	; 12c2c <show_running_thread_status+0x110>
   12b2c:	ebffe2ba 	bl	b61c <list_size>
   12b30:	e1a03000 	mov	r3, r0
   12b34:	e59f00f4 	ldr	r0, [pc, #244]	; 12c30 <show_running_thread_status+0x114>
   12b38:	e1a01003 	mov	r1, r3
   12b3c:	ebffed94 	bl	e194 <printf>
   12b40:	e59f00ec 	ldr	r0, [pc, #236]	; 12c34 <show_running_thread_status+0x118>
   12b44:	ebffd9a4 	bl	91dc <puts>
   12b48:	e59f00e8 	ldr	r0, [pc, #232]	; 12c38 <show_running_thread_status+0x11c>
   12b4c:	ebffd9a2 	bl	91dc <puts>
   12b50:	e59f00d4 	ldr	r0, [pc, #212]	; 12c2c <show_running_thread_status+0x110>
   12b54:	ebffe102 	bl	af64 <list_begin>
   12b58:	e50b0008 	str	r0, [fp, #-8]
   12b5c:	ea000028 	b	12c04 <show_running_thread_status+0xe8>
   12b60:	e51b3008 	ldr	r3, [fp, #-8]
   12b64:	e2833004 	add	r3, r3, #4
   12b68:	e2433070 	sub	r3, r3, #112	; 0x70
   12b6c:	e50b3010 	str	r3, [fp, #-16]
   12b70:	e59f30c4 	ldr	r3, [pc, #196]	; 12c3c <show_running_thread_status+0x120>
   12b74:	e50b300c 	str	r3, [fp, #-12]
   12b78:	e51b3010 	ldr	r3, [fp, #-16]
   12b7c:	e5d33004 	ldrb	r3, [r3, #4]
   12b80:	e3530003 	cmp	r3, #3
   12b84:	979ff103 	ldrls	pc, [pc, r3, lsl #2]
   12b88:	ea00000f 	b	12bcc <show_running_thread_status+0xb0>
   12b8c:	00012b9c 	.word	0x00012b9c
   12b90:	00012bc0 	.word	0x00012bc0
   12b94:	00012ba8 	.word	0x00012ba8
   12b98:	00012bb4 	.word	0x00012bb4
   12b9c:	e59f309c 	ldr	r3, [pc, #156]	; 12c40 <show_running_thread_status+0x124>
   12ba0:	e50b300c 	str	r3, [fp, #-12]
   12ba4:	ea00000a 	b	12bd4 <show_running_thread_status+0xb8>
   12ba8:	e59f3094 	ldr	r3, [pc, #148]	; 12c44 <show_running_thread_status+0x128>
   12bac:	e50b300c 	str	r3, [fp, #-12]
   12bb0:	ea000007 	b	12bd4 <show_running_thread_status+0xb8>
   12bb4:	e59f308c 	ldr	r3, [pc, #140]	; 12c48 <show_running_thread_status+0x12c>
   12bb8:	e50b300c 	str	r3, [fp, #-12]
   12bbc:	ea000004 	b	12bd4 <show_running_thread_status+0xb8>
   12bc0:	e59f3084 	ldr	r3, [pc, #132]	; 12c4c <show_running_thread_status+0x130>
   12bc4:	e50b300c 	str	r3, [fp, #-12]
   12bc8:	ea000001 	b	12bd4 <show_running_thread_status+0xb8>
   12bcc:	e59f3068 	ldr	r3, [pc, #104]	; 12c3c <show_running_thread_status+0x120>
   12bd0:	e50b300c 	str	r3, [fp, #-12]
   12bd4:	e51b3010 	ldr	r3, [fp, #-16]
   12bd8:	e2831005 	add	r1, r3, #5
   12bdc:	e51b3010 	ldr	r3, [fp, #-16]
   12be0:	e1c329d0 	ldrd	r2, [r3, #144]	; 0x90
   12be4:	e59f0064 	ldr	r0, [pc, #100]	; 12c50 <show_running_thread_status+0x134>
   12be8:	ebffed69 	bl	e194 <printf>
   12bec:	e59f0060 	ldr	r0, [pc, #96]	; 12c54 <show_running_thread_status+0x138>
   12bf0:	e51b100c 	ldr	r1, [fp, #-12]
   12bf4:	ebffed66 	bl	e194 <printf>
   12bf8:	e51b0008 	ldr	r0, [fp, #-8]
   12bfc:	ebffe0ec 	bl	afb4 <list_next>
   12c00:	e50b0008 	str	r0, [fp, #-8]
   12c04:	e59f0020 	ldr	r0, [pc, #32]	; 12c2c <show_running_thread_status+0x110>
   12c08:	ebffe104 	bl	b020 <list_end>
   12c0c:	e1a02000 	mov	r2, r0
   12c10:	e51b3008 	ldr	r3, [fp, #-8]
   12c14:	e1520003 	cmp	r2, r3
   12c18:	1affffd0 	bne	12b60 <show_running_thread_status+0x44>
   12c1c:	e59f0014 	ldr	r0, [pc, #20]	; 12c38 <show_running_thread_status+0x11c>
   12c20:	ebffd96d 	bl	91dc <puts>
   12c24:	e24bd004 	sub	sp, fp, #4
   12c28:	e8bd8800 	pop	{fp, pc}
   12c2c:	0001a62c 	.word	0x0001a62c
   12c30:	000166d4 	.word	0x000166d4
   12c34:	00016728 	.word	0x00016728
   12c38:	00016754 	.word	0x00016754
   12c3c:	000167a8 	.word	0x000167a8
   12c40:	000167b0 	.word	0x000167b0
   12c44:	000167b8 	.word	0x000167b8
   12c48:	000167c0 	.word	0x000167c0
   12c4c:	000167c8 	.word	0x000167c8
   12c50:	000167d0 	.word	0x000167d0
   12c54:	000167e4 	.word	0x000167e4

00012c58 <get_all_list>:
   12c58:	e52db004 	push	{fp}		; (str fp, [sp, #-4]!)
   12c5c:	e28db000 	add	fp, sp, #0
   12c60:	e59f300c 	ldr	r3, [pc, #12]	; 12c74 <get_all_list+0x1c>
   12c64:	e1a00003 	mov	r0, r3
   12c68:	e24bd000 	sub	sp, fp, #0
   12c6c:	e49db004 	pop	{fp}		; (ldr fp, [sp], #4)
   12c70:	e12fff1e 	bx	lr
   12c74:	0001a62c 	.word	0x0001a62c

00012c78 <video_init>:
   12c78:	e92d4800 	push	{fp, lr}
   12c7c:	e28db004 	add	fp, sp, #4
   12c80:	e59f3064 	ldr	r3, [pc, #100]	; 12cec <video_init+0x74>
   12c84:	e3a02e1e 	mov	r2, #480	; 0x1e0
   12c88:	e5832000 	str	r2, [r3]
   12c8c:	e59f3058 	ldr	r3, [pc, #88]	; 12cec <video_init+0x74>
   12c90:	e3a02e32 	mov	r2, #800	; 0x320
   12c94:	e5832004 	str	r2, [r3, #4]
   12c98:	e59f304c 	ldr	r3, [pc, #76]	; 12cec <video_init+0x74>
   12c9c:	e3a02010 	mov	r2, #16
   12ca0:	e5832008 	str	r2, [r3, #8]
   12ca4:	e59f3040 	ldr	r3, [pc, #64]	; 12cec <video_init+0x74>
   12ca8:	e3a02008 	mov	r2, #8
   12cac:	e583200c 	str	r2, [r3, #12]
   12cb0:	e59f3034 	ldr	r3, [pc, #52]	; 12cec <video_init+0x74>
   12cb4:	e3a02010 	mov	r2, #16
   12cb8:	e5832010 	str	r2, [r3, #16]
   12cbc:	e59f3028 	ldr	r3, [pc, #40]	; 12cec <video_init+0x74>
   12cc0:	e3a02000 	mov	r2, #0
   12cc4:	e5832014 	str	r2, [r3, #20]
   12cc8:	e59f301c 	ldr	r3, [pc, #28]	; 12cec <video_init+0x74>
   12ccc:	e3a02000 	mov	r2, #0
   12cd0:	e5832018 	str	r2, [r3, #24]
   12cd4:	ebffd532 	bl	81a4 <GetGraphicsAddress>
   12cd8:	e1a03000 	mov	r3, r0
   12cdc:	e1a02003 	mov	r2, r3
   12ce0:	e59f3008 	ldr	r3, [pc, #8]	; 12cf0 <video_init+0x78>
   12ce4:	e5832000 	str	r2, [r3]
   12ce8:	e8bd8800 	pop	{fp, pc}
   12cec:	0001a680 	.word	0x0001a680
   12cf0:	0001a69c 	.word	0x0001a69c

00012cf4 <video_clean>:
   12cf4:	e92d4800 	push	{fp, lr}
   12cf8:	e28db004 	add	fp, sp, #4
   12cfc:	e24dd010 	sub	sp, sp, #16
   12d00:	e3a03000 	mov	r3, #0
   12d04:	e50b3010 	str	r3, [fp, #-16]
   12d08:	e51b3010 	ldr	r3, [fp, #-16]
   12d0c:	e6ff3073 	uxth	r3, r3
   12d10:	e1a00003 	mov	r0, r3
   12d14:	ebffd516 	bl	8174 <SetForeColour>
   12d18:	e3a03000 	mov	r3, #0
   12d1c:	e50b3008 	str	r3, [fp, #-8]
   12d20:	ea000012 	b	12d70 <video_clean+0x7c>
   12d24:	e3a03000 	mov	r3, #0
   12d28:	e50b300c 	str	r3, [fp, #-12]
   12d2c:	ea000007 	b	12d50 <video_clean+0x5c>
   12d30:	e51b200c 	ldr	r2, [fp, #-12]
   12d34:	e51b3008 	ldr	r3, [fp, #-8]
   12d38:	e1a00002 	mov	r0, r2
   12d3c:	e1a01003 	mov	r1, r3
   12d40:	ebffd51a 	bl	81b0 <DrawPixel>
   12d44:	e51b300c 	ldr	r3, [fp, #-12]
   12d48:	e2833001 	add	r3, r3, #1
   12d4c:	e50b300c 	str	r3, [fp, #-12]
   12d50:	e59f304c 	ldr	r3, [pc, #76]	; 12da4 <video_clean+0xb0>
   12d54:	e5932004 	ldr	r2, [r3, #4]
   12d58:	e51b300c 	ldr	r3, [fp, #-12]
   12d5c:	e1520003 	cmp	r2, r3
   12d60:	cafffff2 	bgt	12d30 <video_clean+0x3c>
   12d64:	e51b3008 	ldr	r3, [fp, #-8]
   12d68:	e2833001 	add	r3, r3, #1
   12d6c:	e50b3008 	str	r3, [fp, #-8]
   12d70:	e59f302c 	ldr	r3, [pc, #44]	; 12da4 <video_clean+0xb0>
   12d74:	e5932000 	ldr	r2, [r3]
   12d78:	e51b3008 	ldr	r3, [fp, #-8]
   12d7c:	e1520003 	cmp	r2, r3
   12d80:	caffffe7 	bgt	12d24 <video_clean+0x30>
   12d84:	e59f3018 	ldr	r3, [pc, #24]	; 12da4 <video_clean+0xb0>
   12d88:	e3a02000 	mov	r2, #0
   12d8c:	e5832014 	str	r2, [r3, #20]
   12d90:	e59f300c 	ldr	r3, [pc, #12]	; 12da4 <video_clean+0xb0>
   12d94:	e3a02000 	mov	r2, #0
   12d98:	e5832018 	str	r2, [r3, #24]
   12d9c:	e24bd004 	sub	sp, fp, #4
   12da0:	e8bd8800 	pop	{fp, pc}
   12da4:	0001a680 	.word	0x0001a680

00012da8 <video_putc>:
   12da8:	e92d4800 	push	{fp, lr}
   12dac:	e28db004 	add	fp, sp, #4
   12db0:	e24dd010 	sub	sp, sp, #16
   12db4:	e1a03000 	mov	r3, r0
   12db8:	e54b300d 	strb	r3, [fp, #-13]
   12dbc:	ebffe544 	bl	c2d4 <interrupts_disable>
   12dc0:	e1a03000 	mov	r3, r0
   12dc4:	e54b3005 	strb	r3, [fp, #-5]
   12dc8:	e55b300d 	ldrb	r3, [fp, #-13]
   12dcc:	e353000a 	cmp	r3, #10
   12dd0:	1a000001 	bne	12ddc <video_putc+0x34>
   12dd4:	eb000076 	bl	12fb4 <video_new_line>
   12dd8:	ea000011 	b	12e24 <video_putc+0x7c>
   12ddc:	e59f3054 	ldr	r3, [pc, #84]	; 12e38 <video_putc+0x90>
   12de0:	e5932014 	ldr	r2, [r3, #20]
   12de4:	e59f304c 	ldr	r3, [pc, #76]	; 12e38 <video_putc+0x90>
   12de8:	e5933018 	ldr	r3, [r3, #24]
   12dec:	e1a00002 	mov	r0, r2
   12df0:	e1a01003 	mov	r1, r3
   12df4:	eb00003d 	bl	12ef0 <video_clean_character>
   12df8:	e59f3038 	ldr	r3, [pc, #56]	; 12e38 <video_putc+0x90>
   12dfc:	e5933014 	ldr	r3, [r3, #20]
   12e00:	e1a02003 	mov	r2, r3
   12e04:	e59f302c 	ldr	r3, [pc, #44]	; 12e38 <video_putc+0x90>
   12e08:	e5933018 	ldr	r3, [r3, #24]
   12e0c:	e55b100d 	ldrb	r1, [fp, #-13]
   12e10:	e1a00001 	mov	r0, r1
   12e14:	e1a01002 	mov	r1, r2
   12e18:	e1a02003 	mov	r2, r3
   12e1c:	ebffd514 	bl	8274 <DrawCharacter>
   12e20:	eb0001cb 	bl	13554 <video_calculate_new_position>
   12e24:	e55b3005 	ldrb	r3, [fp, #-5]
   12e28:	e1a00003 	mov	r0, r3
   12e2c:	ebffe50d 	bl	c268 <interrupts_set_level>
   12e30:	e24bd004 	sub	sp, fp, #4
   12e34:	e8bd8800 	pop	{fp, pc}
   12e38:	0001a680 	.word	0x0001a680

00012e3c <video_clean_row>:
   12e3c:	e92d4800 	push	{fp, lr}
   12e40:	e28db004 	add	fp, sp, #4
   12e44:	e24dd018 	sub	sp, sp, #24
   12e48:	e50b0018 	str	r0, [fp, #-24]
   12e4c:	ebffd4ce 	bl	818c <GetForeColour>
   12e50:	e1a03000 	mov	r3, r0
   12e54:	e50b3010 	str	r3, [fp, #-16]
   12e58:	e3a00000 	mov	r0, #0
   12e5c:	ebffd4c4 	bl	8174 <SetForeColour>
   12e60:	e3a03000 	mov	r3, #0
   12e64:	e50b3008 	str	r3, [fp, #-8]
   12e68:	ea000014 	b	12ec0 <video_clean_row+0x84>
   12e6c:	e3a03000 	mov	r3, #0
   12e70:	e50b300c 	str	r3, [fp, #-12]
   12e74:	ea000009 	b	12ea0 <video_clean_row+0x64>
   12e78:	e51b200c 	ldr	r2, [fp, #-12]
   12e7c:	e51b1018 	ldr	r1, [fp, #-24]
   12e80:	e51b3008 	ldr	r3, [fp, #-8]
   12e84:	e0813003 	add	r3, r1, r3
   12e88:	e1a00002 	mov	r0, r2
   12e8c:	e1a01003 	mov	r1, r3
   12e90:	ebffd4c6 	bl	81b0 <DrawPixel>
   12e94:	e51b300c 	ldr	r3, [fp, #-12]
   12e98:	e2833001 	add	r3, r3, #1
   12e9c:	e50b300c 	str	r3, [fp, #-12]
   12ea0:	e59f3044 	ldr	r3, [pc, #68]	; 12eec <video_clean_row+0xb0>
   12ea4:	e5932004 	ldr	r2, [r3, #4]
   12ea8:	e51b300c 	ldr	r3, [fp, #-12]
   12eac:	e1520003 	cmp	r2, r3
   12eb0:	cafffff0 	bgt	12e78 <video_clean_row+0x3c>
   12eb4:	e51b3008 	ldr	r3, [fp, #-8]
   12eb8:	e2833001 	add	r3, r3, #1
   12ebc:	e50b3008 	str	r3, [fp, #-8]
   12ec0:	e59f3024 	ldr	r3, [pc, #36]	; 12eec <video_clean_row+0xb0>
   12ec4:	e5932010 	ldr	r2, [r3, #16]
   12ec8:	e51b3008 	ldr	r3, [fp, #-8]
   12ecc:	e1520003 	cmp	r2, r3
   12ed0:	caffffe5 	bgt	12e6c <video_clean_row+0x30>
   12ed4:	e51b3010 	ldr	r3, [fp, #-16]
   12ed8:	e6ff3073 	uxth	r3, r3
   12edc:	e1a00003 	mov	r0, r3
   12ee0:	ebffd4a3 	bl	8174 <SetForeColour>
   12ee4:	e24bd004 	sub	sp, fp, #4
   12ee8:	e8bd8800 	pop	{fp, pc}
   12eec:	0001a680 	.word	0x0001a680

00012ef0 <video_clean_character>:
   12ef0:	e92d4800 	push	{fp, lr}
   12ef4:	e28db004 	add	fp, sp, #4
   12ef8:	e24dd018 	sub	sp, sp, #24
   12efc:	e50b0018 	str	r0, [fp, #-24]
   12f00:	e50b101c 	str	r1, [fp, #-28]
   12f04:	ebffd4a0 	bl	818c <GetForeColour>
   12f08:	e1a03000 	mov	r3, r0
   12f0c:	e50b3010 	str	r3, [fp, #-16]
   12f10:	e3a00000 	mov	r0, #0
   12f14:	ebffd496 	bl	8174 <SetForeColour>
   12f18:	e3a03000 	mov	r3, #0
   12f1c:	e50b3008 	str	r3, [fp, #-8]
   12f20:	ea000017 	b	12f84 <video_clean_character+0x94>
   12f24:	e3a03000 	mov	r3, #0
   12f28:	e50b300c 	str	r3, [fp, #-12]
   12f2c:	ea00000c 	b	12f64 <video_clean_character+0x74>
   12f30:	e51b2018 	ldr	r2, [fp, #-24]
   12f34:	e51b300c 	ldr	r3, [fp, #-12]
   12f38:	e0823003 	add	r3, r2, r3
   12f3c:	e1a02003 	mov	r2, r3
   12f40:	e51b101c 	ldr	r1, [fp, #-28]
   12f44:	e51b3008 	ldr	r3, [fp, #-8]
   12f48:	e0813003 	add	r3, r1, r3
   12f4c:	e1a00002 	mov	r0, r2
   12f50:	e1a01003 	mov	r1, r3
   12f54:	ebffd495 	bl	81b0 <DrawPixel>
   12f58:	e51b300c 	ldr	r3, [fp, #-12]
   12f5c:	e2833001 	add	r3, r3, #1
   12f60:	e50b300c 	str	r3, [fp, #-12]
   12f64:	e59f3044 	ldr	r3, [pc, #68]	; 12fb0 <video_clean_character+0xc0>
   12f68:	e593200c 	ldr	r2, [r3, #12]
   12f6c:	e51b300c 	ldr	r3, [fp, #-12]
   12f70:	e1520003 	cmp	r2, r3
   12f74:	caffffed 	bgt	12f30 <video_clean_character+0x40>
   12f78:	e51b3008 	ldr	r3, [fp, #-8]
   12f7c:	e2833001 	add	r3, r3, #1
   12f80:	e50b3008 	str	r3, [fp, #-8]
   12f84:	e59f3024 	ldr	r3, [pc, #36]	; 12fb0 <video_clean_character+0xc0>
   12f88:	e5932010 	ldr	r2, [r3, #16]
   12f8c:	e51b3008 	ldr	r3, [fp, #-8]
   12f90:	e1520003 	cmp	r2, r3
   12f94:	caffffe2 	bgt	12f24 <video_clean_character+0x34>
   12f98:	e51b3010 	ldr	r3, [fp, #-16]
   12f9c:	e6ff3073 	uxth	r3, r3
   12fa0:	e1a00003 	mov	r0, r3
   12fa4:	ebffd472 	bl	8174 <SetForeColour>
   12fa8:	e24bd004 	sub	sp, fp, #4
   12fac:	e8bd8800 	pop	{fp, pc}
   12fb0:	0001a680 	.word	0x0001a680

00012fb4 <video_new_line>:
   12fb4:	e92d4800 	push	{fp, lr}
   12fb8:	e28db004 	add	fp, sp, #4
   12fbc:	eb000001 	bl	12fc8 <video_new_line_fastest>
   12fc0:	e1a00000 	nop			; (mov r0, r0)
   12fc4:	e8bd8800 	pop	{fp, pc}

00012fc8 <video_new_line_fastest>:
   12fc8:	e92d4800 	push	{fp, lr}
   12fcc:	e28db004 	add	fp, sp, #4
   12fd0:	e24dd018 	sub	sp, sp, #24
   12fd4:	e59f3114 	ldr	r3, [pc, #276]	; 130f0 <video_new_line_fastest+0x128>
   12fd8:	e5932018 	ldr	r2, [r3, #24]
   12fdc:	e59f310c 	ldr	r3, [pc, #268]	; 130f0 <video_new_line_fastest+0x128>
   12fe0:	e5933010 	ldr	r3, [r3, #16]
   12fe4:	e0823003 	add	r3, r2, r3
   12fe8:	e50b3008 	str	r3, [fp, #-8]
   12fec:	e59f30fc 	ldr	r3, [pc, #252]	; 130f0 <video_new_line_fastest+0x128>
   12ff0:	e5932010 	ldr	r2, [r3, #16]
   12ff4:	e51b3008 	ldr	r3, [fp, #-8]
   12ff8:	e0822003 	add	r2, r2, r3
   12ffc:	e59f30ec 	ldr	r3, [pc, #236]	; 130f0 <video_new_line_fastest+0x128>
   13000:	e5933000 	ldr	r3, [r3]
   13004:	e1520003 	cmp	r2, r3
   13008:	da000030 	ble	130d0 <video_new_line_fastest+0x108>
   1300c:	e59f30e0 	ldr	r3, [pc, #224]	; 130f4 <video_new_line_fastest+0x12c>
   13010:	e5933000 	ldr	r3, [r3]
   13014:	e5933020 	ldr	r3, [r3, #32]
   13018:	e50b300c 	str	r3, [fp, #-12]
   1301c:	e59f30cc 	ldr	r3, [pc, #204]	; 130f0 <video_new_line_fastest+0x128>
   13020:	e5932004 	ldr	r2, [r3, #4]
   13024:	e59f30c4 	ldr	r3, [pc, #196]	; 130f0 <video_new_line_fastest+0x128>
   13028:	e5933008 	ldr	r3, [r3, #8]
   1302c:	e2831007 	add	r1, r3, #7
   13030:	e3530000 	cmp	r3, #0
   13034:	b1a03001 	movlt	r3, r1
   13038:	e1a031c3 	asr	r3, r3, #3
   1303c:	e0030293 	mul	r3, r3, r2
   13040:	e59f20a8 	ldr	r2, [pc, #168]	; 130f0 <video_new_line_fastest+0x128>
   13044:	e5922010 	ldr	r2, [r2, #16]
   13048:	e0030392 	mul	r3, r2, r3
   1304c:	e50b3010 	str	r3, [fp, #-16]
   13050:	e51b3010 	ldr	r3, [fp, #-16]
   13054:	e51b200c 	ldr	r2, [fp, #-12]
   13058:	e0823003 	add	r3, r2, r3
   1305c:	e50b3014 	str	r3, [fp, #-20]
   13060:	e59f3088 	ldr	r3, [pc, #136]	; 130f0 <video_new_line_fastest+0x128>
   13064:	e5932004 	ldr	r2, [r3, #4]
   13068:	e59f3080 	ldr	r3, [pc, #128]	; 130f0 <video_new_line_fastest+0x128>
   1306c:	e5933008 	ldr	r3, [r3, #8]
   13070:	e2831007 	add	r1, r3, #7
   13074:	e3530000 	cmp	r3, #0
   13078:	b1a03001 	movlt	r3, r1
   1307c:	e1a031c3 	asr	r3, r3, #3
   13080:	e0030293 	mul	r3, r3, r2
   13084:	e59f2064 	ldr	r2, [pc, #100]	; 130f0 <video_new_line_fastest+0x128>
   13088:	e5922000 	ldr	r2, [r2]
   1308c:	e0030392 	mul	r3, r2, r3
   13090:	e51b200c 	ldr	r2, [fp, #-12]
   13094:	e0823003 	add	r3, r2, r3
   13098:	e50b3018 	str	r3, [fp, #-24]
   1309c:	e51b2018 	ldr	r2, [fp, #-24]
   130a0:	e51b3014 	ldr	r3, [fp, #-20]
   130a4:	e0633002 	rsb	r3, r3, r2
   130a8:	e50b301c 	str	r3, [fp, #-28]
   130ac:	e51b0014 	ldr	r0, [fp, #-20]
   130b0:	e51b100c 	ldr	r1, [fp, #-12]
   130b4:	e51b201c 	ldr	r2, [fp, #-28]
   130b8:	ebffd530 	bl	8580 <memory_fastest_copy>
   130bc:	e59f302c 	ldr	r3, [pc, #44]	; 130f0 <video_new_line_fastest+0x128>
   130c0:	e5933018 	ldr	r3, [r3, #24]
   130c4:	e50b3008 	str	r3, [fp, #-8]
   130c8:	e51b0008 	ldr	r0, [fp, #-8]
   130cc:	ebffff5a 	bl	12e3c <video_clean_row>
   130d0:	e59f3018 	ldr	r3, [pc, #24]	; 130f0 <video_new_line_fastest+0x128>
   130d4:	e3a02000 	mov	r2, #0
   130d8:	e5832014 	str	r2, [r3, #20]
   130dc:	e59f300c 	ldr	r3, [pc, #12]	; 130f0 <video_new_line_fastest+0x128>
   130e0:	e51b2008 	ldr	r2, [fp, #-8]
   130e4:	e5832018 	str	r2, [r3, #24]
   130e8:	e24bd004 	sub	sp, fp, #4
   130ec:	e8bd8800 	pop	{fp, pc}
   130f0:	0001a680 	.word	0x0001a680
   130f4:	0001a69c 	.word	0x0001a69c

000130f8 <video_new_line_faster>:
   130f8:	e92d4800 	push	{fp, lr}
   130fc:	e28db004 	add	fp, sp, #4
   13100:	e24dd020 	sub	sp, sp, #32
   13104:	e59f3180 	ldr	r3, [pc, #384]	; 1328c <video_new_line_faster+0x194>
   13108:	e5932018 	ldr	r2, [r3, #24]
   1310c:	e59f3178 	ldr	r3, [pc, #376]	; 1328c <video_new_line_faster+0x194>
   13110:	e5933010 	ldr	r3, [r3, #16]
   13114:	e0823003 	add	r3, r2, r3
   13118:	e50b3008 	str	r3, [fp, #-8]
   1311c:	e59f3168 	ldr	r3, [pc, #360]	; 1328c <video_new_line_faster+0x194>
   13120:	e5932010 	ldr	r2, [r3, #16]
   13124:	e51b3008 	ldr	r3, [fp, #-8]
   13128:	e0822003 	add	r2, r2, r3
   1312c:	e59f3158 	ldr	r3, [pc, #344]	; 1328c <video_new_line_faster+0x194>
   13130:	e5933000 	ldr	r3, [r3]
   13134:	e1520003 	cmp	r2, r3
   13138:	da00004b 	ble	1326c <video_new_line_faster+0x174>
   1313c:	e59f314c 	ldr	r3, [pc, #332]	; 13290 <video_new_line_faster+0x198>
   13140:	e5933000 	ldr	r3, [r3]
   13144:	e5933020 	ldr	r3, [r3, #32]
   13148:	e50b300c 	str	r3, [fp, #-12]
   1314c:	e59f3138 	ldr	r3, [pc, #312]	; 1328c <video_new_line_faster+0x194>
   13150:	e5932004 	ldr	r2, [r3, #4]
   13154:	e59f3130 	ldr	r3, [pc, #304]	; 1328c <video_new_line_faster+0x194>
   13158:	e5933008 	ldr	r3, [r3, #8]
   1315c:	e2831007 	add	r1, r3, #7
   13160:	e3530000 	cmp	r3, #0
   13164:	b1a03001 	movlt	r3, r1
   13168:	e1a031c3 	asr	r3, r3, #3
   1316c:	e0030293 	mul	r3, r3, r2
   13170:	e59f2114 	ldr	r2, [pc, #276]	; 1328c <video_new_line_faster+0x194>
   13174:	e5922010 	ldr	r2, [r2, #16]
   13178:	e0030392 	mul	r3, r2, r3
   1317c:	e50b3018 	str	r3, [fp, #-24]
   13180:	e51b3018 	ldr	r3, [fp, #-24]
   13184:	e51b200c 	ldr	r2, [fp, #-12]
   13188:	e0823003 	add	r3, r2, r3
   1318c:	e50b3010 	str	r3, [fp, #-16]
   13190:	e59f30f4 	ldr	r3, [pc, #244]	; 1328c <video_new_line_faster+0x194>
   13194:	e5932004 	ldr	r2, [r3, #4]
   13198:	e59f30ec 	ldr	r3, [pc, #236]	; 1328c <video_new_line_faster+0x194>
   1319c:	e5933008 	ldr	r3, [r3, #8]
   131a0:	e2831007 	add	r1, r3, #7
   131a4:	e3530000 	cmp	r3, #0
   131a8:	b1a03001 	movlt	r3, r1
   131ac:	e1a031c3 	asr	r3, r3, #3
   131b0:	e0030293 	mul	r3, r3, r2
   131b4:	e59f20d0 	ldr	r2, [pc, #208]	; 1328c <video_new_line_faster+0x194>
   131b8:	e5922000 	ldr	r2, [r2]
   131bc:	e0030392 	mul	r3, r2, r3
   131c0:	e51b200c 	ldr	r2, [fp, #-12]
   131c4:	e0823003 	add	r3, r2, r3
   131c8:	e50b301c 	str	r3, [fp, #-28]
   131cc:	e51b201c 	ldr	r2, [fp, #-28]
   131d0:	e51b3010 	ldr	r3, [fp, #-16]
   131d4:	e0633002 	rsb	r3, r3, r2
   131d8:	e50b3020 	str	r3, [fp, #-32]
   131dc:	e51b0010 	ldr	r0, [fp, #-16]
   131e0:	e51b100c 	ldr	r1, [fp, #-12]
   131e4:	e51b2020 	ldr	r2, [fp, #-32]
   131e8:	ebffd4f8 	bl	85d0 <memory_fast_copy>
   131ec:	e50b0014 	str	r0, [fp, #-20]
   131f0:	e51b2020 	ldr	r2, [fp, #-32]
   131f4:	e51b3014 	ldr	r3, [fp, #-20]
   131f8:	e0633002 	rsb	r3, r3, r2
   131fc:	e51b2010 	ldr	r2, [fp, #-16]
   13200:	e0823003 	add	r3, r2, r3
   13204:	e50b3010 	str	r3, [fp, #-16]
   13208:	e51b2020 	ldr	r2, [fp, #-32]
   1320c:	e51b3014 	ldr	r3, [fp, #-20]
   13210:	e0633002 	rsb	r3, r3, r2
   13214:	e51b200c 	ldr	r2, [fp, #-12]
   13218:	e0823003 	add	r3, r2, r3
   1321c:	e50b300c 	str	r3, [fp, #-12]
   13220:	ea000007 	b	13244 <video_new_line_faster+0x14c>
   13224:	e51b300c 	ldr	r3, [fp, #-12]
   13228:	e2832001 	add	r2, r3, #1
   1322c:	e50b200c 	str	r2, [fp, #-12]
   13230:	e51b2010 	ldr	r2, [fp, #-16]
   13234:	e2821001 	add	r1, r2, #1
   13238:	e50b1010 	str	r1, [fp, #-16]
   1323c:	e5d22000 	ldrb	r2, [r2]
   13240:	e5c32000 	strb	r2, [r3]
   13244:	e51b3014 	ldr	r3, [fp, #-20]
   13248:	e2432001 	sub	r2, r3, #1
   1324c:	e50b2014 	str	r2, [fp, #-20]
   13250:	e3530000 	cmp	r3, #0
   13254:	cafffff2 	bgt	13224 <video_new_line_faster+0x12c>
   13258:	e59f302c 	ldr	r3, [pc, #44]	; 1328c <video_new_line_faster+0x194>
   1325c:	e5933018 	ldr	r3, [r3, #24]
   13260:	e50b3008 	str	r3, [fp, #-8]
   13264:	e51b0008 	ldr	r0, [fp, #-8]
   13268:	ebfffef3 	bl	12e3c <video_clean_row>
   1326c:	e59f3018 	ldr	r3, [pc, #24]	; 1328c <video_new_line_faster+0x194>
   13270:	e3a02000 	mov	r2, #0
   13274:	e5832014 	str	r2, [r3, #20]
   13278:	e59f300c 	ldr	r3, [pc, #12]	; 1328c <video_new_line_faster+0x194>
   1327c:	e51b2008 	ldr	r2, [fp, #-8]
   13280:	e5832018 	str	r2, [r3, #24]
   13284:	e24bd004 	sub	sp, fp, #4
   13288:	e8bd8800 	pop	{fp, pc}
   1328c:	0001a680 	.word	0x0001a680
   13290:	0001a69c 	.word	0x0001a69c

00013294 <video_new_line_slower>:
   13294:	e92d4800 	push	{fp, lr}
   13298:	e28db004 	add	fp, sp, #4
   1329c:	e24dd018 	sub	sp, sp, #24
   132a0:	e59f314c 	ldr	r3, [pc, #332]	; 133f4 <video_new_line_slower+0x160>
   132a4:	e5932018 	ldr	r2, [r3, #24]
   132a8:	e59f3144 	ldr	r3, [pc, #324]	; 133f4 <video_new_line_slower+0x160>
   132ac:	e5933010 	ldr	r3, [r3, #16]
   132b0:	e0823003 	add	r3, r2, r3
   132b4:	e50b3008 	str	r3, [fp, #-8]
   132b8:	e59f3134 	ldr	r3, [pc, #308]	; 133f4 <video_new_line_slower+0x160>
   132bc:	e5932010 	ldr	r2, [r3, #16]
   132c0:	e51b3008 	ldr	r3, [fp, #-8]
   132c4:	e0822003 	add	r2, r2, r3
   132c8:	e59f3124 	ldr	r3, [pc, #292]	; 133f4 <video_new_line_slower+0x160>
   132cc:	e5933000 	ldr	r3, [r3]
   132d0:	e1520003 	cmp	r2, r3
   132d4:	da00003e 	ble	133d4 <video_new_line_slower+0x140>
   132d8:	e59f3118 	ldr	r3, [pc, #280]	; 133f8 <video_new_line_slower+0x164>
   132dc:	e5933000 	ldr	r3, [r3]
   132e0:	e5933020 	ldr	r3, [r3, #32]
   132e4:	e50b300c 	str	r3, [fp, #-12]
   132e8:	e59f3104 	ldr	r3, [pc, #260]	; 133f4 <video_new_line_slower+0x160>
   132ec:	e5932004 	ldr	r2, [r3, #4]
   132f0:	e59f30fc 	ldr	r3, [pc, #252]	; 133f4 <video_new_line_slower+0x160>
   132f4:	e5933008 	ldr	r3, [r3, #8]
   132f8:	e2831007 	add	r1, r3, #7
   132fc:	e3530000 	cmp	r3, #0
   13300:	b1a03001 	movlt	r3, r1
   13304:	e1a031c3 	asr	r3, r3, #3
   13308:	e0030293 	mul	r3, r3, r2
   1330c:	e59f20e0 	ldr	r2, [pc, #224]	; 133f4 <video_new_line_slower+0x160>
   13310:	e5922010 	ldr	r2, [r2, #16]
   13314:	e0030392 	mul	r3, r2, r3
   13318:	e50b3018 	str	r3, [fp, #-24]
   1331c:	e51b3018 	ldr	r3, [fp, #-24]
   13320:	e51b200c 	ldr	r2, [fp, #-12]
   13324:	e0823003 	add	r3, r2, r3
   13328:	e50b3010 	str	r3, [fp, #-16]
   1332c:	e59f30c0 	ldr	r3, [pc, #192]	; 133f4 <video_new_line_slower+0x160>
   13330:	e5932004 	ldr	r2, [r3, #4]
   13334:	e59f30b8 	ldr	r3, [pc, #184]	; 133f4 <video_new_line_slower+0x160>
   13338:	e5933008 	ldr	r3, [r3, #8]
   1333c:	e2831007 	add	r1, r3, #7
   13340:	e3530000 	cmp	r3, #0
   13344:	b1a03001 	movlt	r3, r1
   13348:	e1a031c3 	asr	r3, r3, #3
   1334c:	e0030293 	mul	r3, r3, r2
   13350:	e59f209c 	ldr	r2, [pc, #156]	; 133f4 <video_new_line_slower+0x160>
   13354:	e5922000 	ldr	r2, [r2]
   13358:	e0030392 	mul	r3, r2, r3
   1335c:	e51b200c 	ldr	r2, [fp, #-12]
   13360:	e0823003 	add	r3, r2, r3
   13364:	e50b301c 	str	r3, [fp, #-28]
   13368:	e51b201c 	ldr	r2, [fp, #-28]
   1336c:	e51b3010 	ldr	r3, [fp, #-16]
   13370:	e0633002 	rsb	r3, r3, r2
   13374:	e2832003 	add	r2, r3, #3
   13378:	e3530000 	cmp	r3, #0
   1337c:	b1a03002 	movlt	r3, r2
   13380:	e1a03143 	asr	r3, r3, #2
   13384:	e50b3014 	str	r3, [fp, #-20]
   13388:	ea000007 	b	133ac <video_new_line_slower+0x118>
   1338c:	e51b300c 	ldr	r3, [fp, #-12]
   13390:	e2832004 	add	r2, r3, #4
   13394:	e50b200c 	str	r2, [fp, #-12]
   13398:	e51b2010 	ldr	r2, [fp, #-16]
   1339c:	e2821004 	add	r1, r2, #4
   133a0:	e50b1010 	str	r1, [fp, #-16]
   133a4:	e5922000 	ldr	r2, [r2]
   133a8:	e5832000 	str	r2, [r3]
   133ac:	e51b3014 	ldr	r3, [fp, #-20]
   133b0:	e2432001 	sub	r2, r3, #1
   133b4:	e50b2014 	str	r2, [fp, #-20]
   133b8:	e3530000 	cmp	r3, #0
   133bc:	cafffff2 	bgt	1338c <video_new_line_slower+0xf8>
   133c0:	e59f302c 	ldr	r3, [pc, #44]	; 133f4 <video_new_line_slower+0x160>
   133c4:	e5933018 	ldr	r3, [r3, #24]
   133c8:	e50b3008 	str	r3, [fp, #-8]
   133cc:	e51b0008 	ldr	r0, [fp, #-8]
   133d0:	ebfffe99 	bl	12e3c <video_clean_row>
   133d4:	e59f3018 	ldr	r3, [pc, #24]	; 133f4 <video_new_line_slower+0x160>
   133d8:	e3a02000 	mov	r2, #0
   133dc:	e5832014 	str	r2, [r3, #20]
   133e0:	e59f300c 	ldr	r3, [pc, #12]	; 133f4 <video_new_line_slower+0x160>
   133e4:	e51b2008 	ldr	r2, [fp, #-8]
   133e8:	e5832018 	str	r2, [r3, #24]
   133ec:	e24bd004 	sub	sp, fp, #4
   133f0:	e8bd8800 	pop	{fp, pc}
   133f4:	0001a680 	.word	0x0001a680
   133f8:	0001a69c 	.word	0x0001a69c

000133fc <video_new_line_slowest>:
   133fc:	e92d4800 	push	{fp, lr}
   13400:	e28db004 	add	fp, sp, #4
   13404:	e24dd018 	sub	sp, sp, #24
   13408:	e59f313c 	ldr	r3, [pc, #316]	; 1354c <video_new_line_slowest+0x150>
   1340c:	e5932018 	ldr	r2, [r3, #24]
   13410:	e59f3134 	ldr	r3, [pc, #308]	; 1354c <video_new_line_slowest+0x150>
   13414:	e5933010 	ldr	r3, [r3, #16]
   13418:	e0823003 	add	r3, r2, r3
   1341c:	e50b3008 	str	r3, [fp, #-8]
   13420:	e59f3124 	ldr	r3, [pc, #292]	; 1354c <video_new_line_slowest+0x150>
   13424:	e5932010 	ldr	r2, [r3, #16]
   13428:	e51b3008 	ldr	r3, [fp, #-8]
   1342c:	e0822003 	add	r2, r2, r3
   13430:	e59f3114 	ldr	r3, [pc, #276]	; 1354c <video_new_line_slowest+0x150>
   13434:	e5933000 	ldr	r3, [r3]
   13438:	e1520003 	cmp	r2, r3
   1343c:	da00003a 	ble	1352c <video_new_line_slowest+0x130>
   13440:	e59f3108 	ldr	r3, [pc, #264]	; 13550 <video_new_line_slowest+0x154>
   13444:	e5933000 	ldr	r3, [r3]
   13448:	e5933020 	ldr	r3, [r3, #32]
   1344c:	e50b300c 	str	r3, [fp, #-12]
   13450:	e59f30f4 	ldr	r3, [pc, #244]	; 1354c <video_new_line_slowest+0x150>
   13454:	e5932004 	ldr	r2, [r3, #4]
   13458:	e59f30ec 	ldr	r3, [pc, #236]	; 1354c <video_new_line_slowest+0x150>
   1345c:	e5933008 	ldr	r3, [r3, #8]
   13460:	e2831007 	add	r1, r3, #7
   13464:	e3530000 	cmp	r3, #0
   13468:	b1a03001 	movlt	r3, r1
   1346c:	e1a031c3 	asr	r3, r3, #3
   13470:	e0030293 	mul	r3, r3, r2
   13474:	e59f20d0 	ldr	r2, [pc, #208]	; 1354c <video_new_line_slowest+0x150>
   13478:	e5922010 	ldr	r2, [r2, #16]
   1347c:	e0030392 	mul	r3, r2, r3
   13480:	e50b3018 	str	r3, [fp, #-24]
   13484:	e51b3018 	ldr	r3, [fp, #-24]
   13488:	e51b200c 	ldr	r2, [fp, #-12]
   1348c:	e0823003 	add	r3, r2, r3
   13490:	e50b3010 	str	r3, [fp, #-16]
   13494:	e59f30b0 	ldr	r3, [pc, #176]	; 1354c <video_new_line_slowest+0x150>
   13498:	e5932004 	ldr	r2, [r3, #4]
   1349c:	e59f30a8 	ldr	r3, [pc, #168]	; 1354c <video_new_line_slowest+0x150>
   134a0:	e5933008 	ldr	r3, [r3, #8]
   134a4:	e2831007 	add	r1, r3, #7
   134a8:	e3530000 	cmp	r3, #0
   134ac:	b1a03001 	movlt	r3, r1
   134b0:	e1a031c3 	asr	r3, r3, #3
   134b4:	e0030293 	mul	r3, r3, r2
   134b8:	e59f208c 	ldr	r2, [pc, #140]	; 1354c <video_new_line_slowest+0x150>
   134bc:	e5922000 	ldr	r2, [r2]
   134c0:	e0030392 	mul	r3, r2, r3
   134c4:	e51b200c 	ldr	r2, [fp, #-12]
   134c8:	e0823003 	add	r3, r2, r3
   134cc:	e50b301c 	str	r3, [fp, #-28]
   134d0:	e51b201c 	ldr	r2, [fp, #-28]
   134d4:	e51b3010 	ldr	r3, [fp, #-16]
   134d8:	e0633002 	rsb	r3, r3, r2
   134dc:	e50b3014 	str	r3, [fp, #-20]
   134e0:	ea000007 	b	13504 <video_new_line_slowest+0x108>
   134e4:	e51b300c 	ldr	r3, [fp, #-12]
   134e8:	e2832001 	add	r2, r3, #1
   134ec:	e50b200c 	str	r2, [fp, #-12]
   134f0:	e51b2010 	ldr	r2, [fp, #-16]
   134f4:	e2821001 	add	r1, r2, #1
   134f8:	e50b1010 	str	r1, [fp, #-16]
   134fc:	e5d22000 	ldrb	r2, [r2]
   13500:	e5c32000 	strb	r2, [r3]
   13504:	e51b3014 	ldr	r3, [fp, #-20]
   13508:	e2432001 	sub	r2, r3, #1
   1350c:	e50b2014 	str	r2, [fp, #-20]
   13510:	e3530000 	cmp	r3, #0
   13514:	cafffff2 	bgt	134e4 <video_new_line_slowest+0xe8>
   13518:	e59f302c 	ldr	r3, [pc, #44]	; 1354c <video_new_line_slowest+0x150>
   1351c:	e5933018 	ldr	r3, [r3, #24]
   13520:	e50b3008 	str	r3, [fp, #-8]
   13524:	e51b0008 	ldr	r0, [fp, #-8]
   13528:	ebfffe43 	bl	12e3c <video_clean_row>
   1352c:	e59f3018 	ldr	r3, [pc, #24]	; 1354c <video_new_line_slowest+0x150>
   13530:	e3a02000 	mov	r2, #0
   13534:	e5832014 	str	r2, [r3, #20]
   13538:	e59f300c 	ldr	r3, [pc, #12]	; 1354c <video_new_line_slowest+0x150>
   1353c:	e51b2008 	ldr	r2, [fp, #-8]
   13540:	e5832018 	str	r2, [r3, #24]
   13544:	e24bd004 	sub	sp, fp, #4
   13548:	e8bd8800 	pop	{fp, pc}
   1354c:	0001a680 	.word	0x0001a680
   13550:	0001a69c 	.word	0x0001a69c

00013554 <video_calculate_new_position>:
   13554:	e92d4800 	push	{fp, lr}
   13558:	e28db004 	add	fp, sp, #4
   1355c:	e24dd008 	sub	sp, sp, #8
   13560:	e59f3064 	ldr	r3, [pc, #100]	; 135cc <video_calculate_new_position+0x78>
   13564:	e5932014 	ldr	r2, [r3, #20]
   13568:	e59f305c 	ldr	r3, [pc, #92]	; 135cc <video_calculate_new_position+0x78>
   1356c:	e593300c 	ldr	r3, [r3, #12]
   13570:	e0823003 	add	r3, r2, r3
   13574:	e50b3008 	str	r3, [fp, #-8]
   13578:	e59f304c 	ldr	r3, [pc, #76]	; 135cc <video_calculate_new_position+0x78>
   1357c:	e5933018 	ldr	r3, [r3, #24]
   13580:	e50b300c 	str	r3, [fp, #-12]
   13584:	e59f3040 	ldr	r3, [pc, #64]	; 135cc <video_calculate_new_position+0x78>
   13588:	e593200c 	ldr	r2, [r3, #12]
   1358c:	e51b3008 	ldr	r3, [fp, #-8]
   13590:	e0822003 	add	r2, r2, r3
   13594:	e59f3030 	ldr	r3, [pc, #48]	; 135cc <video_calculate_new_position+0x78>
   13598:	e5933004 	ldr	r3, [r3, #4]
   1359c:	e1520003 	cmp	r2, r3
   135a0:	da000001 	ble	135ac <video_calculate_new_position+0x58>
   135a4:	ebfffe82 	bl	12fb4 <video_new_line>
   135a8:	ea000005 	b	135c4 <video_calculate_new_position+0x70>
   135ac:	e59f3018 	ldr	r3, [pc, #24]	; 135cc <video_calculate_new_position+0x78>
   135b0:	e51b2008 	ldr	r2, [fp, #-8]
   135b4:	e5832014 	str	r2, [r3, #20]
   135b8:	e59f300c 	ldr	r3, [pc, #12]	; 135cc <video_calculate_new_position+0x78>
   135bc:	e51b200c 	ldr	r2, [fp, #-12]
   135c0:	e5832018 	str	r2, [r3, #24]
   135c4:	e24bd004 	sub	sp, fp, #4
   135c8:	e8bd8800 	pop	{fp, pc}
   135cc:	0001a680 	.word	0x0001a680

000135d0 <__aeabi_uidiv>:
   135d0:	e2512001 	subs	r2, r1, #1
   135d4:	012fff1e 	bxeq	lr
   135d8:	3a000036 	bcc	136b8 <__aeabi_uidiv+0xe8>
   135dc:	e1500001 	cmp	r0, r1
   135e0:	9a000022 	bls	13670 <__aeabi_uidiv+0xa0>
   135e4:	e1110002 	tst	r1, r2
   135e8:	0a000023 	beq	1367c <__aeabi_uidiv+0xac>
   135ec:	e311020e 	tst	r1, #-536870912	; 0xe0000000
   135f0:	01a01181 	lsleq	r1, r1, #3
   135f4:	03a03008 	moveq	r3, #8
   135f8:	13a03001 	movne	r3, #1
   135fc:	e3510201 	cmp	r1, #268435456	; 0x10000000
   13600:	31510000 	cmpcc	r1, r0
   13604:	31a01201 	lslcc	r1, r1, #4
   13608:	31a03203 	lslcc	r3, r3, #4
   1360c:	3afffffa 	bcc	135fc <__aeabi_uidiv+0x2c>
   13610:	e3510102 	cmp	r1, #-2147483648	; 0x80000000
   13614:	31510000 	cmpcc	r1, r0
   13618:	31a01081 	lslcc	r1, r1, #1
   1361c:	31a03083 	lslcc	r3, r3, #1
   13620:	3afffffa 	bcc	13610 <__aeabi_uidiv+0x40>
   13624:	e3a02000 	mov	r2, #0
   13628:	e1500001 	cmp	r0, r1
   1362c:	20400001 	subcs	r0, r0, r1
   13630:	21822003 	orrcs	r2, r2, r3
   13634:	e15000a1 	cmp	r0, r1, lsr #1
   13638:	204000a1 	subcs	r0, r0, r1, lsr #1
   1363c:	218220a3 	orrcs	r2, r2, r3, lsr #1
   13640:	e1500121 	cmp	r0, r1, lsr #2
   13644:	20400121 	subcs	r0, r0, r1, lsr #2
   13648:	21822123 	orrcs	r2, r2, r3, lsr #2
   1364c:	e15001a1 	cmp	r0, r1, lsr #3
   13650:	204001a1 	subcs	r0, r0, r1, lsr #3
   13654:	218221a3 	orrcs	r2, r2, r3, lsr #3
   13658:	e3500000 	cmp	r0, #0
   1365c:	11b03223 	lsrsne	r3, r3, #4
   13660:	11a01221 	lsrne	r1, r1, #4
   13664:	1affffef 	bne	13628 <__aeabi_uidiv+0x58>
   13668:	e1a00002 	mov	r0, r2
   1366c:	e12fff1e 	bx	lr
   13670:	03a00001 	moveq	r0, #1
   13674:	13a00000 	movne	r0, #0
   13678:	e12fff1e 	bx	lr
   1367c:	e3510801 	cmp	r1, #65536	; 0x10000
   13680:	21a01821 	lsrcs	r1, r1, #16
   13684:	23a02010 	movcs	r2, #16
   13688:	33a02000 	movcc	r2, #0
   1368c:	e3510c01 	cmp	r1, #256	; 0x100
   13690:	21a01421 	lsrcs	r1, r1, #8
   13694:	22822008 	addcs	r2, r2, #8
   13698:	e3510010 	cmp	r1, #16
   1369c:	21a01221 	lsrcs	r1, r1, #4
   136a0:	22822004 	addcs	r2, r2, #4
   136a4:	e3510004 	cmp	r1, #4
   136a8:	82822003 	addhi	r2, r2, #3
   136ac:	908220a1 	addls	r2, r2, r1, lsr #1
   136b0:	e1a00230 	lsr	r0, r0, r2
   136b4:	e12fff1e 	bx	lr
   136b8:	e3500000 	cmp	r0, #0
   136bc:	13e00000 	mvnne	r0, #0
   136c0:	ea000059 	b	1382c <__aeabi_idiv0>

000136c4 <__aeabi_uidivmod>:
   136c4:	e3510000 	cmp	r1, #0
   136c8:	0afffffa 	beq	136b8 <__aeabi_uidiv+0xe8>
   136cc:	e92d4003 	push	{r0, r1, lr}
   136d0:	ebffffbe 	bl	135d0 <__aeabi_uidiv>
   136d4:	e8bd4006 	pop	{r1, r2, lr}
   136d8:	e0030092 	mul	r3, r2, r0
   136dc:	e0411003 	sub	r1, r1, r3
   136e0:	e12fff1e 	bx	lr

000136e4 <__aeabi_idiv>:
   136e4:	e3510000 	cmp	r1, #0
   136e8:	0a000043 	beq	137fc <.divsi3_skip_div0_test+0x110>

000136ec <.divsi3_skip_div0_test>:
   136ec:	e020c001 	eor	ip, r0, r1
   136f0:	42611000 	rsbmi	r1, r1, #0
   136f4:	e2512001 	subs	r2, r1, #1
   136f8:	0a000027 	beq	1379c <.divsi3_skip_div0_test+0xb0>
   136fc:	e1b03000 	movs	r3, r0
   13700:	42603000 	rsbmi	r3, r0, #0
   13704:	e1530001 	cmp	r3, r1
   13708:	9a000026 	bls	137a8 <.divsi3_skip_div0_test+0xbc>
   1370c:	e1110002 	tst	r1, r2
   13710:	0a000028 	beq	137b8 <.divsi3_skip_div0_test+0xcc>
   13714:	e311020e 	tst	r1, #-536870912	; 0xe0000000
   13718:	01a01181 	lsleq	r1, r1, #3
   1371c:	03a02008 	moveq	r2, #8
   13720:	13a02001 	movne	r2, #1
   13724:	e3510201 	cmp	r1, #268435456	; 0x10000000
   13728:	31510003 	cmpcc	r1, r3
   1372c:	31a01201 	lslcc	r1, r1, #4
   13730:	31a02202 	lslcc	r2, r2, #4
   13734:	3afffffa 	bcc	13724 <.divsi3_skip_div0_test+0x38>
   13738:	e3510102 	cmp	r1, #-2147483648	; 0x80000000
   1373c:	31510003 	cmpcc	r1, r3
   13740:	31a01081 	lslcc	r1, r1, #1
   13744:	31a02082 	lslcc	r2, r2, #1
   13748:	3afffffa 	bcc	13738 <.divsi3_skip_div0_test+0x4c>
   1374c:	e3a00000 	mov	r0, #0
   13750:	e1530001 	cmp	r3, r1
   13754:	20433001 	subcs	r3, r3, r1
   13758:	21800002 	orrcs	r0, r0, r2
   1375c:	e15300a1 	cmp	r3, r1, lsr #1
   13760:	204330a1 	subcs	r3, r3, r1, lsr #1
   13764:	218000a2 	orrcs	r0, r0, r2, lsr #1
   13768:	e1530121 	cmp	r3, r1, lsr #2
   1376c:	20433121 	subcs	r3, r3, r1, lsr #2
   13770:	21800122 	orrcs	r0, r0, r2, lsr #2
   13774:	e15301a1 	cmp	r3, r1, lsr #3
   13778:	204331a1 	subcs	r3, r3, r1, lsr #3
   1377c:	218001a2 	orrcs	r0, r0, r2, lsr #3
   13780:	e3530000 	cmp	r3, #0
   13784:	11b02222 	lsrsne	r2, r2, #4
   13788:	11a01221 	lsrne	r1, r1, #4
   1378c:	1affffef 	bne	13750 <.divsi3_skip_div0_test+0x64>
   13790:	e35c0000 	cmp	ip, #0
   13794:	42600000 	rsbmi	r0, r0, #0
   13798:	e12fff1e 	bx	lr
   1379c:	e13c0000 	teq	ip, r0
   137a0:	42600000 	rsbmi	r0, r0, #0
   137a4:	e12fff1e 	bx	lr
   137a8:	33a00000 	movcc	r0, #0
   137ac:	01a00fcc 	asreq	r0, ip, #31
   137b0:	03800001 	orreq	r0, r0, #1
   137b4:	e12fff1e 	bx	lr
   137b8:	e3510801 	cmp	r1, #65536	; 0x10000
   137bc:	21a01821 	lsrcs	r1, r1, #16
   137c0:	23a02010 	movcs	r2, #16
   137c4:	33a02000 	movcc	r2, #0
   137c8:	e3510c01 	cmp	r1, #256	; 0x100
   137cc:	21a01421 	lsrcs	r1, r1, #8
   137d0:	22822008 	addcs	r2, r2, #8
   137d4:	e3510010 	cmp	r1, #16
   137d8:	21a01221 	lsrcs	r1, r1, #4
   137dc:	22822004 	addcs	r2, r2, #4
   137e0:	e3510004 	cmp	r1, #4
   137e4:	82822003 	addhi	r2, r2, #3
   137e8:	908220a1 	addls	r2, r2, r1, lsr #1
   137ec:	e35c0000 	cmp	ip, #0
   137f0:	e1a00233 	lsr	r0, r3, r2
   137f4:	42600000 	rsbmi	r0, r0, #0
   137f8:	e12fff1e 	bx	lr
   137fc:	e3500000 	cmp	r0, #0
   13800:	c3e00102 	mvngt	r0, #-2147483648	; 0x80000000
   13804:	b3a00102 	movlt	r0, #-2147483648	; 0x80000000
   13808:	ea000007 	b	1382c <__aeabi_idiv0>

0001380c <__aeabi_idivmod>:
   1380c:	e3510000 	cmp	r1, #0
   13810:	0afffff9 	beq	137fc <.divsi3_skip_div0_test+0x110>
   13814:	e92d4003 	push	{r0, r1, lr}
   13818:	ebffffb3 	bl	136ec <.divsi3_skip_div0_test>
   1381c:	e8bd4006 	pop	{r1, r2, lr}
   13820:	e0030092 	mul	r3, r2, r0
   13824:	e0411003 	sub	r1, r1, r3
   13828:	e12fff1e 	bx	lr

0001382c <__aeabi_idiv0>:
   1382c:	e12fff1e 	bx	lr

00013830 <__aeabi_uldivmod>:
   13830:	e3530000 	cmp	r3, #0
   13834:	03520000 	cmpeq	r2, #0
   13838:	1a000004 	bne	13850 <__aeabi_uldivmod+0x20>
   1383c:	e3510000 	cmp	r1, #0
   13840:	03500000 	cmpeq	r0, #0
   13844:	13e01000 	mvnne	r1, #0
   13848:	13e00000 	mvnne	r0, #0
   1384c:	eafffff6 	b	1382c <__aeabi_idiv0>
   13850:	e24dd008 	sub	sp, sp, #8
   13854:	e92d6000 	push	{sp, lr}
   13858:	eb000014 	bl	138b0 <__gnu_uldivmod_helper>
   1385c:	e59de004 	ldr	lr, [sp, #4]
   13860:	e28dd008 	add	sp, sp, #8
   13864:	e8bd000c 	pop	{r2, r3}
   13868:	e12fff1e 	bx	lr

0001386c <__gnu_ldivmod_helper>:
   1386c:	e92d45f8 	push	{r3, r4, r5, r6, r7, r8, sl, lr}
   13870:	e1a08002 	mov	r8, r2
   13874:	e1a0a003 	mov	sl, r3
   13878:	e1a06000 	mov	r6, r0
   1387c:	e1a07001 	mov	r7, r1
   13880:	eb00001a 	bl	138f0 <__divdi3>
   13884:	e0030198 	mul	r3, r8, r1
   13888:	e1a02000 	mov	r2, r0
   1388c:	e0854098 	umull	r4, r5, r8, r0
   13890:	e022329a 	mla	r2, sl, r2, r3
   13894:	e59d3020 	ldr	r3, [sp, #32]
   13898:	e0825005 	add	r5, r2, r5
   1389c:	e0564004 	subs	r4, r6, r4
   138a0:	e0c75005 	sbc	r5, r7, r5
   138a4:	e8830030 	stm	r3, {r4, r5}
   138a8:	e8bd45f8 	pop	{r3, r4, r5, r6, r7, r8, sl, lr}
   138ac:	e12fff1e 	bx	lr

000138b0 <__gnu_uldivmod_helper>:
   138b0:	e92d41f0 	push	{r4, r5, r6, r7, r8, lr}
   138b4:	e1a08002 	mov	r8, r2
   138b8:	e1a06000 	mov	r6, r0
   138bc:	e1a07001 	mov	r7, r1
   138c0:	e1a04003 	mov	r4, r3
   138c4:	eb000147 	bl	13de8 <__udivdi3>
   138c8:	e0030490 	mul	r3, r0, r4
   138cc:	e0854890 	umull	r4, r5, r0, r8
   138d0:	e0283891 	mla	r8, r1, r8, r3
   138d4:	e59d3018 	ldr	r3, [sp, #24]
   138d8:	e0885005 	add	r5, r8, r5
   138dc:	e0564004 	subs	r4, r6, r4
   138e0:	e0c75005 	sbc	r5, r7, r5
   138e4:	e8830030 	stm	r3, {r4, r5}
   138e8:	e8bd41f0 	pop	{r4, r5, r6, r7, r8, lr}
   138ec:	e12fff1e 	bx	lr

000138f0 <__divdi3>:
   138f0:	e92d4ff0 	push	{r4, r5, r6, r7, r8, r9, sl, fp, lr}
   138f4:	e24dd00c 	sub	sp, sp, #12
   138f8:	e3510000 	cmp	r1, #0
   138fc:	e1a0c003 	mov	ip, r3
   13900:	a3a05000 	movge	r5, #0
   13904:	ba00009d 	blt	13b80 <__divdi3+0x290>
   13908:	e35c0000 	cmp	ip, #0
   1390c:	ba000097 	blt	13b70 <__divdi3+0x280>
   13910:	e2539000 	subs	r9, r3, #0
   13914:	e1a08000 	mov	r8, r0
   13918:	e1a0a001 	mov	sl, r1
   1391c:	e1a0b002 	mov	fp, r2
   13920:	e1a04002 	mov	r4, r2
   13924:	e1a06000 	mov	r6, r0
   13928:	e1a07001 	mov	r7, r1
   1392c:	1a000043 	bne	13a40 <__divdi3+0x150>
   13930:	e1520001 	cmp	r2, r1
   13934:	9a000051 	bls	13a80 <__divdi3+0x190>
   13938:	e1a00002 	mov	r0, r2
   1393c:	eb0007f6 	bl	1591c <__clzsi2>
   13940:	e3500000 	cmp	r0, #0
   13944:	12603020 	rsbne	r3, r0, #32
   13948:	11a03338 	lsrne	r3, r8, r3
   1394c:	11a0401b 	lslne	r4, fp, r0
   13950:	1183701a 	orrne	r7, r3, sl, lsl r0
   13954:	11a06018 	lslne	r6, r8, r0
   13958:	e1a08824 	lsr	r8, r4, #16
   1395c:	e1a00007 	mov	r0, r7
   13960:	e1a01008 	mov	r1, r8
   13964:	ebffff56 	bl	136c4 <__aeabi_uidivmod>
   13968:	e1a00007 	mov	r0, r7
   1396c:	e1a09001 	mov	r9, r1
   13970:	e1a01008 	mov	r1, r8
   13974:	ebffff15 	bl	135d0 <__aeabi_uidiv>
   13978:	e1a0a804 	lsl	sl, r4, #16
   1397c:	e1a0a82a 	lsr	sl, sl, #16
   13980:	e1a07000 	mov	r7, r0
   13984:	e000079a 	mul	r0, sl, r7
   13988:	e1a03826 	lsr	r3, r6, #16
   1398c:	e1833809 	orr	r3, r3, r9, lsl #16
   13990:	e1500003 	cmp	r0, r3
   13994:	9a000007 	bls	139b8 <__divdi3+0xc8>
   13998:	e0933004 	adds	r3, r3, r4
   1399c:	e2472001 	sub	r2, r7, #1
   139a0:	2a000003 	bcs	139b4 <__divdi3+0xc4>
   139a4:	e1500003 	cmp	r0, r3
   139a8:	82477002 	subhi	r7, r7, #2
   139ac:	80833004 	addhi	r3, r3, r4
   139b0:	8a000000 	bhi	139b8 <__divdi3+0xc8>
   139b4:	e1a07002 	mov	r7, r2
   139b8:	e0609003 	rsb	r9, r0, r3
   139bc:	e1a00009 	mov	r0, r9
   139c0:	e1a01008 	mov	r1, r8
   139c4:	ebffff3e 	bl	136c4 <__aeabi_uidivmod>
   139c8:	e1a00009 	mov	r0, r9
   139cc:	e1a0b001 	mov	fp, r1
   139d0:	e1a01008 	mov	r1, r8
   139d4:	ebfffefd 	bl	135d0 <__aeabi_uidiv>
   139d8:	e00a0a90 	mul	sl, r0, sl
   139dc:	e1a01806 	lsl	r1, r6, #16
   139e0:	e1a01821 	lsr	r1, r1, #16
   139e4:	e181180b 	orr	r1, r1, fp, lsl #16
   139e8:	e15a0001 	cmp	sl, r1
   139ec:	9a000006 	bls	13a0c <__divdi3+0x11c>
   139f0:	e0914004 	adds	r4, r1, r4
   139f4:	e2403001 	sub	r3, r0, #1
   139f8:	2a000002 	bcs	13a08 <__divdi3+0x118>
   139fc:	e15a0004 	cmp	sl, r4
   13a00:	82400002 	subhi	r0, r0, #2
   13a04:	8a000000 	bhi	13a0c <__divdi3+0x11c>
   13a08:	e1a00003 	mov	r0, r3
   13a0c:	e1800807 	orr	r0, r0, r7, lsl #16
   13a10:	e3a08000 	mov	r8, #0
   13a14:	e3550000 	cmp	r5, #0
   13a18:	e1a02000 	mov	r2, r0
   13a1c:	e1a03008 	mov	r3, r8
   13a20:	0a000001 	beq	13a2c <__divdi3+0x13c>
   13a24:	e2722000 	rsbs	r2, r2, #0
   13a28:	e2e33000 	rsc	r3, r3, #0
   13a2c:	e1a00002 	mov	r0, r2
   13a30:	e1a01003 	mov	r1, r3
   13a34:	e28dd00c 	add	sp, sp, #12
   13a38:	e8bd4ff0 	pop	{r4, r5, r6, r7, r8, r9, sl, fp, lr}
   13a3c:	e12fff1e 	bx	lr
   13a40:	e1590001 	cmp	r9, r1
   13a44:	83a08000 	movhi	r8, #0
   13a48:	81a00008 	movhi	r0, r8
   13a4c:	8afffff0 	bhi	13a14 <__divdi3+0x124>
   13a50:	e1a00003 	mov	r0, r3
   13a54:	eb0007b0 	bl	1591c <__clzsi2>
   13a58:	e2504000 	subs	r4, r0, #0
   13a5c:	1a000083 	bne	13c70 <__divdi3+0x380>
   13a60:	e159000a 	cmp	r9, sl
   13a64:	215b0008 	cmpcs	fp, r8
   13a68:	83a08000 	movhi	r8, #0
   13a6c:	93a08001 	movls	r8, #1
   13a70:	93a00001 	movls	r0, #1
   13a74:	91a08004 	movls	r8, r4
   13a78:	81a00008 	movhi	r0, r8
   13a7c:	eaffffe4 	b	13a14 <__divdi3+0x124>
   13a80:	e3520000 	cmp	r2, #0
   13a84:	1a000003 	bne	13a98 <__divdi3+0x1a8>
   13a88:	e3a00001 	mov	r0, #1
   13a8c:	e1a01002 	mov	r1, r2
   13a90:	ebfffece 	bl	135d0 <__aeabi_uidiv>
   13a94:	e1a04000 	mov	r4, r0
   13a98:	e1a00004 	mov	r0, r4
   13a9c:	eb00079e 	bl	1591c <__clzsi2>
   13aa0:	e2503000 	subs	r3, r0, #0
   13aa4:	1a000039 	bne	13b90 <__divdi3+0x2a0>
   13aa8:	e1a09804 	lsl	r9, r4, #16
   13aac:	e0647007 	rsb	r7, r4, r7
   13ab0:	e1a0a824 	lsr	sl, r4, #16
   13ab4:	e1a09829 	lsr	r9, r9, #16
   13ab8:	e3a08001 	mov	r8, #1
   13abc:	e1a00007 	mov	r0, r7
   13ac0:	e1a0100a 	mov	r1, sl
   13ac4:	ebfffefe 	bl	136c4 <__aeabi_uidivmod>
   13ac8:	e1a00007 	mov	r0, r7
   13acc:	e1a0b001 	mov	fp, r1
   13ad0:	e1a0100a 	mov	r1, sl
   13ad4:	ebfffebd 	bl	135d0 <__aeabi_uidiv>
   13ad8:	e1a07000 	mov	r7, r0
   13adc:	e0000799 	mul	r0, r9, r7
   13ae0:	e1a01826 	lsr	r1, r6, #16
   13ae4:	e181180b 	orr	r1, r1, fp, lsl #16
   13ae8:	e1500001 	cmp	r0, r1
   13aec:	9a000006 	bls	13b0c <__divdi3+0x21c>
   13af0:	e0911004 	adds	r1, r1, r4
   13af4:	e2473001 	sub	r3, r7, #1
   13af8:	2a0000b2 	bcs	13dc8 <__divdi3+0x4d8>
   13afc:	e1500001 	cmp	r0, r1
   13b00:	82477002 	subhi	r7, r7, #2
   13b04:	80811004 	addhi	r1, r1, r4
   13b08:	9a0000ae 	bls	13dc8 <__divdi3+0x4d8>
   13b0c:	e060b001 	rsb	fp, r0, r1
   13b10:	e1a0000b 	mov	r0, fp
   13b14:	e1a0100a 	mov	r1, sl
   13b18:	ebfffee9 	bl	136c4 <__aeabi_uidivmod>
   13b1c:	e1a0000b 	mov	r0, fp
   13b20:	e1a03001 	mov	r3, r1
   13b24:	e1a0100a 	mov	r1, sl
   13b28:	e58d3000 	str	r3, [sp]
   13b2c:	ebfffea7 	bl	135d0 <__aeabi_uidiv>
   13b30:	e0090990 	mul	r9, r0, r9
   13b34:	e1a01806 	lsl	r1, r6, #16
   13b38:	e59d3000 	ldr	r3, [sp]
   13b3c:	e1a01821 	lsr	r1, r1, #16
   13b40:	e1811803 	orr	r1, r1, r3, lsl #16
   13b44:	e1590001 	cmp	r9, r1
   13b48:	9a000006 	bls	13b68 <__divdi3+0x278>
   13b4c:	e0914004 	adds	r4, r1, r4
   13b50:	e2403001 	sub	r3, r0, #1
   13b54:	2a000002 	bcs	13b64 <__divdi3+0x274>
   13b58:	e1590004 	cmp	r9, r4
   13b5c:	82400002 	subhi	r0, r0, #2
   13b60:	8a000000 	bhi	13b68 <__divdi3+0x278>
   13b64:	e1a00003 	mov	r0, r3
   13b68:	e1800807 	orr	r0, r0, r7, lsl #16
   13b6c:	eaffffa8 	b	13a14 <__divdi3+0x124>
   13b70:	e1e05005 	mvn	r5, r5
   13b74:	e2722000 	rsbs	r2, r2, #0
   13b78:	e2e33000 	rsc	r3, r3, #0
   13b7c:	eaffff63 	b	13910 <__divdi3+0x20>
   13b80:	e2700000 	rsbs	r0, r0, #0
   13b84:	e2e11000 	rsc	r1, r1, #0
   13b88:	e3e05000 	mvn	r5, #0
   13b8c:	eaffff5d 	b	13908 <__divdi3+0x18>
   13b90:	e2638020 	rsb	r8, r3, #32
   13b94:	e1a04314 	lsl	r4, r4, r3
   13b98:	e1a0b836 	lsr	fp, r6, r8
   13b9c:	e1a08837 	lsr	r8, r7, r8
   13ba0:	e1a0a824 	lsr	sl, r4, #16
   13ba4:	e1a00008 	mov	r0, r8
   13ba8:	e1a0100a 	mov	r1, sl
   13bac:	e18bb317 	orr	fp, fp, r7, lsl r3
   13bb0:	e1a06316 	lsl	r6, r6, r3
   13bb4:	ebfffec2 	bl	136c4 <__aeabi_uidivmod>
   13bb8:	e1a00008 	mov	r0, r8
   13bbc:	e1a07001 	mov	r7, r1
   13bc0:	e1a0100a 	mov	r1, sl
   13bc4:	ebfffe81 	bl	135d0 <__aeabi_uidiv>
   13bc8:	e1a09804 	lsl	r9, r4, #16
   13bcc:	e1a09829 	lsr	r9, r9, #16
   13bd0:	e1a08000 	mov	r8, r0
   13bd4:	e0000899 	mul	r0, r9, r8
   13bd8:	e1a0182b 	lsr	r1, fp, #16
   13bdc:	e1811807 	orr	r1, r1, r7, lsl #16
   13be0:	e1500001 	cmp	r0, r1
   13be4:	9a000006 	bls	13c04 <__divdi3+0x314>
   13be8:	e0911004 	adds	r1, r1, r4
   13bec:	e2483001 	sub	r3, r8, #1
   13bf0:	2a00007a 	bcs	13de0 <__divdi3+0x4f0>
   13bf4:	e1500001 	cmp	r0, r1
   13bf8:	82488002 	subhi	r8, r8, #2
   13bfc:	80811004 	addhi	r1, r1, r4
   13c00:	9a000076 	bls	13de0 <__divdi3+0x4f0>
   13c04:	e0607001 	rsb	r7, r0, r1
   13c08:	e1a00007 	mov	r0, r7
   13c0c:	e1a0100a 	mov	r1, sl
   13c10:	ebfffeab 	bl	136c4 <__aeabi_uidivmod>
   13c14:	e1a00007 	mov	r0, r7
   13c18:	e1a03001 	mov	r3, r1
   13c1c:	e1a0100a 	mov	r1, sl
   13c20:	e58d3000 	str	r3, [sp]
   13c24:	ebfffe69 	bl	135d0 <__aeabi_uidiv>
   13c28:	e0070099 	mul	r7, r9, r0
   13c2c:	e1a0180b 	lsl	r1, fp, #16
   13c30:	e59d3000 	ldr	r3, [sp]
   13c34:	e1a01821 	lsr	r1, r1, #16
   13c38:	e1811803 	orr	r1, r1, r3, lsl #16
   13c3c:	e1570001 	cmp	r7, r1
   13c40:	9a000007 	bls	13c64 <__divdi3+0x374>
   13c44:	e0911004 	adds	r1, r1, r4
   13c48:	e2403001 	sub	r3, r0, #1
   13c4c:	2a000003 	bcs	13c60 <__divdi3+0x370>
   13c50:	e1570001 	cmp	r7, r1
   13c54:	82400002 	subhi	r0, r0, #2
   13c58:	80811004 	addhi	r1, r1, r4
   13c5c:	8a000000 	bhi	13c64 <__divdi3+0x374>
   13c60:	e1a00003 	mov	r0, r3
   13c64:	e0677001 	rsb	r7, r7, r1
   13c68:	e1808808 	orr	r8, r0, r8, lsl #16
   13c6c:	eaffff92 	b	13abc <__divdi3+0x1cc>
   13c70:	e2640020 	rsb	r0, r4, #32
   13c74:	e1a0303b 	lsr	r3, fp, r0
   13c78:	e1839419 	orr	r9, r3, r9, lsl r4
   13c7c:	e1a0303a 	lsr	r3, sl, r0
   13c80:	e1a02036 	lsr	r2, r6, r0
   13c84:	e1a07829 	lsr	r7, r9, #16
   13c88:	e1a00003 	mov	r0, r3
   13c8c:	e1a01007 	mov	r1, r7
   13c90:	e182a41a 	orr	sl, r2, sl, lsl r4
   13c94:	e58d3000 	str	r3, [sp]
   13c98:	ebfffe89 	bl	136c4 <__aeabi_uidivmod>
   13c9c:	e59d3000 	ldr	r3, [sp]
   13ca0:	e1a02001 	mov	r2, r1
   13ca4:	e1a00003 	mov	r0, r3
   13ca8:	e1a01007 	mov	r1, r7
   13cac:	e58d2004 	str	r2, [sp, #4]
   13cb0:	ebfffe46 	bl	135d0 <__aeabi_uidiv>
   13cb4:	e1a08809 	lsl	r8, r9, #16
   13cb8:	e1a08828 	lsr	r8, r8, #16
   13cbc:	e1a03000 	mov	r3, r0
   13cc0:	e0000398 	mul	r0, r8, r3
   13cc4:	e59d2004 	ldr	r2, [sp, #4]
   13cc8:	e1a0182a 	lsr	r1, sl, #16
   13ccc:	e1811802 	orr	r1, r1, r2, lsl #16
   13cd0:	e1500001 	cmp	r0, r1
   13cd4:	e1a0b41b 	lsl	fp, fp, r4
   13cd8:	9a000006 	bls	13cf8 <__divdi3+0x408>
   13cdc:	e0911009 	adds	r1, r1, r9
   13ce0:	e2432001 	sub	r2, r3, #1
   13ce4:	2a00003b 	bcs	13dd8 <__divdi3+0x4e8>
   13ce8:	e1500001 	cmp	r0, r1
   13cec:	82433002 	subhi	r3, r3, #2
   13cf0:	80811009 	addhi	r1, r1, r9
   13cf4:	9a000037 	bls	13dd8 <__divdi3+0x4e8>
   13cf8:	e060c001 	rsb	ip, r0, r1
   13cfc:	e1a0000c 	mov	r0, ip
   13d00:	e1a01007 	mov	r1, r7
   13d04:	e88d1008 	stm	sp, {r3, ip}
   13d08:	ebfffe6d 	bl	136c4 <__aeabi_uidivmod>
   13d0c:	e59dc004 	ldr	ip, [sp, #4]
   13d10:	e1a02001 	mov	r2, r1
   13d14:	e1a0000c 	mov	r0, ip
   13d18:	e1a01007 	mov	r1, r7
   13d1c:	e58d2004 	str	r2, [sp, #4]
   13d20:	ebfffe2a 	bl	135d0 <__aeabi_uidiv>
   13d24:	e0080890 	mul	r8, r0, r8
   13d28:	e1a0a80a 	lsl	sl, sl, #16
   13d2c:	e59d2004 	ldr	r2, [sp, #4]
   13d30:	e1a0182a 	lsr	r1, sl, #16
   13d34:	e1811802 	orr	r1, r1, r2, lsl #16
   13d38:	e1580001 	cmp	r8, r1
   13d3c:	e59d3000 	ldr	r3, [sp]
   13d40:	9a000006 	bls	13d60 <__divdi3+0x470>
   13d44:	e0911009 	adds	r1, r1, r9
   13d48:	e2402001 	sub	r2, r0, #1
   13d4c:	2a00001f 	bcs	13dd0 <__divdi3+0x4e0>
   13d50:	e1580001 	cmp	r8, r1
   13d54:	82400002 	subhi	r0, r0, #2
   13d58:	80811009 	addhi	r1, r1, r9
   13d5c:	9a00001b 	bls	13dd0 <__divdi3+0x4e0>
   13d60:	e0688001 	rsb	r8, r8, r1
   13d64:	e1800803 	orr	r0, r0, r3, lsl #16
   13d68:	e1a01820 	lsr	r1, r0, #16
   13d6c:	e1a0382b 	lsr	r3, fp, #16
   13d70:	e1c0c801 	bic	ip, r0, r1, lsl #16
   13d74:	e1cbb803 	bic	fp, fp, r3, lsl #16
   13d78:	e0020b9c 	mul	r2, ip, fp
   13d7c:	e00b0b91 	mul	fp, r1, fp
   13d80:	e00c0c93 	mul	ip, r3, ip
   13d84:	e0030391 	mul	r3, r1, r3
   13d88:	e09bc00c 	adds	ip, fp, ip
   13d8c:	22833801 	addcs	r3, r3, #65536	; 0x10000
   13d90:	e092280c 	adds	r2, r2, ip, lsl #16
   13d94:	e0a3382c 	adc	r3, r3, ip, lsr #16
   13d98:	e1580003 	cmp	r8, r3
   13d9c:	3a000006 	bcc	13dbc <__divdi3+0x4cc>
   13da0:	13a08000 	movne	r8, #0
   13da4:	03a08001 	moveq	r8, #1
   13da8:	e1520416 	cmp	r2, r6, lsl r4
   13dac:	93a08000 	movls	r8, #0
   13db0:	82088001 	andhi	r8, r8, #1
   13db4:	e3580000 	cmp	r8, #0
   13db8:	0affff15 	beq	13a14 <__divdi3+0x124>
   13dbc:	e2400001 	sub	r0, r0, #1
   13dc0:	e3a08000 	mov	r8, #0
   13dc4:	eaffff12 	b	13a14 <__divdi3+0x124>
   13dc8:	e1a07003 	mov	r7, r3
   13dcc:	eaffff4e 	b	13b0c <__divdi3+0x21c>
   13dd0:	e1a00002 	mov	r0, r2
   13dd4:	eaffffe1 	b	13d60 <__divdi3+0x470>
   13dd8:	e1a03002 	mov	r3, r2
   13ddc:	eaffffc5 	b	13cf8 <__divdi3+0x408>
   13de0:	e1a08003 	mov	r8, r3
   13de4:	eaffff86 	b	13c04 <__divdi3+0x314>

00013de8 <__udivdi3>:
   13de8:	e92d4ff0 	push	{r4, r5, r6, r7, r8, r9, sl, fp, lr}
   13dec:	e24dd00c 	sub	sp, sp, #12
   13df0:	e253a000 	subs	sl, r3, #0
   13df4:	e1a06000 	mov	r6, r0
   13df8:	e1a05001 	mov	r5, r1
   13dfc:	e1a07002 	mov	r7, r2
   13e00:	e1a04002 	mov	r4, r2
   13e04:	e1a08000 	mov	r8, r0
   13e08:	e1a09001 	mov	r9, r1
   13e0c:	1a00003b 	bne	13f00 <__udivdi3+0x118>
   13e10:	e1520001 	cmp	r2, r1
   13e14:	9a000049 	bls	13f40 <__udivdi3+0x158>
   13e18:	e1a00002 	mov	r0, r2
   13e1c:	eb0006be 	bl	1591c <__clzsi2>
   13e20:	e3500000 	cmp	r0, #0
   13e24:	12603020 	rsbne	r3, r0, #32
   13e28:	11a03336 	lsrne	r3, r6, r3
   13e2c:	11a04017 	lslne	r4, r7, r0
   13e30:	11839015 	orrne	r9, r3, r5, lsl r0
   13e34:	e1a05824 	lsr	r5, r4, #16
   13e38:	11a08016 	lslne	r8, r6, r0
   13e3c:	e1a01005 	mov	r1, r5
   13e40:	e1a00009 	mov	r0, r9
   13e44:	ebfffe1e 	bl	136c4 <__aeabi_uidivmod>
   13e48:	e1a00009 	mov	r0, r9
   13e4c:	e1a0a001 	mov	sl, r1
   13e50:	e1a01005 	mov	r1, r5
   13e54:	ebfffddd 	bl	135d0 <__aeabi_uidiv>
   13e58:	e1a07804 	lsl	r7, r4, #16
   13e5c:	e1a07827 	lsr	r7, r7, #16
   13e60:	e1a06000 	mov	r6, r0
   13e64:	e0000697 	mul	r0, r7, r6
   13e68:	e1a03828 	lsr	r3, r8, #16
   13e6c:	e183380a 	orr	r3, r3, sl, lsl #16
   13e70:	e1500003 	cmp	r0, r3
   13e74:	9a000007 	bls	13e98 <__udivdi3+0xb0>
   13e78:	e0933004 	adds	r3, r3, r4
   13e7c:	e2462001 	sub	r2, r6, #1
   13e80:	2a000003 	bcs	13e94 <__udivdi3+0xac>
   13e84:	e1500003 	cmp	r0, r3
   13e88:	82466002 	subhi	r6, r6, #2
   13e8c:	80833004 	addhi	r3, r3, r4
   13e90:	8a000000 	bhi	13e98 <__udivdi3+0xb0>
   13e94:	e1a06002 	mov	r6, r2
   13e98:	e060a003 	rsb	sl, r0, r3
   13e9c:	e1a0000a 	mov	r0, sl
   13ea0:	e1a01005 	mov	r1, r5
   13ea4:	ebfffe06 	bl	136c4 <__aeabi_uidivmod>
   13ea8:	e1a0000a 	mov	r0, sl
   13eac:	e1a09001 	mov	r9, r1
   13eb0:	e1a01005 	mov	r1, r5
   13eb4:	ebfffdc5 	bl	135d0 <__aeabi_uidiv>
   13eb8:	e0070790 	mul	r7, r0, r7
   13ebc:	e1a01808 	lsl	r1, r8, #16
   13ec0:	e1a01821 	lsr	r1, r1, #16
   13ec4:	e1811809 	orr	r1, r1, r9, lsl #16
   13ec8:	e1570001 	cmp	r7, r1
   13ecc:	9a000005 	bls	13ee8 <__udivdi3+0x100>
   13ed0:	e0914004 	adds	r4, r1, r4
   13ed4:	e2402001 	sub	r2, r0, #1
   13ed8:	2a0000d6 	bcs	14238 <__udivdi3+0x450>
   13edc:	e1570004 	cmp	r7, r4
   13ee0:	82400002 	subhi	r0, r0, #2
   13ee4:	9a0000d3 	bls	14238 <__udivdi3+0x450>
   13ee8:	e1800806 	orr	r0, r0, r6, lsl #16
   13eec:	e3a06000 	mov	r6, #0
   13ef0:	e1a01006 	mov	r1, r6
   13ef4:	e28dd00c 	add	sp, sp, #12
   13ef8:	e8bd4ff0 	pop	{r4, r5, r6, r7, r8, r9, sl, fp, lr}
   13efc:	e12fff1e 	bx	lr
   13f00:	e15a0001 	cmp	sl, r1
   13f04:	83a06000 	movhi	r6, #0
   13f08:	81a00006 	movhi	r0, r6
   13f0c:	8afffff7 	bhi	13ef0 <__udivdi3+0x108>
   13f10:	e1a0000a 	mov	r0, sl
   13f14:	eb000680 	bl	1591c <__clzsi2>
   13f18:	e2504000 	subs	r4, r0, #0
   13f1c:	1a000040 	bne	14024 <__udivdi3+0x23c>
   13f20:	e15a0005 	cmp	sl, r5
   13f24:	21570006 	cmpcs	r7, r6
   13f28:	83a06000 	movhi	r6, #0
   13f2c:	93a06001 	movls	r6, #1
   13f30:	93a00001 	movls	r0, #1
   13f34:	91a06004 	movls	r6, r4
   13f38:	81a00006 	movhi	r0, r6
   13f3c:	eaffffeb 	b	13ef0 <__udivdi3+0x108>
   13f40:	e3520000 	cmp	r2, #0
   13f44:	1a000003 	bne	13f58 <__udivdi3+0x170>
   13f48:	e3a00001 	mov	r0, #1
   13f4c:	e1a01002 	mov	r1, r2
   13f50:	ebfffd9e 	bl	135d0 <__aeabi_uidiv>
   13f54:	e1a04000 	mov	r4, r0
   13f58:	e1a00004 	mov	r0, r4
   13f5c:	eb00066e 	bl	1591c <__clzsi2>
   13f60:	e2503000 	subs	r3, r0, #0
   13f64:	1a00007b 	bne	14158 <__udivdi3+0x370>
   13f68:	e1a09804 	lsl	r9, r4, #16
   13f6c:	e0645005 	rsb	r5, r4, r5
   13f70:	e1a0a824 	lsr	sl, r4, #16
   13f74:	e1a09829 	lsr	r9, r9, #16
   13f78:	e3a06001 	mov	r6, #1
   13f7c:	e1a00005 	mov	r0, r5
   13f80:	e1a0100a 	mov	r1, sl
   13f84:	ebfffdce 	bl	136c4 <__aeabi_uidivmod>
   13f88:	e1a00005 	mov	r0, r5
   13f8c:	e1a07001 	mov	r7, r1
   13f90:	e1a0100a 	mov	r1, sl
   13f94:	ebfffd8d 	bl	135d0 <__aeabi_uidiv>
   13f98:	e1a05000 	mov	r5, r0
   13f9c:	e0000599 	mul	r0, r9, r5
   13fa0:	e1a01828 	lsr	r1, r8, #16
   13fa4:	e1811807 	orr	r1, r1, r7, lsl #16
   13fa8:	e1500001 	cmp	r0, r1
   13fac:	9a000006 	bls	13fcc <__udivdi3+0x1e4>
   13fb0:	e0911004 	adds	r1, r1, r4
   13fb4:	e2453001 	sub	r3, r5, #1
   13fb8:	2a0000a0 	bcs	14240 <__udivdi3+0x458>
   13fbc:	e1500001 	cmp	r0, r1
   13fc0:	82455002 	subhi	r5, r5, #2
   13fc4:	80811004 	addhi	r1, r1, r4
   13fc8:	9a00009c 	bls	14240 <__udivdi3+0x458>
   13fcc:	e0607001 	rsb	r7, r0, r1
   13fd0:	e1a00007 	mov	r0, r7
   13fd4:	e1a0100a 	mov	r1, sl
   13fd8:	ebfffdb9 	bl	136c4 <__aeabi_uidivmod>
   13fdc:	e1a00007 	mov	r0, r7
   13fe0:	e1a0b001 	mov	fp, r1
   13fe4:	e1a0100a 	mov	r1, sl
   13fe8:	ebfffd78 	bl	135d0 <__aeabi_uidiv>
   13fec:	e0090990 	mul	r9, r0, r9
   13ff0:	e1a01808 	lsl	r1, r8, #16
   13ff4:	e1a01821 	lsr	r1, r1, #16
   13ff8:	e181180b 	orr	r1, r1, fp, lsl #16
   13ffc:	e1590001 	cmp	r9, r1
   14000:	9a000005 	bls	1401c <__udivdi3+0x234>
   14004:	e0914004 	adds	r4, r1, r4
   14008:	e2402001 	sub	r2, r0, #1
   1400c:	2a00008d 	bcs	14248 <__udivdi3+0x460>
   14010:	e1590004 	cmp	r9, r4
   14014:	82400002 	subhi	r0, r0, #2
   14018:	9a00008a 	bls	14248 <__udivdi3+0x460>
   1401c:	e1800805 	orr	r0, r0, r5, lsl #16
   14020:	eaffffb2 	b	13ef0 <__udivdi3+0x108>
   14024:	e2640020 	rsb	r0, r4, #32
   14028:	e1a02037 	lsr	r2, r7, r0
   1402c:	e182a41a 	orr	sl, r2, sl, lsl r4
   14030:	e1a0b035 	lsr	fp, r5, r0
   14034:	e1a03036 	lsr	r3, r6, r0
   14038:	e1a0882a 	lsr	r8, sl, #16
   1403c:	e1a0000b 	mov	r0, fp
   14040:	e1a01008 	mov	r1, r8
   14044:	e1835415 	orr	r5, r3, r5, lsl r4
   14048:	ebfffd9d 	bl	136c4 <__aeabi_uidivmod>
   1404c:	e1a0000b 	mov	r0, fp
   14050:	e1a03001 	mov	r3, r1
   14054:	e1a01008 	mov	r1, r8
   14058:	e58d3004 	str	r3, [sp, #4]
   1405c:	ebfffd5b 	bl	135d0 <__aeabi_uidiv>
   14060:	e1a0980a 	lsl	r9, sl, #16
   14064:	e1a09829 	lsr	r9, r9, #16
   14068:	e1a0b000 	mov	fp, r0
   1406c:	e0000b99 	mul	r0, r9, fp
   14070:	e59d3004 	ldr	r3, [sp, #4]
   14074:	e1a02825 	lsr	r2, r5, #16
   14078:	e1823803 	orr	r3, r2, r3, lsl #16
   1407c:	e1500003 	cmp	r0, r3
   14080:	e1a07417 	lsl	r7, r7, r4
   14084:	9a000003 	bls	14098 <__udivdi3+0x2b0>
   14088:	e093300a 	adds	r3, r3, sl
   1408c:	e24b2001 	sub	r2, fp, #1
   14090:	3a000073 	bcc	14264 <__udivdi3+0x47c>
   14094:	e1a0b002 	mov	fp, r2
   14098:	e0603003 	rsb	r3, r0, r3
   1409c:	e1a00003 	mov	r0, r3
   140a0:	e1a01008 	mov	r1, r8
   140a4:	e58d3004 	str	r3, [sp, #4]
   140a8:	ebfffd85 	bl	136c4 <__aeabi_uidivmod>
   140ac:	e59d3004 	ldr	r3, [sp, #4]
   140b0:	e1a02001 	mov	r2, r1
   140b4:	e1a00003 	mov	r0, r3
   140b8:	e1a01008 	mov	r1, r8
   140bc:	e58d2004 	str	r2, [sp, #4]
   140c0:	ebfffd42 	bl	135d0 <__aeabi_uidiv>
   140c4:	e0090990 	mul	r9, r0, r9
   140c8:	e1a05805 	lsl	r5, r5, #16
   140cc:	e59d2004 	ldr	r2, [sp, #4]
   140d0:	e1a01825 	lsr	r1, r5, #16
   140d4:	e1811802 	orr	r1, r1, r2, lsl #16
   140d8:	e1590001 	cmp	r9, r1
   140dc:	9a000003 	bls	140f0 <__udivdi3+0x308>
   140e0:	e091100a 	adds	r1, r1, sl
   140e4:	e2403001 	sub	r3, r0, #1
   140e8:	3a000058 	bcc	14250 <__udivdi3+0x468>
   140ec:	e1a00003 	mov	r0, r3
   140f0:	e0699001 	rsb	r9, r9, r1
   140f4:	e180080b 	orr	r0, r0, fp, lsl #16
   140f8:	e1a01820 	lsr	r1, r0, #16
   140fc:	e1a03827 	lsr	r3, r7, #16
   14100:	e1c0c801 	bic	ip, r0, r1, lsl #16
   14104:	e1c77803 	bic	r7, r7, r3, lsl #16
   14108:	e002079c 	mul	r2, ip, r7
   1410c:	e0070791 	mul	r7, r1, r7
   14110:	e00c0c93 	mul	ip, r3, ip
   14114:	e0030391 	mul	r3, r1, r3
   14118:	e097c00c 	adds	ip, r7, ip
   1411c:	22833801 	addcs	r3, r3, #65536	; 0x10000
   14120:	e092280c 	adds	r2, r2, ip, lsl #16
   14124:	e0a3382c 	adc	r3, r3, ip, lsr #16
   14128:	e1590003 	cmp	r9, r3
   1412c:	3a000006 	bcc	1414c <__udivdi3+0x364>
   14130:	13a03000 	movne	r3, #0
   14134:	03a03001 	moveq	r3, #1
   14138:	e1520416 	cmp	r2, r6, lsl r4
   1413c:	93a06000 	movls	r6, #0
   14140:	82036001 	andhi	r6, r3, #1
   14144:	e3560000 	cmp	r6, #0
   14148:	0affff68 	beq	13ef0 <__udivdi3+0x108>
   1414c:	e2400001 	sub	r0, r0, #1
   14150:	e3a06000 	mov	r6, #0
   14154:	eaffff65 	b	13ef0 <__udivdi3+0x108>
   14158:	e2637020 	rsb	r7, r3, #32
   1415c:	e1a04314 	lsl	r4, r4, r3
   14160:	e1a0b736 	lsr	fp, r6, r7
   14164:	e1a07735 	lsr	r7, r5, r7
   14168:	e1a0a824 	lsr	sl, r4, #16
   1416c:	e1a00007 	mov	r0, r7
   14170:	e1a0100a 	mov	r1, sl
   14174:	e18bb315 	orr	fp, fp, r5, lsl r3
   14178:	e1a08316 	lsl	r8, r6, r3
   1417c:	ebfffd50 	bl	136c4 <__aeabi_uidivmod>
   14180:	e1a00007 	mov	r0, r7
   14184:	e1a05001 	mov	r5, r1
   14188:	e1a0100a 	mov	r1, sl
   1418c:	ebfffd0f 	bl	135d0 <__aeabi_uidiv>
   14190:	e1a09804 	lsl	r9, r4, #16
   14194:	e1a09829 	lsr	r9, r9, #16
   14198:	e1a06000 	mov	r6, r0
   1419c:	e0000699 	mul	r0, r9, r6
   141a0:	e1a0182b 	lsr	r1, fp, #16
   141a4:	e1811805 	orr	r1, r1, r5, lsl #16
   141a8:	e1500001 	cmp	r0, r1
   141ac:	9a000006 	bls	141cc <__udivdi3+0x3e4>
   141b0:	e0911004 	adds	r1, r1, r4
   141b4:	e2463001 	sub	r3, r6, #1
   141b8:	2a00002e 	bcs	14278 <__udivdi3+0x490>
   141bc:	e1500001 	cmp	r0, r1
   141c0:	82466002 	subhi	r6, r6, #2
   141c4:	80811004 	addhi	r1, r1, r4
   141c8:	9a00002a 	bls	14278 <__udivdi3+0x490>
   141cc:	e0607001 	rsb	r7, r0, r1
   141d0:	e1a00007 	mov	r0, r7
   141d4:	e1a0100a 	mov	r1, sl
   141d8:	ebfffd39 	bl	136c4 <__aeabi_uidivmod>
   141dc:	e1a00007 	mov	r0, r7
   141e0:	e1a03001 	mov	r3, r1
   141e4:	e1a0100a 	mov	r1, sl
   141e8:	e58d3004 	str	r3, [sp, #4]
   141ec:	ebfffcf7 	bl	135d0 <__aeabi_uidiv>
   141f0:	e0050099 	mul	r5, r9, r0
   141f4:	e1a0180b 	lsl	r1, fp, #16
   141f8:	e59d3004 	ldr	r3, [sp, #4]
   141fc:	e1a01821 	lsr	r1, r1, #16
   14200:	e1811803 	orr	r1, r1, r3, lsl #16
   14204:	e1550001 	cmp	r5, r1
   14208:	9a000007 	bls	1422c <__udivdi3+0x444>
   1420c:	e0911004 	adds	r1, r1, r4
   14210:	e2403001 	sub	r3, r0, #1
   14214:	2a000003 	bcs	14228 <__udivdi3+0x440>
   14218:	e1550001 	cmp	r5, r1
   1421c:	82400002 	subhi	r0, r0, #2
   14220:	80811004 	addhi	r1, r1, r4
   14224:	8a000000 	bhi	1422c <__udivdi3+0x444>
   14228:	e1a00003 	mov	r0, r3
   1422c:	e0655001 	rsb	r5, r5, r1
   14230:	e1806806 	orr	r6, r0, r6, lsl #16
   14234:	eaffff50 	b	13f7c <__udivdi3+0x194>
   14238:	e1a00002 	mov	r0, r2
   1423c:	eaffff29 	b	13ee8 <__udivdi3+0x100>
   14240:	e1a05003 	mov	r5, r3
   14244:	eaffff60 	b	13fcc <__udivdi3+0x1e4>
   14248:	e1a00002 	mov	r0, r2
   1424c:	eaffff72 	b	1401c <__udivdi3+0x234>
   14250:	e1590001 	cmp	r9, r1
   14254:	82400002 	subhi	r0, r0, #2
   14258:	8081100a 	addhi	r1, r1, sl
   1425c:	8affffa3 	bhi	140f0 <__udivdi3+0x308>
   14260:	eaffffa1 	b	140ec <__udivdi3+0x304>
   14264:	e1500003 	cmp	r0, r3
   14268:	824bb002 	subhi	fp, fp, #2
   1426c:	8083300a 	addhi	r3, r3, sl
   14270:	8affff88 	bhi	14098 <__udivdi3+0x2b0>
   14274:	eaffff86 	b	14094 <__udivdi3+0x2ac>
   14278:	e1a06003 	mov	r6, r3
   1427c:	eaffffd2 	b	141cc <__udivdi3+0x3e4>

00014280 <selfrel_offset31>:
   14280:	e5903000 	ldr	r3, [r0]
   14284:	e3130101 	tst	r3, #1073741824	; 0x40000000
   14288:	13833102 	orrne	r3, r3, #-2147483648	; 0x80000000
   1428c:	03c33102 	biceq	r3, r3, #-2147483648	; 0x80000000
   14290:	e0800003 	add	r0, r0, r3
   14294:	e12fff1e 	bx	lr

00014298 <search_EIT_table>:
   14298:	e92d4ff0 	push	{r4, r5, r6, r7, r8, r9, sl, fp, lr}
   1429c:	e3510000 	cmp	r1, #0
   142a0:	e24dd00c 	sub	sp, sp, #12
   142a4:	e1a06000 	mov	r6, r0
   142a8:	e1a0a002 	mov	sl, r2
   142ac:	0a00001b 	beq	14320 <search_EIT_table+0x88>
   142b0:	e2411001 	sub	r1, r1, #1
   142b4:	e58d1004 	str	r1, [sp, #4]
   142b8:	e1a08001 	mov	r8, r1
   142bc:	e3a07000 	mov	r7, #0
   142c0:	e0874008 	add	r4, r7, r8
   142c4:	e0844fa4 	add	r4, r4, r4, lsr #31
   142c8:	e1a040c4 	asr	r4, r4, #1
   142cc:	e086b184 	add	fp, r6, r4, lsl #3
   142d0:	e1a0000b 	mov	r0, fp
   142d4:	ebffffe9 	bl	14280 <selfrel_offset31>
   142d8:	e59d3004 	ldr	r3, [sp, #4]
   142dc:	e2845001 	add	r5, r4, #1
   142e0:	e1530004 	cmp	r3, r4
   142e4:	e1a09000 	mov	r9, r0
   142e8:	e0860185 	add	r0, r6, r5, lsl #3
   142ec:	0a000012 	beq	1433c <search_EIT_table+0xa4>
   142f0:	ebffffe2 	bl	14280 <selfrel_offset31>
   142f4:	e159000a 	cmp	r9, sl
   142f8:	e2400001 	sub	r0, r0, #1
   142fc:	9a000003 	bls	14310 <search_EIT_table+0x78>
   14300:	e1540007 	cmp	r4, r7
   14304:	0a00000a 	beq	14334 <search_EIT_table+0x9c>
   14308:	e2448001 	sub	r8, r4, #1
   1430c:	eaffffeb 	b	142c0 <search_EIT_table+0x28>
   14310:	e150000a 	cmp	r0, sl
   14314:	2a000002 	bcs	14324 <search_EIT_table+0x8c>
   14318:	e1a07005 	mov	r7, r5
   1431c:	eaffffe7 	b	142c0 <search_EIT_table+0x28>
   14320:	e1a0b001 	mov	fp, r1
   14324:	e1a0000b 	mov	r0, fp
   14328:	e28dd00c 	add	sp, sp, #12
   1432c:	e8bd4ff0 	pop	{r4, r5, r6, r7, r8, r9, sl, fp, lr}
   14330:	e12fff1e 	bx	lr
   14334:	e3a0b000 	mov	fp, #0
   14338:	eafffff9 	b	14324 <search_EIT_table+0x8c>
   1433c:	e159000a 	cmp	r9, sl
   14340:	8affffee 	bhi	14300 <search_EIT_table+0x68>
   14344:	eafffff6 	b	14324 <search_EIT_table+0x8c>

00014348 <__gnu_unwind_get_pr_addr>:
   14348:	e3500001 	cmp	r0, #1
   1434c:	0a000006 	beq	1436c <__gnu_unwind_get_pr_addr+0x24>
   14350:	e3500002 	cmp	r0, #2
   14354:	0a000006 	beq	14374 <__gnu_unwind_get_pr_addr+0x2c>
   14358:	e59f301c 	ldr	r3, [pc, #28]	; 1437c <__gnu_unwind_get_pr_addr+0x34>
   1435c:	e3500000 	cmp	r0, #0
   14360:	01a00003 	moveq	r0, r3
   14364:	13a00000 	movne	r0, #0
   14368:	e12fff1e 	bx	lr
   1436c:	e59f000c 	ldr	r0, [pc, #12]	; 14380 <__gnu_unwind_get_pr_addr+0x38>
   14370:	e12fff1e 	bx	lr
   14374:	e59f0008 	ldr	r0, [pc, #8]	; 14384 <__gnu_unwind_get_pr_addr+0x3c>
   14378:	e12fff1e 	bx	lr
   1437c:	00014dc8 	.word	0x00014dc8
   14380:	00014dc0 	.word	0x00014dc0
   14384:	00014db8 	.word	0x00014db8

00014388 <restore_non_core_regs>:
   14388:	e5903000 	ldr	r3, [r0]
   1438c:	e3130001 	tst	r3, #1
   14390:	e92d4010 	push	{r4, lr}
   14394:	e1a04000 	mov	r4, r0
   14398:	1a000004 	bne	143b0 <restore_non_core_regs+0x28>
   1439c:	e3130002 	tst	r3, #2
   143a0:	e2800048 	add	r0, r0, #72	; 0x48
   143a4:	0a00000a 	beq	143d4 <restore_non_core_regs+0x4c>
   143a8:	eb0003ab 	bl	1525c <__gnu_Unwind_Restore_VFP_D>
   143ac:	e5943000 	ldr	r3, [r4]
   143b0:	e3130004 	tst	r3, #4
   143b4:	0a00000a 	beq	143e4 <restore_non_core_regs+0x5c>
   143b8:	e3130008 	tst	r3, #8
   143bc:	0a00000d 	beq	143f8 <restore_non_core_regs+0x70>
   143c0:	e3130010 	tst	r3, #16
   143c4:	02840e23 	addeq	r0, r4, #560	; 0x230
   143c8:	0b0003cd 	bleq	15304 <__gnu_Unwind_Restore_WMMXC>
   143cc:	e8bd4010 	pop	{r4, lr}
   143d0:	e12fff1e 	bx	lr
   143d4:	eb00039c 	bl	1524c <__gnu_Unwind_Restore_VFP>
   143d8:	e5943000 	ldr	r3, [r4]
   143dc:	e3130004 	tst	r3, #4
   143e0:	1afffff4 	bne	143b8 <restore_non_core_regs+0x30>
   143e4:	e28400d0 	add	r0, r4, #208	; 0xd0
   143e8:	eb00039f 	bl	1526c <__gnu_Unwind_Restore_VFP_D_16_to_31>
   143ec:	e5943000 	ldr	r3, [r4]
   143f0:	e3130008 	tst	r3, #8
   143f4:	1afffff1 	bne	143c0 <restore_non_core_regs+0x38>
   143f8:	e2840e1b 	add	r0, r4, #432	; 0x1b0
   143fc:	eb00039e 	bl	1527c <__gnu_Unwind_Restore_WMMXD>
   14400:	e5943000 	ldr	r3, [r4]
   14404:	eaffffed 	b	143c0 <restore_non_core_regs+0x38>

00014408 <get_eit_entry>:
   14408:	e92d4030 	push	{r4, r5, lr}
   1440c:	e59f30f4 	ldr	r3, [pc, #244]	; 14508 <get_eit_entry+0x100>
   14410:	e3530000 	cmp	r3, #0
   14414:	e24dd00c 	sub	sp, sp, #12
   14418:	e1a04000 	mov	r4, r0
   1441c:	e2415002 	sub	r5, r1, #2
   14420:	0a000032 	beq	144f0 <get_eit_entry+0xe8>
   14424:	e1a00005 	mov	r0, r5
   14428:	e28d1004 	add	r1, sp, #4
   1442c:	e1a00000 	nop			; (mov r0, r0)
   14430:	e1a03000 	mov	r3, r0
   14434:	e3500000 	cmp	r0, #0
   14438:	05843010 	streq	r3, [r4, #16]
   1443c:	03a00009 	moveq	r0, #9
   14440:	0a00001b 	beq	144b4 <get_eit_entry+0xac>
   14444:	e1a02005 	mov	r2, r5
   14448:	e59d1004 	ldr	r1, [sp, #4]
   1444c:	ebffff91 	bl	14298 <search_EIT_table>
   14450:	e2505000 	subs	r5, r0, #0
   14454:	05845010 	streq	r5, [r4, #16]
   14458:	03a00009 	moveq	r0, #9
   1445c:	0a000014 	beq	144b4 <get_eit_entry+0xac>
   14460:	ebffff86 	bl	14280 <selfrel_offset31>
   14464:	e5953004 	ldr	r3, [r5, #4]
   14468:	e3530001 	cmp	r3, #1
   1446c:	e5840048 	str	r0, [r4, #72]	; 0x48
   14470:	0a000012 	beq	144c0 <get_eit_entry+0xb8>
   14474:	e3530000 	cmp	r3, #0
   14478:	e2850004 	add	r0, r5, #4
   1447c:	b3a03001 	movlt	r3, #1
   14480:	b584004c 	strlt	r0, [r4, #76]	; 0x4c
   14484:	b5843050 	strlt	r3, [r4, #80]	; 0x50
   14488:	ba000003 	blt	1449c <get_eit_entry+0x94>
   1448c:	ebffff7b 	bl	14280 <selfrel_offset31>
   14490:	e3a03000 	mov	r3, #0
   14494:	e584004c 	str	r0, [r4, #76]	; 0x4c
   14498:	e5843050 	str	r3, [r4, #80]	; 0x50
   1449c:	e5903000 	ldr	r3, [r0]
   144a0:	e3530000 	cmp	r3, #0
   144a4:	ba000009 	blt	144d0 <get_eit_entry+0xc8>
   144a8:	ebffff74 	bl	14280 <selfrel_offset31>
   144ac:	e5840010 	str	r0, [r4, #16]
   144b0:	e3a00000 	mov	r0, #0
   144b4:	e28dd00c 	add	sp, sp, #12
   144b8:	e8bd4030 	pop	{r4, r5, lr}
   144bc:	e12fff1e 	bx	lr
   144c0:	e3a03000 	mov	r3, #0
   144c4:	e5843010 	str	r3, [r4, #16]
   144c8:	e3a00005 	mov	r0, #5
   144cc:	eafffff8 	b	144b4 <get_eit_entry+0xac>
   144d0:	e1a00c23 	lsr	r0, r3, #24
   144d4:	e200000f 	and	r0, r0, #15
   144d8:	ebffff9a 	bl	14348 <__gnu_unwind_get_pr_addr>
   144dc:	e3500000 	cmp	r0, #0
   144e0:	e5840010 	str	r0, [r4, #16]
   144e4:	03a00009 	moveq	r0, #9
   144e8:	13a00000 	movne	r0, #0
   144ec:	eafffff0 	b	144b4 <get_eit_entry+0xac>
   144f0:	e59f0014 	ldr	r0, [pc, #20]	; 1450c <get_eit_entry+0x104>
   144f4:	e59f3014 	ldr	r3, [pc, #20]	; 14510 <get_eit_entry+0x108>
   144f8:	e0603003 	rsb	r3, r0, r3
   144fc:	e1a031c3 	asr	r3, r3, #3
   14500:	e58d3004 	str	r3, [sp, #4]
   14504:	eaffffce 	b	14444 <get_eit_entry+0x3c>
   14508:	00000000 	.word	0x00000000
   1450c:	0001a6d0 	.word	0x0001a6d0
   14510:	0001a7a0 	.word	0x0001a7a0

00014514 <_Unwind_decode_typeinfo_ptr.isra.0>:
   14514:	e5903000 	ldr	r3, [r0]
   14518:	e3530000 	cmp	r3, #0
   1451c:	10833000 	addne	r3, r3, r0
   14520:	e1a00003 	mov	r0, r3
   14524:	e12fff1e 	bx	lr

00014528 <__gnu_unwind_24bit.isra.1>:
   14528:	e3a00009 	mov	r0, #9
   1452c:	e12fff1e 	bx	lr

00014530 <_Unwind_DebugHook>:
   14530:	e12fff1e 	bx	lr

00014534 <unwind_phase2_forced>:
   14534:	e92d47f0 	push	{r4, r5, r6, r7, r8, r9, sl, lr}
   14538:	e281e004 	add	lr, r1, #4
   1453c:	e24ddd12 	sub	sp, sp, #1152	; 0x480
   14540:	e24dd008 	sub	sp, sp, #8
   14544:	e1a05000 	mov	r5, r0
   14548:	e1a06002 	mov	r6, r2
   1454c:	e8be000f 	ldm	lr!, {r0, r1, r2, r3}
   14550:	e28dc00c 	add	ip, sp, #12
   14554:	e8ac000f 	stmia	ip!, {r0, r1, r2, r3}
   14558:	e8be000f 	ldm	lr!, {r0, r1, r2, r3}
   1455c:	e8ac000f 	stmia	ip!, {r0, r1, r2, r3}
   14560:	e8be000f 	ldm	lr!, {r0, r1, r2, r3}
   14564:	e8ac000f 	stmia	ip!, {r0, r1, r2, r3}
   14568:	e89e000f 	ldm	lr, {r0, r1, r2, r3}
   1456c:	e595800c 	ldr	r8, [r5, #12]
   14570:	e595a018 	ldr	sl, [r5, #24]
   14574:	e88c000f 	stm	ip, {r0, r1, r2, r3}
   14578:	e3a03000 	mov	r3, #0
   1457c:	e1a00005 	mov	r0, r5
   14580:	e59d1048 	ldr	r1, [sp, #72]	; 0x48
   14584:	e58d3008 	str	r3, [sp, #8]
   14588:	ebffff9e 	bl	14408 <get_eit_entry>
   1458c:	e3560000 	cmp	r6, #0
   14590:	e1a04000 	mov	r4, r0
   14594:	03a07009 	moveq	r7, #9
   14598:	13a0700a 	movne	r7, #10
   1459c:	e28d6008 	add	r6, sp, #8
   145a0:	e3540000 	cmp	r4, #0
   145a4:	0a00000f 	beq	145e8 <unwind_phase2_forced+0xb4>
   145a8:	e59d3040 	ldr	r3, [sp, #64]	; 0x40
   145ac:	e1a02005 	mov	r2, r5
   145b0:	e58d304c 	str	r3, [sp, #76]	; 0x4c
   145b4:	e88d0440 	stm	sp, {r6, sl}
   145b8:	e3a00001 	mov	r0, #1
   145bc:	e3871010 	orr	r1, r7, #16
   145c0:	e1a03005 	mov	r3, r5
   145c4:	e1a0e00f 	mov	lr, pc
   145c8:	e12fff18 	bx	r8
   145cc:	e3500000 	cmp	r0, #0
   145d0:	13a04009 	movne	r4, #9
   145d4:	e1a00004 	mov	r0, r4
   145d8:	e28dd088 	add	sp, sp, #136	; 0x88
   145dc:	e28ddb01 	add	sp, sp, #1024	; 0x400
   145e0:	e8bd47f0 	pop	{r4, r5, r6, r7, r8, r9, sl, lr}
   145e4:	e12fff1e 	bx	lr
   145e8:	e59d3048 	ldr	r3, [sp, #72]	; 0x48
   145ec:	e1a01006 	mov	r1, r6
   145f0:	e5853014 	str	r3, [r5, #20]
   145f4:	e3a02d09 	mov	r2, #576	; 0x240
   145f8:	e28d0f92 	add	r0, sp, #584	; 0x248
   145fc:	ebffee22 	bl	fe8c <memcpy>
   14600:	e1a01005 	mov	r1, r5
   14604:	e28d2f92 	add	r2, sp, #584	; 0x248
   14608:	e1a00007 	mov	r0, r7
   1460c:	e595c010 	ldr	ip, [r5, #16]
   14610:	e1a0e00f 	mov	lr, pc
   14614:	e12fff1c 	bx	ip
   14618:	e59d3280 	ldr	r3, [sp, #640]	; 0x280
   1461c:	e1a09000 	mov	r9, r0
   14620:	e58d304c 	str	r3, [sp, #76]	; 0x4c
   14624:	e58d6000 	str	r6, [sp]
   14628:	e58da004 	str	sl, [sp, #4]
   1462c:	e3a00001 	mov	r0, #1
   14630:	e1a01007 	mov	r1, r7
   14634:	e1a02005 	mov	r2, r5
   14638:	e1a03005 	mov	r3, r5
   1463c:	e1a0e00f 	mov	lr, pc
   14640:	e12fff18 	bx	r8
   14644:	e3500000 	cmp	r0, #0
   14648:	1a00000d 	bne	14684 <unwind_phase2_forced+0x150>
   1464c:	e1a00006 	mov	r0, r6
   14650:	e28d1f92 	add	r1, sp, #584	; 0x248
   14654:	e3a02d09 	mov	r2, #576	; 0x240
   14658:	ebffee0b 	bl	fe8c <memcpy>
   1465c:	e3590008 	cmp	r9, #8
   14660:	1a000005 	bne	1467c <unwind_phase2_forced+0x148>
   14664:	e1a00005 	mov	r0, r5
   14668:	e59d1048 	ldr	r1, [sp, #72]	; 0x48
   1466c:	ebffff65 	bl	14408 <get_eit_entry>
   14670:	e3a07009 	mov	r7, #9
   14674:	e1a04000 	mov	r4, r0
   14678:	eaffffc8 	b	145a0 <unwind_phase2_forced+0x6c>
   1467c:	e3590007 	cmp	r9, #7
   14680:	0a000001 	beq	1468c <unwind_phase2_forced+0x158>
   14684:	e3a04009 	mov	r4, #9
   14688:	eaffffd1 	b	145d4 <unwind_phase2_forced+0xa0>
   1468c:	e1a00004 	mov	r0, r4
   14690:	e59d1048 	ldr	r1, [sp, #72]	; 0x48
   14694:	ebffffa5 	bl	14530 <_Unwind_DebugHook>
   14698:	e2860004 	add	r0, r6, #4
   1469c:	eb0002e3 	bl	15230 <__restore_core_regs>

000146a0 <unwind_phase2>:
   146a0:	e92d4070 	push	{r4, r5, r6, lr}
   146a4:	e1a04000 	mov	r4, r0
   146a8:	e1a05001 	mov	r5, r1
   146ac:	e1a00004 	mov	r0, r4
   146b0:	e5951040 	ldr	r1, [r5, #64]	; 0x40
   146b4:	ebffff53 	bl	14408 <get_eit_entry>
   146b8:	e2506000 	subs	r6, r0, #0
   146bc:	1a00000b 	bne	146f0 <unwind_phase2+0x50>
   146c0:	e5953040 	ldr	r3, [r5, #64]	; 0x40
   146c4:	e3a00001 	mov	r0, #1
   146c8:	e5843014 	str	r3, [r4, #20]
   146cc:	e1a01004 	mov	r1, r4
   146d0:	e1a02005 	mov	r2, r5
   146d4:	e594c010 	ldr	ip, [r4, #16]
   146d8:	e1a0e00f 	mov	lr, pc
   146dc:	e12fff1c 	bx	ip
   146e0:	e3500008 	cmp	r0, #8
   146e4:	0afffff0 	beq	146ac <unwind_phase2+0xc>
   146e8:	e3500007 	cmp	r0, #7
   146ec:	0a000000 	beq	146f4 <unwind_phase2+0x54>
   146f0:	ebffd365 	bl	948c <abort>
   146f4:	e1a00006 	mov	r0, r6
   146f8:	e5951040 	ldr	r1, [r5, #64]	; 0x40
   146fc:	ebffff8b 	bl	14530 <_Unwind_DebugHook>
   14700:	e2850004 	add	r0, r5, #4
   14704:	eb0002c9 	bl	15230 <__restore_core_regs>

00014708 <_Unwind_GetCFA>:
   14708:	e5900044 	ldr	r0, [r0, #68]	; 0x44
   1470c:	e12fff1e 	bx	lr

00014710 <__gnu_Unwind_RaiseException>:
   14710:	e92d40f0 	push	{r4, r5, r6, r7, lr}
   14714:	e591303c 	ldr	r3, [r1, #60]	; 0x3c
   14718:	e5813040 	str	r3, [r1, #64]	; 0x40
   1471c:	e281e004 	add	lr, r1, #4
   14720:	e24ddf91 	sub	sp, sp, #580	; 0x244
   14724:	e1a07001 	mov	r7, r1
   14728:	e1a04000 	mov	r4, r0
   1472c:	e8be000f 	ldm	lr!, {r0, r1, r2, r3}
   14730:	e28dc004 	add	ip, sp, #4
   14734:	e8ac000f 	stmia	ip!, {r0, r1, r2, r3}
   14738:	e8be000f 	ldm	lr!, {r0, r1, r2, r3}
   1473c:	e8ac000f 	stmia	ip!, {r0, r1, r2, r3}
   14740:	e8be000f 	ldm	lr!, {r0, r1, r2, r3}
   14744:	e8ac000f 	stmia	ip!, {r0, r1, r2, r3}
   14748:	e89e000f 	ldm	lr, {r0, r1, r2, r3}
   1474c:	e28d6d09 	add	r6, sp, #576	; 0x240
   14750:	e88c000f 	stm	ip, {r0, r1, r2, r3}
   14754:	e3e03000 	mvn	r3, #0
   14758:	e5263240 	str	r3, [r6, #-576]!	; 0x240
   1475c:	e1a00004 	mov	r0, r4
   14760:	e59d1040 	ldr	r1, [sp, #64]	; 0x40
   14764:	ebffff27 	bl	14408 <get_eit_entry>
   14768:	e3500000 	cmp	r0, #0
   1476c:	1a00000b 	bne	147a0 <__gnu_Unwind_RaiseException+0x90>
   14770:	e1a01004 	mov	r1, r4
   14774:	e1a0200d 	mov	r2, sp
   14778:	e594c010 	ldr	ip, [r4, #16]
   1477c:	e1a0e00f 	mov	lr, pc
   14780:	e12fff1c 	bx	ip
   14784:	e3500008 	cmp	r0, #8
   14788:	e1a05000 	mov	r5, r0
   1478c:	0afffff2 	beq	1475c <__gnu_Unwind_RaiseException+0x4c>
   14790:	e1a0000d 	mov	r0, sp
   14794:	ebfffefb 	bl	14388 <restore_non_core_regs>
   14798:	e3550006 	cmp	r5, #6
   1479c:	0a000003 	beq	147b0 <__gnu_Unwind_RaiseException+0xa0>
   147a0:	e3a00009 	mov	r0, #9
   147a4:	e28ddf91 	add	sp, sp, #580	; 0x244
   147a8:	e8bd40f0 	pop	{r4, r5, r6, r7, lr}
   147ac:	e12fff1e 	bx	lr
   147b0:	e1a00004 	mov	r0, r4
   147b4:	e1a01007 	mov	r1, r7
   147b8:	ebffffb8 	bl	146a0 <unwind_phase2>

000147bc <__gnu_Unwind_ForcedUnwind>:
   147bc:	e52d4004 	push	{r4}		; (str r4, [sp, #-4]!)
   147c0:	e593403c 	ldr	r4, [r3, #60]	; 0x3c
   147c4:	e580100c 	str	r1, [r0, #12]
   147c8:	e5802018 	str	r2, [r0, #24]
   147cc:	e1a01003 	mov	r1, r3
   147d0:	e3a02000 	mov	r2, #0
   147d4:	e5834040 	str	r4, [r3, #64]	; 0x40
   147d8:	e8bd0010 	ldmfd	sp!, {r4}
   147dc:	eaffff54 	b	14534 <unwind_phase2_forced>

000147e0 <__gnu_Unwind_Resume>:
   147e0:	e92d4070 	push	{r4, r5, r6, lr}
   147e4:	e590600c 	ldr	r6, [r0, #12]
   147e8:	e5903014 	ldr	r3, [r0, #20]
   147ec:	e3560000 	cmp	r6, #0
   147f0:	e1a04000 	mov	r4, r0
   147f4:	e1a05001 	mov	r5, r1
   147f8:	e5813040 	str	r3, [r1, #64]	; 0x40
   147fc:	0a000002 	beq	1480c <__gnu_Unwind_Resume+0x2c>
   14800:	e3a02001 	mov	r2, #1
   14804:	ebffff4a 	bl	14534 <unwind_phase2_forced>
   14808:	ebffd31f 	bl	948c <abort>
   1480c:	e3a00002 	mov	r0, #2
   14810:	e1a01004 	mov	r1, r4
   14814:	e1a02005 	mov	r2, r5
   14818:	e594c010 	ldr	ip, [r4, #16]
   1481c:	e1a0e00f 	mov	lr, pc
   14820:	e12fff1c 	bx	ip
   14824:	e3500007 	cmp	r0, #7
   14828:	0a000002 	beq	14838 <__gnu_Unwind_Resume+0x58>
   1482c:	e3500008 	cmp	r0, #8
   14830:	0a000005 	beq	1484c <__gnu_Unwind_Resume+0x6c>
   14834:	ebffd314 	bl	948c <abort>
   14838:	e1a00006 	mov	r0, r6
   1483c:	e5951040 	ldr	r1, [r5, #64]	; 0x40
   14840:	ebffff3a 	bl	14530 <_Unwind_DebugHook>
   14844:	e2850004 	add	r0, r5, #4
   14848:	eb000278 	bl	15230 <__restore_core_regs>
   1484c:	e1a00004 	mov	r0, r4
   14850:	e1a01005 	mov	r1, r5
   14854:	ebffff91 	bl	146a0 <unwind_phase2>

00014858 <__gnu_Unwind_Resume_or_Rethrow>:
   14858:	e590300c 	ldr	r3, [r0, #12]
   1485c:	e3530000 	cmp	r3, #0
   14860:	0a000003 	beq	14874 <__gnu_Unwind_Resume_or_Rethrow+0x1c>
   14864:	e591c03c 	ldr	ip, [r1, #60]	; 0x3c
   14868:	e3a02000 	mov	r2, #0
   1486c:	e581c040 	str	ip, [r1, #64]	; 0x40
   14870:	eaffff2f 	b	14534 <unwind_phase2_forced>
   14874:	eaffffa5 	b	14710 <__gnu_Unwind_RaiseException>

00014878 <_Unwind_Complete>:
   14878:	e12fff1e 	bx	lr

0001487c <_Unwind_DeleteException>:
   1487c:	e92d4008 	push	{r3, lr}
   14880:	e5903008 	ldr	r3, [r0, #8]
   14884:	e3530000 	cmp	r3, #0
   14888:	e1a01000 	mov	r1, r0
   1488c:	13a00001 	movne	r0, #1
   14890:	11a0e00f 	movne	lr, pc
   14894:	112fff13 	bxne	r3
   14898:	e8bd4008 	pop	{r3, lr}
   1489c:	e12fff1e 	bx	lr

000148a0 <_Unwind_VRS_Get>:
   148a0:	e3510000 	cmp	r1, #0
   148a4:	1a00000a 	bne	148d4 <_Unwind_VRS_Get+0x34>
   148a8:	e352000f 	cmp	r2, #15
   148ac:	93530000 	cmpls	r3, #0
   148b0:	03a03000 	moveq	r3, #0
   148b4:	13a03001 	movne	r3, #1
   148b8:	00802102 	addeq	r2, r0, r2, lsl #2
   148bc:	05922004 	ldreq	r2, [r2, #4]
   148c0:	01a00003 	moveq	r0, r3
   148c4:	059d3000 	ldreq	r3, [sp]
   148c8:	05832000 	streq	r2, [r3]
   148cc:	13a00002 	movne	r0, #2
   148d0:	e12fff1e 	bx	lr
   148d4:	e3510004 	cmp	r1, #4
   148d8:	83a00002 	movhi	r0, #2
   148dc:	93a00001 	movls	r0, #1
   148e0:	e12fff1e 	bx	lr

000148e4 <_Unwind_GetGR>:
   148e4:	e52de004 	push	{lr}		; (str lr, [sp, #-4]!)
   148e8:	e24dd014 	sub	sp, sp, #20
   148ec:	e1a02001 	mov	r2, r1
   148f0:	e28d300c 	add	r3, sp, #12
   148f4:	e3a01000 	mov	r1, #0
   148f8:	e58d3000 	str	r3, [sp]
   148fc:	e1a03001 	mov	r3, r1
   14900:	ebffffe6 	bl	148a0 <_Unwind_VRS_Get>
   14904:	e59d000c 	ldr	r0, [sp, #12]
   14908:	e28dd014 	add	sp, sp, #20
   1490c:	e49de004 	pop	{lr}		; (ldr lr, [sp], #4)
   14910:	e12fff1e 	bx	lr

00014914 <_Unwind_VRS_Set>:
   14914:	e3510000 	cmp	r1, #0
   14918:	1a00000a 	bne	14948 <_Unwind_VRS_Set+0x34>
   1491c:	e352000f 	cmp	r2, #15
   14920:	93530000 	cmpls	r3, #0
   14924:	059d1000 	ldreq	r1, [sp]
   14928:	05911000 	ldreq	r1, [r1]
   1492c:	00802102 	addeq	r2, r0, r2, lsl #2
   14930:	03a03000 	moveq	r3, #0
   14934:	13a03001 	movne	r3, #1
   14938:	01a00003 	moveq	r0, r3
   1493c:	05821004 	streq	r1, [r2, #4]
   14940:	13a00002 	movne	r0, #2
   14944:	e12fff1e 	bx	lr
   14948:	e3510004 	cmp	r1, #4
   1494c:	83a00002 	movhi	r0, #2
   14950:	93a00001 	movls	r0, #1
   14954:	e12fff1e 	bx	lr

00014958 <_Unwind_SetGR>:
   14958:	e52de004 	push	{lr}		; (str lr, [sp, #-4]!)
   1495c:	e24dd014 	sub	sp, sp, #20
   14960:	e28d3010 	add	r3, sp, #16
   14964:	e5232004 	str	r2, [r3, #-4]!
   14968:	e1a02001 	mov	r2, r1
   1496c:	e3a01000 	mov	r1, #0
   14970:	e58d3000 	str	r3, [sp]
   14974:	e1a03001 	mov	r3, r1
   14978:	ebffffe5 	bl	14914 <_Unwind_VRS_Set>
   1497c:	e28dd014 	add	sp, sp, #20
   14980:	e49de004 	pop	{lr}		; (ldr lr, [sp], #4)
   14984:	e12fff1e 	bx	lr

00014988 <__gnu_unwind_pr_common>:
   14988:	e92d4ff0 	push	{r4, r5, r6, r7, r8, r9, sl, fp, lr}
   1498c:	e591504c 	ldr	r5, [r1, #76]	; 0x4c
   14990:	e1a04001 	mov	r4, r1
   14994:	e4951004 	ldr	r1, [r5], #4
   14998:	e24dd024 	sub	sp, sp, #36	; 0x24
   1499c:	e2536000 	subs	r6, r3, #0
   149a0:	e58d0000 	str	r0, [sp]
   149a4:	e1a07002 	mov	r7, r2
   149a8:	e2008003 	and	r8, r0, #3
   149ac:	e58d1014 	str	r1, [sp, #20]
   149b0:	e58d5018 	str	r5, [sp, #24]
   149b4:	1a000014 	bne	14a0c <__gnu_unwind_pr_common+0x84>
   149b8:	e1a01401 	lsl	r1, r1, #8
   149bc:	e3a03003 	mov	r3, #3
   149c0:	e58d1014 	str	r1, [sp, #20]
   149c4:	e5cd601d 	strb	r6, [sp, #29]
   149c8:	e5cd301c 	strb	r3, [sp, #28]
   149cc:	e5943050 	ldr	r3, [r4, #80]	; 0x50
   149d0:	e3580002 	cmp	r8, #2
   149d4:	05945038 	ldreq	r5, [r4, #56]	; 0x38
   149d8:	e2133001 	ands	r3, r3, #1
   149dc:	13a02000 	movne	r2, #0
   149e0:	158d2004 	strne	r2, [sp, #4]
   149e4:	0a000013 	beq	14a38 <__gnu_unwind_pr_common+0xb0>
   149e8:	e3560002 	cmp	r6, #2
   149ec:	da00007f 	ble	14bf0 <__gnu_unwind_pr_common+0x268>
   149f0:	ebfffecc 	bl	14528 <__gnu_unwind_24bit.isra.1>
   149f4:	e3500000 	cmp	r0, #0
   149f8:	0a000081 	beq	14c04 <__gnu_unwind_pr_common+0x27c>
   149fc:	e3a00009 	mov	r0, #9
   14a00:	e28dd024 	add	sp, sp, #36	; 0x24
   14a04:	e8bd4ff0 	pop	{r4, r5, r6, r7, r8, r9, sl, fp, lr}
   14a08:	e12fff1e 	bx	lr
   14a0c:	e3560002 	cmp	r6, #2
   14a10:	caffffed 	bgt	149cc <__gnu_unwind_pr_common+0x44>
   14a14:	e1a03821 	lsr	r3, r1, #16
   14a18:	e20320ff 	and	r2, r3, #255	; 0xff
   14a1c:	e1a01801 	lsl	r1, r1, #16
   14a20:	e5cd301d 	strb	r3, [sp, #29]
   14a24:	e3a03002 	mov	r3, #2
   14a28:	e58d1014 	str	r1, [sp, #20]
   14a2c:	e5cd301c 	strb	r3, [sp, #28]
   14a30:	e0855102 	add	r5, r5, r2, lsl #2
   14a34:	eaffffe4 	b	149cc <__gnu_unwind_pr_common+0x44>
   14a38:	e2842058 	add	r2, r4, #88	; 0x58
   14a3c:	e58d3004 	str	r3, [sp, #4]
   14a40:	e58d2008 	str	r2, [sp, #8]
   14a44:	e595a000 	ldr	sl, [r5]
   14a48:	e35a0000 	cmp	sl, #0
   14a4c:	0affffe5 	beq	149e8 <__gnu_unwind_pr_common+0x60>
   14a50:	e3560002 	cmp	r6, #2
   14a54:	05959004 	ldreq	r9, [r5, #4]
   14a58:	11d590b2 	ldrhne	r9, [r5, #2]
   14a5c:	e5943048 	ldr	r3, [r4, #72]	; 0x48
   14a60:	e3c9b001 	bic	fp, r9, #1
   14a64:	e1a00007 	mov	r0, r7
   14a68:	e3a0100f 	mov	r1, #15
   14a6c:	11d5a0b0 	ldrhne	sl, [r5]
   14a70:	02855008 	addeq	r5, r5, #8
   14a74:	12855004 	addne	r5, r5, #4
   14a78:	e08bb003 	add	fp, fp, r3
   14a7c:	ebffff98 	bl	148e4 <_Unwind_GetGR>
   14a80:	e15b0000 	cmp	fp, r0
   14a84:	83a00000 	movhi	r0, #0
   14a88:	8a000004 	bhi	14aa0 <__gnu_unwind_pr_common+0x118>
   14a8c:	e3ca3001 	bic	r3, sl, #1
   14a90:	e08bb003 	add	fp, fp, r3
   14a94:	e150000b 	cmp	r0, fp
   14a98:	23a00000 	movcs	r0, #0
   14a9c:	33a00001 	movcc	r0, #1
   14aa0:	e2099001 	and	r9, r9, #1
   14aa4:	e20aa001 	and	sl, sl, #1
   14aa8:	e18aa089 	orr	sl, sl, r9, lsl #1
   14aac:	e35a0001 	cmp	sl, #1
   14ab0:	0a000037 	beq	14b94 <__gnu_unwind_pr_common+0x20c>
   14ab4:	2a000006 	bcs	14ad4 <__gnu_unwind_pr_common+0x14c>
   14ab8:	e3580000 	cmp	r8, #0
   14abc:	03a00000 	moveq	r0, #0
   14ac0:	12000001 	andne	r0, r0, #1
   14ac4:	e3500000 	cmp	r0, #0
   14ac8:	1a000092 	bne	14d18 <__gnu_unwind_pr_common+0x390>
   14acc:	e2855004 	add	r5, r5, #4
   14ad0:	eaffffdb 	b	14a44 <__gnu_unwind_pr_common+0xbc>
   14ad4:	e35a0002 	cmp	sl, #2
   14ad8:	1affffc7 	bne	149fc <__gnu_unwind_pr_common+0x74>
   14adc:	e5953000 	ldr	r3, [r5]
   14ae0:	e3580000 	cmp	r8, #0
   14ae4:	e3c39102 	bic	r9, r3, #-2147483648	; 0x80000000
   14ae8:	1a00006b 	bne	14c9c <__gnu_unwind_pr_common+0x314>
   14aec:	e3500000 	cmp	r0, #0
   14af0:	0a000022 	beq	14b80 <__gnu_unwind_pr_common+0x1f8>
   14af4:	e59d2000 	ldr	r2, [sp]
   14af8:	e3120008 	tst	r2, #8
   14afc:	13a02000 	movne	r2, #0
   14b00:	03a02001 	moveq	r2, #1
   14b04:	e3590000 	cmp	r9, #0
   14b08:	03822001 	orreq	r2, r2, #1
   14b0c:	e3520000 	cmp	r2, #0
   14b10:	0a00001a 	beq	14b80 <__gnu_unwind_pr_common+0x1f8>
   14b14:	e3590000 	cmp	r9, #0
   14b18:	0a00008d 	beq	14d54 <__gnu_unwind_pr_common+0x3cc>
   14b1c:	e285b004 	add	fp, r5, #4
   14b20:	e58d600c 	str	r6, [sp, #12]
   14b24:	e1a0a008 	mov	sl, r8
   14b28:	e1a0600b 	mov	r6, fp
   14b2c:	e59db008 	ldr	fp, [sp, #8]
   14b30:	ea000003 	b	14b44 <__gnu_unwind_pr_common+0x1bc>
   14b34:	e1530009 	cmp	r3, r9
   14b38:	e1a0a003 	mov	sl, r3
   14b3c:	e2866004 	add	r6, r6, #4
   14b40:	0a000083 	beq	14d54 <__gnu_unwind_pr_common+0x3cc>
   14b44:	e1a00006 	mov	r0, r6
   14b48:	e58db010 	str	fp, [sp, #16]
   14b4c:	ebfffe70 	bl	14514 <_Unwind_decode_typeinfo_ptr.isra.0>
   14b50:	e28d3010 	add	r3, sp, #16
   14b54:	e1a01000 	mov	r1, r0
   14b58:	e3a02000 	mov	r2, #0
   14b5c:	e1a00004 	mov	r0, r4
   14b60:	e1a00000 	nop			; (mov r0, r0)
   14b64:	e3500000 	cmp	r0, #0
   14b68:	e28a3001 	add	r3, sl, #1
   14b6c:	0afffff0 	beq	14b34 <__gnu_unwind_pr_common+0x1ac>
   14b70:	e159000a 	cmp	r9, sl
   14b74:	e59d600c 	ldr	r6, [sp, #12]
   14b78:	0a000075 	beq	14d54 <__gnu_unwind_pr_common+0x3cc>
   14b7c:	e5953000 	ldr	r3, [r5]
   14b80:	e3530000 	cmp	r3, #0
   14b84:	b2855004 	addlt	r5, r5, #4
   14b88:	e2899001 	add	r9, r9, #1
   14b8c:	e0855109 	add	r5, r5, r9, lsl #2
   14b90:	eaffffab 	b	14a44 <__gnu_unwind_pr_common+0xbc>
   14b94:	e3580000 	cmp	r8, #0
   14b98:	1a00002a 	bne	14c48 <__gnu_unwind_pr_common+0x2c0>
   14b9c:	e3500000 	cmp	r0, #0
   14ba0:	0a000010 	beq	14be8 <__gnu_unwind_pr_common+0x260>
   14ba4:	e5953004 	ldr	r3, [r5, #4]
   14ba8:	e3730002 	cmn	r3, #2
   14bac:	e595a000 	ldr	sl, [r5]
   14bb0:	0affff91 	beq	149fc <__gnu_unwind_pr_common+0x74>
   14bb4:	e3730001 	cmn	r3, #1
   14bb8:	e59d3008 	ldr	r3, [sp, #8]
   14bbc:	e58d3010 	str	r3, [sp, #16]
   14bc0:	0a00004b 	beq	14cf4 <__gnu_unwind_pr_common+0x36c>
   14bc4:	e2850004 	add	r0, r5, #4
   14bc8:	ebfffe51 	bl	14514 <_Unwind_decode_typeinfo_ptr.isra.0>
   14bcc:	e1a02faa 	lsr	r2, sl, #31
   14bd0:	e1a01000 	mov	r1, r0
   14bd4:	e28d3010 	add	r3, sp, #16
   14bd8:	e1a00004 	mov	r0, r4
   14bdc:	e1a00000 	nop			; (mov r0, r0)
   14be0:	e3500000 	cmp	r0, #0
   14be4:	1a000066 	bne	14d84 <__gnu_unwind_pr_common+0x3fc>
   14be8:	e2855008 	add	r5, r5, #8
   14bec:	eaffff94 	b	14a44 <__gnu_unwind_pr_common+0xbc>
   14bf0:	e1a00007 	mov	r0, r7
   14bf4:	e28d1014 	add	r1, sp, #20
   14bf8:	eb00021d 	bl	15474 <__gnu_unwind_execute>
   14bfc:	e3500000 	cmp	r0, #0
   14c00:	1affff7d 	bne	149fc <__gnu_unwind_pr_common+0x74>
   14c04:	e59d3004 	ldr	r3, [sp, #4]
   14c08:	e3530000 	cmp	r3, #0
   14c0c:	03a00008 	moveq	r0, #8
   14c10:	0affff7a 	beq	14a00 <__gnu_unwind_pr_common+0x78>
   14c14:	e3a0100f 	mov	r1, #15
   14c18:	e1a00007 	mov	r0, r7
   14c1c:	ebffff30 	bl	148e4 <_Unwind_GetGR>
   14c20:	e3a0100e 	mov	r1, #14
   14c24:	e1a02000 	mov	r2, r0
   14c28:	e1a00007 	mov	r0, r7
   14c2c:	ebffff49 	bl	14958 <_Unwind_SetGR>
   14c30:	e1a00007 	mov	r0, r7
   14c34:	e3a0100f 	mov	r1, #15
   14c38:	e59f2174 	ldr	r2, [pc, #372]	; 14db4 <__gnu_unwind_pr_common+0x42c>
   14c3c:	ebffff45 	bl	14958 <_Unwind_SetGR>
   14c40:	e3a00007 	mov	r0, #7
   14c44:	eaffff6d 	b	14a00 <__gnu_unwind_pr_common+0x78>
   14c48:	e1a00007 	mov	r0, r7
   14c4c:	e3a0100d 	mov	r1, #13
   14c50:	e594a020 	ldr	sl, [r4, #32]
   14c54:	ebffff22 	bl	148e4 <_Unwind_GetGR>
   14c58:	e15a0000 	cmp	sl, r0
   14c5c:	1affffe1 	bne	14be8 <__gnu_unwind_pr_common+0x260>
   14c60:	e5943028 	ldr	r3, [r4, #40]	; 0x28
   14c64:	e1550003 	cmp	r5, r3
   14c68:	1affffde 	bne	14be8 <__gnu_unwind_pr_common+0x260>
   14c6c:	e1a00005 	mov	r0, r5
   14c70:	ebfffd82 	bl	14280 <selfrel_offset31>
   14c74:	e3a0100f 	mov	r1, #15
   14c78:	e1a02000 	mov	r2, r0
   14c7c:	e1a00007 	mov	r0, r7
   14c80:	ebffff34 	bl	14958 <_Unwind_SetGR>
   14c84:	e1a00007 	mov	r0, r7
   14c88:	e3a01000 	mov	r1, #0
   14c8c:	e1a02004 	mov	r2, r4
   14c90:	ebffff30 	bl	14958 <_Unwind_SetGR>
   14c94:	e3a00007 	mov	r0, #7
   14c98:	eaffff58 	b	14a00 <__gnu_unwind_pr_common+0x78>
   14c9c:	e1a00007 	mov	r0, r7
   14ca0:	e3a0100d 	mov	r1, #13
   14ca4:	e594a020 	ldr	sl, [r4, #32]
   14ca8:	ebffff0d 	bl	148e4 <_Unwind_GetGR>
   14cac:	e15a0000 	cmp	sl, r0
   14cb0:	1affffb1 	bne	14b7c <__gnu_unwind_pr_common+0x1f4>
   14cb4:	e5943028 	ldr	r3, [r4, #40]	; 0x28
   14cb8:	e1550003 	cmp	r5, r3
   14cbc:	1affffae 	bne	14b7c <__gnu_unwind_pr_common+0x1f4>
   14cc0:	e3a02000 	mov	r2, #0
   14cc4:	e2853004 	add	r3, r5, #4
   14cc8:	e584202c 	str	r2, [r4, #44]	; 0x2c
   14ccc:	e3a02004 	mov	r2, #4
   14cd0:	e5849028 	str	r9, [r4, #40]	; 0x28
   14cd4:	e5842030 	str	r2, [r4, #48]	; 0x30
   14cd8:	e5843034 	str	r3, [r4, #52]	; 0x34
   14cdc:	e5953000 	ldr	r3, [r5]
   14ce0:	e3530000 	cmp	r3, #0
   14ce4:	ba000023 	blt	14d78 <__gnu_unwind_pr_common+0x3f0>
   14ce8:	e3a03001 	mov	r3, #1
   14cec:	e58d3004 	str	r3, [sp, #4]
   14cf0:	eaffffa4 	b	14b88 <__gnu_unwind_pr_common+0x200>
   14cf4:	e1a00007 	mov	r0, r7
   14cf8:	e3a0100d 	mov	r1, #13
   14cfc:	ebfffef8 	bl	148e4 <_Unwind_GetGR>
   14d00:	e5840020 	str	r0, [r4, #32]
   14d04:	e59d3010 	ldr	r3, [sp, #16]
   14d08:	e5843024 	str	r3, [r4, #36]	; 0x24
   14d0c:	e5845028 	str	r5, [r4, #40]	; 0x28
   14d10:	e3a00006 	mov	r0, #6
   14d14:	eaffff39 	b	14a00 <__gnu_unwind_pr_common+0x78>
   14d18:	e1a00005 	mov	r0, r5
   14d1c:	ebfffd57 	bl	14280 <selfrel_offset31>
   14d20:	e2855004 	add	r5, r5, #4
   14d24:	e1a06000 	mov	r6, r0
   14d28:	e5845038 	str	r5, [r4, #56]	; 0x38
   14d2c:	e1a00004 	mov	r0, r4
   14d30:	e1a00000 	nop			; (mov r0, r0)
   14d34:	e3500000 	cmp	r0, #0
   14d38:	0affff2f 	beq	149fc <__gnu_unwind_pr_common+0x74>
   14d3c:	e1a00007 	mov	r0, r7
   14d40:	e3a0100f 	mov	r1, #15
   14d44:	e1a02006 	mov	r2, r6
   14d48:	ebffff02 	bl	14958 <_Unwind_SetGR>
   14d4c:	e3a00007 	mov	r0, #7
   14d50:	eaffff2a 	b	14a00 <__gnu_unwind_pr_common+0x78>
   14d54:	e1a00007 	mov	r0, r7
   14d58:	e3a0100d 	mov	r1, #13
   14d5c:	ebfffee0 	bl	148e4 <_Unwind_GetGR>
   14d60:	e59d3010 	ldr	r3, [sp, #16]
   14d64:	e5840020 	str	r0, [r4, #32]
   14d68:	e5843024 	str	r3, [r4, #36]	; 0x24
   14d6c:	e5845028 	str	r5, [r4, #40]	; 0x28
   14d70:	e3a00006 	mov	r0, #6
   14d74:	eaffff21 	b	14a00 <__gnu_unwind_pr_common+0x78>
   14d78:	e2890001 	add	r0, r9, #1
   14d7c:	e0850100 	add	r0, r5, r0, lsl #2
   14d80:	eaffffba 	b	14c70 <__gnu_unwind_pr_common+0x2e8>
   14d84:	e1a09000 	mov	r9, r0
   14d88:	e3a0100d 	mov	r1, #13
   14d8c:	e1a00007 	mov	r0, r7
   14d90:	ebfffed3 	bl	148e4 <_Unwind_GetGR>
   14d94:	e3590002 	cmp	r9, #2
   14d98:	e5840020 	str	r0, [r4, #32]
   14d9c:	1affffd8 	bne	14d04 <__gnu_unwind_pr_common+0x37c>
   14da0:	e59d2010 	ldr	r2, [sp, #16]
   14da4:	e1a03004 	mov	r3, r4
   14da8:	e5a3202c 	str	r2, [r3, #44]!	; 0x2c
   14dac:	e5843024 	str	r3, [r4, #36]	; 0x24
   14db0:	eaffffd5 	b	14d0c <__gnu_unwind_pr_common+0x384>
   14db4:	00000000 	.word	0x00000000

00014db8 <__aeabi_unwind_cpp_pr2>:
   14db8:	e3a03002 	mov	r3, #2
   14dbc:	eafffef1 	b	14988 <__gnu_unwind_pr_common>

00014dc0 <__aeabi_unwind_cpp_pr1>:
   14dc0:	e3a03001 	mov	r3, #1
   14dc4:	eafffeef 	b	14988 <__gnu_unwind_pr_common>

00014dc8 <__aeabi_unwind_cpp_pr0>:
   14dc8:	e3a03000 	mov	r3, #0
   14dcc:	eafffeed 	b	14988 <__gnu_unwind_pr_common>

00014dd0 <__gnu_Unwind_Backtrace>:
   14dd0:	e92d4070 	push	{r4, r5, r6, lr}
   14dd4:	e592303c 	ldr	r3, [r2, #60]	; 0x3c
   14dd8:	e5823040 	str	r3, [r2, #64]	; 0x40
   14ddc:	e282e004 	add	lr, r2, #4
   14de0:	e24ddfa6 	sub	sp, sp, #664	; 0x298
   14de4:	e1a06000 	mov	r6, r0
   14de8:	e1a05001 	mov	r5, r1
   14dec:	e8be000f 	ldm	lr!, {r0, r1, r2, r3}
   14df0:	e28dc05c 	add	ip, sp, #92	; 0x5c
   14df4:	e8ac000f 	stmia	ip!, {r0, r1, r2, r3}
   14df8:	e8be000f 	ldm	lr!, {r0, r1, r2, r3}
   14dfc:	e8ac000f 	stmia	ip!, {r0, r1, r2, r3}
   14e00:	e8be000f 	ldm	lr!, {r0, r1, r2, r3}
   14e04:	e8ac000f 	stmia	ip!, {r0, r1, r2, r3}
   14e08:	e89e000f 	ldm	lr, {r0, r1, r2, r3}
   14e0c:	e88c000f 	stm	ip, {r0, r1, r2, r3}
   14e10:	e3e03000 	mvn	r3, #0
   14e14:	e58d3058 	str	r3, [sp, #88]	; 0x58
   14e18:	e59d1098 	ldr	r1, [sp, #152]	; 0x98
   14e1c:	e1a0000d 	mov	r0, sp
   14e20:	ebfffd78 	bl	14408 <get_eit_entry>
   14e24:	e3500000 	cmp	r0, #0
   14e28:	e1a0200d 	mov	r2, sp
   14e2c:	e3a0100c 	mov	r1, #12
   14e30:	e28d0058 	add	r0, sp, #88	; 0x58
   14e34:	1a000016 	bne	14e94 <__gnu_Unwind_Backtrace+0xc4>
   14e38:	ebfffec6 	bl	14958 <_Unwind_SetGR>
   14e3c:	e1a01005 	mov	r1, r5
   14e40:	e28d0058 	add	r0, sp, #88	; 0x58
   14e44:	e1a0e00f 	mov	lr, pc
   14e48:	e12fff16 	bx	r6
   14e4c:	e3500000 	cmp	r0, #0
   14e50:	e1a0100d 	mov	r1, sp
   14e54:	e28d2058 	add	r2, sp, #88	; 0x58
   14e58:	e3a00008 	mov	r0, #8
   14e5c:	1a00000c 	bne	14e94 <__gnu_Unwind_Backtrace+0xc4>
   14e60:	e59dc010 	ldr	ip, [sp, #16]
   14e64:	e1a0e00f 	mov	lr, pc
   14e68:	e12fff1c 	bx	ip
   14e6c:	e3500009 	cmp	r0, #9
   14e70:	13500005 	cmpne	r0, #5
   14e74:	e1a04000 	mov	r4, r0
   14e78:	1affffe6 	bne	14e18 <__gnu_Unwind_Backtrace+0x48>
   14e7c:	e28d0058 	add	r0, sp, #88	; 0x58
   14e80:	ebfffd40 	bl	14388 <restore_non_core_regs>
   14e84:	e1a00004 	mov	r0, r4
   14e88:	e28ddfa6 	add	sp, sp, #664	; 0x298
   14e8c:	e8bd4070 	pop	{r4, r5, r6, lr}
   14e90:	e12fff1e 	bx	lr
   14e94:	e3a04009 	mov	r4, #9
   14e98:	eafffff7 	b	14e7c <__gnu_Unwind_Backtrace+0xac>

00014e9c <_Unwind_VRS_Pop>:
   14e9c:	e92d41f0 	push	{r4, r5, r6, r7, r8, lr}
   14ea0:	e1a04000 	mov	r4, r0
   14ea4:	e24dde1a 	sub	sp, sp, #416	; 0x1a0
   14ea8:	e3510004 	cmp	r1, #4
   14eac:	979ff101 	ldrls	pc, [pc, r1, lsl #2]
   14eb0:	ea000006 	b	14ed0 <_Unwind_VRS_Pop+0x34>
   14eb4:	00014f44 	.word	0x00014f44
   14eb8:	00014f94 	.word	0x00014f94
   14ebc:	00014f8c 	.word	0x00014f8c
   14ec0:	00014ec8 	.word	0x00014ec8
   14ec4:	00014ee0 	.word	0x00014ee0
   14ec8:	e3530003 	cmp	r3, #3
   14ecc:	0a000091 	beq	15118 <_Unwind_VRS_Pop+0x27c>
   14ed0:	e3a00002 	mov	r0, #2
   14ed4:	e28dde1a 	add	sp, sp, #416	; 0x1a0
   14ed8:	e8bd41f0 	pop	{r4, r5, r6, r7, r8, lr}
   14edc:	e12fff1e 	bx	lr
   14ee0:	e3520010 	cmp	r2, #16
   14ee4:	93530000 	cmpls	r3, #0
   14ee8:	1afffff8 	bne	14ed0 <_Unwind_VRS_Pop+0x34>
   14eec:	e5903000 	ldr	r3, [r0]
   14ef0:	e3130010 	tst	r3, #16
   14ef4:	1a0000a7 	bne	15198 <_Unwind_VRS_Pop+0x2fc>
   14ef8:	e28d0008 	add	r0, sp, #8
   14efc:	e58d2004 	str	r2, [sp, #4]
   14f00:	eb000104 	bl	15318 <__gnu_Unwind_Save_WMMXC>
   14f04:	e5941038 	ldr	r1, [r4, #56]	; 0x38
   14f08:	e59d2004 	ldr	r2, [sp, #4]
   14f0c:	e3a03000 	mov	r3, #0
   14f10:	e3a00001 	mov	r0, #1
   14f14:	e0125310 	ands	r5, r2, r0, lsl r3
   14f18:	1491c004 	ldrne	ip, [r1], #4
   14f1c:	128de008 	addne	lr, sp, #8
   14f20:	178ec103 	strne	ip, [lr, r3, lsl #2]
   14f24:	e2833001 	add	r3, r3, #1
   14f28:	e3530004 	cmp	r3, #4
   14f2c:	1afffff8 	bne	14f14 <_Unwind_VRS_Pop+0x78>
   14f30:	e28d0008 	add	r0, sp, #8
   14f34:	e5841038 	str	r1, [r4, #56]	; 0x38
   14f38:	eb0000f1 	bl	15304 <__gnu_Unwind_Restore_WMMXC>
   14f3c:	e3a00000 	mov	r0, #0
   14f40:	eaffffe3 	b	14ed4 <_Unwind_VRS_Pop+0x38>
   14f44:	e3530000 	cmp	r3, #0
   14f48:	1affffe0 	bne	14ed0 <_Unwind_VRS_Pop+0x34>
   14f4c:	e1a0c802 	lsl	ip, r2, #16
   14f50:	e5901038 	ldr	r1, [r0, #56]	; 0x38
   14f54:	e1a0c82c 	lsr	ip, ip, #16
   14f58:	e3a00001 	mov	r0, #1
   14f5c:	e01c5310 	ands	r5, ip, r0, lsl r3
   14f60:	14916004 	ldrne	r6, [r1], #4
   14f64:	10845103 	addne	r5, r4, r3, lsl #2
   14f68:	e2833001 	add	r3, r3, #1
   14f6c:	15856004 	strne	r6, [r5, #4]
   14f70:	e3530010 	cmp	r3, #16
   14f74:	1afffff8 	bne	14f5c <_Unwind_VRS_Pop+0xc0>
   14f78:	e2120a02 	ands	r0, r2, #8192	; 0x2000
   14f7c:	05841038 	streq	r1, [r4, #56]	; 0x38
   14f80:	0affffd3 	beq	14ed4 <_Unwind_VRS_Pop+0x38>
   14f84:	e3a00000 	mov	r0, #0
   14f88:	eaffffd1 	b	14ed4 <_Unwind_VRS_Pop+0x38>
   14f8c:	e3a00001 	mov	r0, #1
   14f90:	eaffffcf 	b	14ed4 <_Unwind_VRS_Pop+0x38>
   14f94:	e20310fb 	and	r1, r3, #251	; 0xfb
   14f98:	e3510001 	cmp	r1, #1
   14f9c:	1affffcb 	bne	14ed0 <_Unwind_VRS_Pop+0x34>
   14fa0:	e1a06802 	lsl	r6, r2, #16
   14fa4:	e3530001 	cmp	r3, #1
   14fa8:	e1a05822 	lsr	r5, r2, #16
   14fac:	e1a06826 	lsr	r6, r6, #16
   14fb0:	e0862005 	add	r2, r6, r5
   14fb4:	13a01020 	movne	r1, #32
   14fb8:	03a01010 	moveq	r1, #16
   14fbc:	e1510002 	cmp	r1, r2
   14fc0:	3affffc2 	bcc	14ed0 <_Unwind_VRS_Pop+0x34>
   14fc4:	e2530001 	subs	r0, r3, #1
   14fc8:	e2707000 	rsbs	r7, r0, #0
   14fcc:	e0b77000 	adcs	r7, r7, r0
   14fd0:	e355000f 	cmp	r5, #15
   14fd4:	93a01000 	movls	r1, #0
   14fd8:	83a01001 	movhi	r1, #1
   14fdc:	e1110007 	tst	r1, r7
   14fe0:	1affffba 	bne	14ed0 <_Unwind_VRS_Pop+0x34>
   14fe4:	e3510000 	cmp	r1, #0
   14fe8:	11a08006 	movne	r8, r6
   14fec:	1a000002 	bne	14ffc <_Unwind_VRS_Pop+0x160>
   14ff0:	e3520010 	cmp	r2, #16
   14ff4:	9a000071 	bls	151c0 <_Unwind_VRS_Pop+0x324>
   14ff8:	e2428010 	sub	r8, r2, #16
   14ffc:	e3580000 	cmp	r8, #0
   15000:	13530005 	cmpne	r3, #5
   15004:	1affffb1 	bne	14ed0 <_Unwind_VRS_Pop+0x34>
   15008:	e355000f 	cmp	r5, #15
   1500c:	8a00000a 	bhi	1503c <_Unwind_VRS_Pop+0x1a0>
   15010:	e5942000 	ldr	r2, [r4]
   15014:	e3120001 	tst	r2, #1
   15018:	0a000007 	beq	1503c <_Unwind_VRS_Pop+0x1a0>
   1501c:	e3c21001 	bic	r1, r2, #1
   15020:	e3530005 	cmp	r3, #5
   15024:	e1a00004 	mov	r0, r4
   15028:	e5841000 	str	r1, [r4]
   1502c:	0a00007b 	beq	15220 <_Unwind_VRS_Pop+0x384>
   15030:	e3c22003 	bic	r2, r2, #3
   15034:	e4802048 	str	r2, [r0], #72	; 0x48
   15038:	eb000085 	bl	15254 <__gnu_Unwind_Save_VFP>
   1503c:	e3580000 	cmp	r8, #0
   15040:	0a000002 	beq	15050 <_Unwind_VRS_Pop+0x1b4>
   15044:	e5943000 	ldr	r3, [r4]
   15048:	e3130004 	tst	r3, #4
   1504c:	1a000069 	bne	151f8 <_Unwind_VRS_Pop+0x35c>
   15050:	e3570000 	cmp	r7, #0
   15054:	1a00006c 	bne	1520c <_Unwind_VRS_Pop+0x370>
   15058:	e355000f 	cmp	r5, #15
   1505c:	9a000062 	bls	151ec <_Unwind_VRS_Pop+0x350>
   15060:	e3580000 	cmp	r8, #0
   15064:	1a00005c 	bne	151dc <_Unwind_VRS_Pop+0x340>
   15068:	e5940038 	ldr	r0, [r4, #56]	; 0x38
   1506c:	e3560000 	cmp	r6, #0
   15070:	e1a02000 	mov	r2, r0
   15074:	da00000b 	ble	150a8 <_Unwind_VRS_Pop+0x20c>
   15078:	e28d2f46 	add	r2, sp, #280	; 0x118
   1507c:	e1a06086 	lsl	r6, r6, #1
   15080:	e082c185 	add	ip, r2, r5, lsl #3
   15084:	e2461001 	sub	r1, r6, #1
   15088:	e1a0300c 	mov	r3, ip
   1508c:	e06c2003 	rsb	r2, ip, r3
   15090:	e7922000 	ldr	r2, [r2, r0]
   15094:	e2411001 	sub	r1, r1, #1
   15098:	e3710001 	cmn	r1, #1
   1509c:	e4832004 	str	r2, [r3], #4
   150a0:	1afffff9 	bne	1508c <_Unwind_VRS_Pop+0x1f0>
   150a4:	e0802106 	add	r2, r0, r6, lsl #2
   150a8:	e3580000 	cmp	r8, #0
   150ac:	0a00000e 	beq	150ec <_Unwind_VRS_Pop+0x250>
   150b0:	e28d3e1a 	add	r3, sp, #416	; 0x1a0
   150b4:	e3550010 	cmp	r5, #16
   150b8:	21a0c005 	movcs	ip, r5
   150bc:	33a0c010 	movcc	ip, #16
   150c0:	e083c18c 	add	ip, r3, ip, lsl #3
   150c4:	e1a01088 	lsl	r1, r8, #1
   150c8:	e24ccf82 	sub	ip, ip, #520	; 0x208
   150cc:	e2413001 	sub	r3, r1, #1
   150d0:	e2420004 	sub	r0, r2, #4
   150d4:	e5b06004 	ldr	r6, [r0, #4]!
   150d8:	e2433001 	sub	r3, r3, #1
   150dc:	e3730001 	cmn	r3, #1
   150e0:	e48c6004 	str	r6, [ip], #4
   150e4:	1afffffa 	bne	150d4 <_Unwind_VRS_Pop+0x238>
   150e8:	e0822101 	add	r2, r2, r1, lsl #2
   150ec:	e3570000 	cmp	r7, #0
   150f0:	1a000034 	bne	151c8 <_Unwind_VRS_Pop+0x32c>
   150f4:	e355000f 	cmp	r5, #15
   150f8:	e5842038 	str	r2, [r4, #56]	; 0x38
   150fc:	928d0f46 	addls	r0, sp, #280	; 0x118
   15100:	9b000055 	blls	1525c <__gnu_Unwind_Restore_VFP_D>
   15104:	e3580000 	cmp	r8, #0
   15108:	0affff9d 	beq	14f84 <_Unwind_VRS_Pop+0xe8>
   1510c:	e28d0018 	add	r0, sp, #24
   15110:	eb000055 	bl	1526c <__gnu_Unwind_Restore_VFP_D_16_to_31>
   15114:	eaffff9a 	b	14f84 <_Unwind_VRS_Pop+0xe8>
   15118:	e1a06802 	lsl	r6, r2, #16
   1511c:	e1a05822 	lsr	r5, r2, #16
   15120:	e1a06826 	lsr	r6, r6, #16
   15124:	e0863005 	add	r3, r6, r5
   15128:	e3530010 	cmp	r3, #16
   1512c:	8affff67 	bhi	14ed0 <_Unwind_VRS_Pop+0x34>
   15130:	e5903000 	ldr	r3, [r0]
   15134:	e3130008 	tst	r3, #8
   15138:	1a00001c 	bne	151b0 <_Unwind_VRS_Pop+0x314>
   1513c:	e28d0098 	add	r0, sp, #152	; 0x98
   15140:	eb00005e 	bl	152c0 <__gnu_Unwind_Save_WMMXD>
   15144:	e1a06086 	lsl	r6, r6, #1
   15148:	e5940038 	ldr	r0, [r4, #56]	; 0x38
   1514c:	e28de098 	add	lr, sp, #152	; 0x98
   15150:	e3560000 	cmp	r6, #0
   15154:	e1a03000 	mov	r3, r0
   15158:	e08ec185 	add	ip, lr, r5, lsl #3
   1515c:	e2462001 	sub	r2, r6, #1
   15160:	0a000007 	beq	15184 <_Unwind_VRS_Pop+0x2e8>
   15164:	e1a0300c 	mov	r3, ip
   15168:	e06c1003 	rsb	r1, ip, r3
   1516c:	e7911000 	ldr	r1, [r1, r0]
   15170:	e2422001 	sub	r2, r2, #1
   15174:	e3720001 	cmn	r2, #1
   15178:	e4831004 	str	r1, [r3], #4
   1517c:	1afffff9 	bne	15168 <_Unwind_VRS_Pop+0x2cc>
   15180:	e0803106 	add	r3, r0, r6, lsl #2
   15184:	e28d0098 	add	r0, sp, #152	; 0x98
   15188:	e5843038 	str	r3, [r4, #56]	; 0x38
   1518c:	eb00003a 	bl	1527c <__gnu_Unwind_Restore_WMMXD>
   15190:	e3a00000 	mov	r0, #0
   15194:	eaffff4e 	b	14ed4 <_Unwind_VRS_Pop+0x38>
   15198:	e3c33010 	bic	r3, r3, #16
   1519c:	e4803230 	str	r3, [r0], #560	; 0x230
   151a0:	e58d2004 	str	r2, [sp, #4]
   151a4:	eb00005b 	bl	15318 <__gnu_Unwind_Save_WMMXC>
   151a8:	e59d2004 	ldr	r2, [sp, #4]
   151ac:	eaffff51 	b	14ef8 <_Unwind_VRS_Pop+0x5c>
   151b0:	e3c33008 	bic	r3, r3, #8
   151b4:	e48031b0 	str	r3, [r0], #432	; 0x1b0
   151b8:	eb000040 	bl	152c0 <__gnu_Unwind_Save_WMMXD>
   151bc:	eaffffde 	b	1513c <_Unwind_VRS_Pop+0x2a0>
   151c0:	e1a08001 	mov	r8, r1
   151c4:	eaffff8f 	b	15008 <_Unwind_VRS_Pop+0x16c>
   151c8:	e2822004 	add	r2, r2, #4
   151cc:	e5842038 	str	r2, [r4, #56]	; 0x38
   151d0:	e28d0f46 	add	r0, sp, #280	; 0x118
   151d4:	eb00001c 	bl	1524c <__gnu_Unwind_Restore_VFP>
   151d8:	eaffff69 	b	14f84 <_Unwind_VRS_Pop+0xe8>
   151dc:	e28d0018 	add	r0, sp, #24
   151e0:	eb000023 	bl	15274 <__gnu_Unwind_Save_VFP_D_16_to_31>
   151e4:	e2656010 	rsb	r6, r5, #16
   151e8:	eaffff9e 	b	15068 <_Unwind_VRS_Pop+0x1cc>
   151ec:	e28d0f46 	add	r0, sp, #280	; 0x118
   151f0:	eb00001b 	bl	15264 <__gnu_Unwind_Save_VFP_D>
   151f4:	eaffff99 	b	15060 <_Unwind_VRS_Pop+0x1c4>
   151f8:	e1a00004 	mov	r0, r4
   151fc:	e3c33004 	bic	r3, r3, #4
   15200:	e48030d0 	str	r3, [r0], #208	; 0xd0
   15204:	eb00001a 	bl	15274 <__gnu_Unwind_Save_VFP_D_16_to_31>
   15208:	eaffff90 	b	15050 <_Unwind_VRS_Pop+0x1b4>
   1520c:	e28d0f46 	add	r0, sp, #280	; 0x118
   15210:	eb00000f 	bl	15254 <__gnu_Unwind_Save_VFP>
   15214:	e3580000 	cmp	r8, #0
   15218:	1afffff1 	bne	151e4 <_Unwind_VRS_Pop+0x348>
   1521c:	eaffff91 	b	15068 <_Unwind_VRS_Pop+0x1cc>
   15220:	e3811002 	orr	r1, r1, #2
   15224:	e4801048 	str	r1, [r0], #72	; 0x48
   15228:	eb00000d 	bl	15264 <__gnu_Unwind_Save_VFP_D>
   1522c:	eaffff82 	b	1503c <_Unwind_VRS_Pop+0x1a0>

00015230 <__restore_core_regs>:
   15230:	e2801034 	add	r1, r0, #52	; 0x34
   15234:	e8910038 	ldm	r1, {r3, r4, r5}
   15238:	e1a02005 	mov	r2, r5
   1523c:	e92d001c 	push	{r2, r3, r4}
   15240:	e8900fff 	ldm	r0, {r0, r1, r2, r3, r4, r5, r6, r7, r8, r9, sl, fp}
   15244:	e89d7000 	ldm	sp, {ip, sp, lr}
   15248:	e12fff1c 	bx	ip

0001524c <__gnu_Unwind_Restore_VFP>:
   1524c:	ec900b21 	fldmiax	r0, {d0-d15}	;@ Deprecated
   15250:	e12fff1e 	bx	lr

00015254 <__gnu_Unwind_Save_VFP>:
   15254:	ec800b21 	fstmiax	r0, {d0-d15}	;@ Deprecated
   15258:	e12fff1e 	bx	lr

0001525c <__gnu_Unwind_Restore_VFP_D>:
   1525c:	ec900b20 	vldmia	r0, {d0-d15}
   15260:	e12fff1e 	bx	lr

00015264 <__gnu_Unwind_Save_VFP_D>:
   15264:	ec800b20 	vstmia	r0, {d0-d15}
   15268:	e12fff1e 	bx	lr

0001526c <__gnu_Unwind_Restore_VFP_D_16_to_31>:
   1526c:	ecd00b20 	vldmia	r0, {d16-d31}
   15270:	e12fff1e 	bx	lr

00015274 <__gnu_Unwind_Save_VFP_D_16_to_31>:
   15274:	ecc00b20 	vstmia	r0, {d16-d31}
   15278:	e12fff1e 	bx	lr

0001527c <__gnu_Unwind_Restore_WMMXD>:
   1527c:	ecf00102 	ldfe	f0, [r0], #8
   15280:	ecf01102 	ldfe	f1, [r0], #8
   15284:	ecf02102 	ldfe	f2, [r0], #8
   15288:	ecf03102 	ldfe	f3, [r0], #8
   1528c:	ecf04102 	ldfe	f4, [r0], #8
   15290:	ecf05102 	ldfe	f5, [r0], #8
   15294:	ecf06102 	ldfe	f6, [r0], #8
   15298:	ecf07102 	ldfe	f7, [r0], #8
   1529c:	ecf08102 	ldfp	f0, [r0], #8
   152a0:	ecf09102 	ldfp	f1, [r0], #8
   152a4:	ecf0a102 	ldfp	f2, [r0], #8
   152a8:	ecf0b102 	ldfp	f3, [r0], #8
   152ac:	ecf0c102 	ldfp	f4, [r0], #8
   152b0:	ecf0d102 	ldfp	f5, [r0], #8
   152b4:	ecf0e102 	ldfp	f6, [r0], #8
   152b8:	ecf0f102 	ldfp	f7, [r0], #8
   152bc:	e12fff1e 	bx	lr

000152c0 <__gnu_Unwind_Save_WMMXD>:
   152c0:	ece00102 	stfe	f0, [r0], #8
   152c4:	ece01102 	stfe	f1, [r0], #8
   152c8:	ece02102 	stfe	f2, [r0], #8
   152cc:	ece03102 	stfe	f3, [r0], #8
   152d0:	ece04102 	stfe	f4, [r0], #8
   152d4:	ece05102 	stfe	f5, [r0], #8
   152d8:	ece06102 	stfe	f6, [r0], #8
   152dc:	ece07102 	stfe	f7, [r0], #8
   152e0:	ece08102 	stfp	f0, [r0], #8
   152e4:	ece09102 	stfp	f1, [r0], #8
   152e8:	ece0a102 	stfp	f2, [r0], #8
   152ec:	ece0b102 	stfp	f3, [r0], #8
   152f0:	ece0c102 	stfp	f4, [r0], #8
   152f4:	ece0d102 	stfp	f5, [r0], #8
   152f8:	ece0e102 	stfp	f6, [r0], #8
   152fc:	ece0f102 	stfp	f7, [r0], #8
   15300:	e12fff1e 	bx	lr

00015304 <__gnu_Unwind_Restore_WMMXC>:
   15304:	fcb08101 	ldc2	1, cr8, [r0], #4
   15308:	fcb09101 	ldc2	1, cr9, [r0], #4
   1530c:	fcb0a101 	ldc2	1, cr10, [r0], #4
   15310:	fcb0b101 	ldc2	1, cr11, [r0], #4
   15314:	e12fff1e 	bx	lr

00015318 <__gnu_Unwind_Save_WMMXC>:
   15318:	fca08101 	stc2	1, cr8, [r0], #4
   1531c:	fca09101 	stc2	1, cr9, [r0], #4
   15320:	fca0a101 	stc2	1, cr10, [r0], #4
   15324:	fca0b101 	stc2	1, cr11, [r0], #4
   15328:	e12fff1e 	bx	lr

0001532c <_Unwind_RaiseException>:
   1532c:	e92de000 	push	{sp, lr, pc}
   15330:	e92d1fff 	push	{r0, r1, r2, r3, r4, r5, r6, r7, r8, r9, sl, fp, ip}
   15334:	e3a03000 	mov	r3, #0
   15338:	e92d000c 	push	{r2, r3}
   1533c:	e28d1004 	add	r1, sp, #4
   15340:	ebfffcf2 	bl	14710 <__gnu_Unwind_RaiseException>
   15344:	e59de040 	ldr	lr, [sp, #64]	; 0x40
   15348:	e28dd048 	add	sp, sp, #72	; 0x48
   1534c:	e12fff1e 	bx	lr

00015350 <_Unwind_Resume>:
   15350:	e92de000 	push	{sp, lr, pc}
   15354:	e92d1fff 	push	{r0, r1, r2, r3, r4, r5, r6, r7, r8, r9, sl, fp, ip}
   15358:	e3a03000 	mov	r3, #0
   1535c:	e92d000c 	push	{r2, r3}
   15360:	e28d1004 	add	r1, sp, #4
   15364:	ebfffd1d 	bl	147e0 <__gnu_Unwind_Resume>
   15368:	e59de040 	ldr	lr, [sp, #64]	; 0x40
   1536c:	e28dd048 	add	sp, sp, #72	; 0x48
   15370:	e12fff1e 	bx	lr

00015374 <_Unwind_Resume_or_Rethrow>:
   15374:	e92de000 	push	{sp, lr, pc}
   15378:	e92d1fff 	push	{r0, r1, r2, r3, r4, r5, r6, r7, r8, r9, sl, fp, ip}
   1537c:	e3a03000 	mov	r3, #0
   15380:	e92d000c 	push	{r2, r3}
   15384:	e28d1004 	add	r1, sp, #4
   15388:	ebfffd32 	bl	14858 <__gnu_Unwind_Resume_or_Rethrow>
   1538c:	e59de040 	ldr	lr, [sp, #64]	; 0x40
   15390:	e28dd048 	add	sp, sp, #72	; 0x48
   15394:	e12fff1e 	bx	lr

00015398 <_Unwind_ForcedUnwind>:
   15398:	e92de000 	push	{sp, lr, pc}
   1539c:	e92d1fff 	push	{r0, r1, r2, r3, r4, r5, r6, r7, r8, r9, sl, fp, ip}
   153a0:	e3a03000 	mov	r3, #0
   153a4:	e92d000c 	push	{r2, r3}
   153a8:	e28d3004 	add	r3, sp, #4
   153ac:	ebfffd02 	bl	147bc <__gnu_Unwind_ForcedUnwind>
   153b0:	e59de040 	ldr	lr, [sp, #64]	; 0x40
   153b4:	e28dd048 	add	sp, sp, #72	; 0x48
   153b8:	e12fff1e 	bx	lr

000153bc <_Unwind_Backtrace>:
   153bc:	e92de000 	push	{sp, lr, pc}
   153c0:	e92d1fff 	push	{r0, r1, r2, r3, r4, r5, r6, r7, r8, r9, sl, fp, ip}
   153c4:	e3a03000 	mov	r3, #0
   153c8:	e92d000c 	push	{r2, r3}
   153cc:	e28d2004 	add	r2, sp, #4
   153d0:	ebfffe7e 	bl	14dd0 <__gnu_Unwind_Backtrace>
   153d4:	e59de040 	ldr	lr, [sp, #64]	; 0x40
   153d8:	e28dd048 	add	sp, sp, #72	; 0x48
   153dc:	e12fff1e 	bx	lr

000153e0 <next_unwind_byte>:
   153e0:	e5d02008 	ldrb	r2, [r0, #8]
   153e4:	e3520000 	cmp	r2, #0
   153e8:	e1a03000 	mov	r3, r0
   153ec:	1a000004 	bne	15404 <next_unwind_byte+0x24>
   153f0:	e5d02009 	ldrb	r2, [r0, #9]
   153f4:	e3520000 	cmp	r2, #0
   153f8:	1a000008 	bne	15420 <next_unwind_byte+0x40>
   153fc:	e3a000b0 	mov	r0, #176	; 0xb0
   15400:	e12fff1e 	bx	lr
   15404:	e2422001 	sub	r2, r2, #1
   15408:	e5c02008 	strb	r2, [r0, #8]
   1540c:	e5900000 	ldr	r0, [r0]
   15410:	e1a02400 	lsl	r2, r0, #8
   15414:	e5832000 	str	r2, [r3]
   15418:	e1a00c20 	lsr	r0, r0, #24
   1541c:	e12fff1e 	bx	lr
   15420:	e2422001 	sub	r2, r2, #1
   15424:	e5901004 	ldr	r1, [r0, #4]
   15428:	e5c02009 	strb	r2, [r0, #9]
   1542c:	e4910004 	ldr	r0, [r1], #4
   15430:	e3a02003 	mov	r2, #3
   15434:	e5831004 	str	r1, [r3, #4]
   15438:	e5c32008 	strb	r2, [r3, #8]
   1543c:	eafffff3 	b	15410 <next_unwind_byte+0x30>

00015440 <_Unwind_GetGR.constprop.0>:
   15440:	e52de004 	push	{lr}		; (str lr, [sp, #-4]!)
   15444:	e24dd014 	sub	sp, sp, #20
   15448:	e3a01000 	mov	r1, #0
   1544c:	e28d300c 	add	r3, sp, #12
   15450:	e58d3000 	str	r3, [sp]
   15454:	e3a0200c 	mov	r2, #12
   15458:	e1a03001 	mov	r3, r1
   1545c:	ebfffd0f 	bl	148a0 <_Unwind_VRS_Get>
   15460:	e59d000c 	ldr	r0, [sp, #12]
   15464:	e28dd014 	add	sp, sp, #20
   15468:	e49de004 	pop	{lr}		; (ldr lr, [sp], #4)
   1546c:	e12fff1e 	bx	lr

00015470 <unwind_UCB_from_context>:
   15470:	eafffff2 	b	15440 <_Unwind_GetGR.constprop.0>

00015474 <__gnu_unwind_execute>:
   15474:	e92d45f0 	push	{r4, r5, r6, r7, r8, sl, lr}
   15478:	e1a06000 	mov	r6, r0
   1547c:	e24dd014 	sub	sp, sp, #20
   15480:	e1a05001 	mov	r5, r1
   15484:	e3a08000 	mov	r8, #0
   15488:	e1a00005 	mov	r0, r5
   1548c:	ebffffd3 	bl	153e0 <next_unwind_byte>
   15490:	e35000b0 	cmp	r0, #176	; 0xb0
   15494:	e1a04000 	mov	r4, r0
   15498:	0a000087 	beq	156bc <__gnu_unwind_execute+0x248>
   1549c:	e2101080 	ands	r1, r0, #128	; 0x80
   154a0:	0a00001a 	beq	15510 <__gnu_unwind_execute+0x9c>
   154a4:	e20020f0 	and	r2, r0, #240	; 0xf0
   154a8:	e3520080 	cmp	r2, #128	; 0x80
   154ac:	0a000058 	beq	15614 <__gnu_unwind_execute+0x1a0>
   154b0:	e3520090 	cmp	r2, #144	; 0x90
   154b4:	0a00002a 	beq	15564 <__gnu_unwind_execute+0xf0>
   154b8:	e35200a0 	cmp	r2, #160	; 0xa0
   154bc:	0a000033 	beq	15590 <__gnu_unwind_execute+0x11c>
   154c0:	e35200b0 	cmp	r2, #176	; 0xb0
   154c4:	0a00003f 	beq	155c8 <__gnu_unwind_execute+0x154>
   154c8:	e35200c0 	cmp	r2, #192	; 0xc0
   154cc:	0a000062 	beq	1565c <__gnu_unwind_execute+0x1e8>
   154d0:	e20030f8 	and	r3, r0, #248	; 0xf8
   154d4:	e35300d0 	cmp	r3, #208	; 0xd0
   154d8:	1a000008 	bne	15500 <__gnu_unwind_execute+0x8c>
   154dc:	e2004007 	and	r4, r0, #7
   154e0:	e2842001 	add	r2, r4, #1
   154e4:	e1a00006 	mov	r0, r6
   154e8:	e3a01001 	mov	r1, #1
   154ec:	e3822702 	orr	r2, r2, #524288	; 0x80000
   154f0:	e3a03005 	mov	r3, #5
   154f4:	ebfffe68 	bl	14e9c <_Unwind_VRS_Pop>
   154f8:	e3500000 	cmp	r0, #0
   154fc:	0affffe1 	beq	15488 <__gnu_unwind_execute+0x14>
   15500:	e3a00009 	mov	r0, #9
   15504:	e28dd014 	add	sp, sp, #20
   15508:	e8bd45f0 	pop	{r4, r5, r6, r7, r8, sl, lr}
   1550c:	e12fff1e 	bx	lr
   15510:	e28d700c 	add	r7, sp, #12
   15514:	e1a0a100 	lsl	sl, r0, #2
   15518:	e1a03001 	mov	r3, r1
   1551c:	e58d7000 	str	r7, [sp]
   15520:	e1a00006 	mov	r0, r6
   15524:	e3a0200d 	mov	r2, #13
   15528:	ebfffcdc 	bl	148a0 <_Unwind_VRS_Get>
   1552c:	e20aa0ff 	and	sl, sl, #255	; 0xff
   15530:	e59d300c 	ldr	r3, [sp, #12]
   15534:	e28aa004 	add	sl, sl, #4
   15538:	e3140040 	tst	r4, #64	; 0x40
   1553c:	106aa003 	rsbne	sl, sl, r3
   15540:	0083a00a 	addeq	sl, r3, sl
   15544:	e58da00c 	str	sl, [sp, #12]
   15548:	e3a01000 	mov	r1, #0
   1554c:	e58d7000 	str	r7, [sp]
   15550:	e1a00006 	mov	r0, r6
   15554:	e3a0200d 	mov	r2, #13
   15558:	e1a03001 	mov	r3, r1
   1555c:	ebfffcec 	bl	14914 <_Unwind_VRS_Set>
   15560:	eaffffc8 	b	15488 <__gnu_unwind_execute+0x14>
   15564:	e200300d 	and	r3, r0, #13
   15568:	e353000d 	cmp	r3, #13
   1556c:	0affffe3 	beq	15500 <__gnu_unwind_execute+0x8c>
   15570:	e28d700c 	add	r7, sp, #12
   15574:	e3a01000 	mov	r1, #0
   15578:	e200200f 	and	r2, r0, #15
   1557c:	e1a03001 	mov	r3, r1
   15580:	e58d7000 	str	r7, [sp]
   15584:	e1a00006 	mov	r0, r6
   15588:	ebfffcc4 	bl	148a0 <_Unwind_VRS_Get>
   1558c:	eaffffed 	b	15548 <__gnu_unwind_execute+0xd4>
   15590:	e1e02000 	mvn	r2, r0
   15594:	e3a03eff 	mov	r3, #4080	; 0xff0
   15598:	e2022007 	and	r2, r2, #7
   1559c:	e1a02253 	asr	r2, r3, r2
   155a0:	e3100008 	tst	r0, #8
   155a4:	e0022003 	and	r2, r2, r3
   155a8:	13822901 	orrne	r2, r2, #16384	; 0x4000
   155ac:	e3a01000 	mov	r1, #0
   155b0:	e1a00006 	mov	r0, r6
   155b4:	e1a03001 	mov	r3, r1
   155b8:	ebfffe37 	bl	14e9c <_Unwind_VRS_Pop>
   155bc:	e3500000 	cmp	r0, #0
   155c0:	1affffce 	bne	15500 <__gnu_unwind_execute+0x8c>
   155c4:	eaffffaf 	b	15488 <__gnu_unwind_execute+0x14>
   155c8:	e35000b1 	cmp	r0, #177	; 0xb1
   155cc:	0a000056 	beq	1572c <__gnu_unwind_execute+0x2b8>
   155d0:	e35000b2 	cmp	r0, #178	; 0xb2
   155d4:	0a00005b 	beq	15748 <__gnu_unwind_execute+0x2d4>
   155d8:	e35000b3 	cmp	r0, #179	; 0xb3
   155dc:	0a00007a 	beq	157cc <__gnu_unwind_execute+0x358>
   155e0:	e20030fc 	and	r3, r0, #252	; 0xfc
   155e4:	e35300b4 	cmp	r3, #180	; 0xb4
   155e8:	0a000045 	beq	15704 <__gnu_unwind_execute+0x290>
   155ec:	e2002007 	and	r2, r0, #7
   155f0:	e3a01001 	mov	r1, #1
   155f4:	e2822001 	add	r2, r2, #1
   155f8:	e1a00006 	mov	r0, r6
   155fc:	e3822702 	orr	r2, r2, #524288	; 0x80000
   15600:	e1a03001 	mov	r3, r1
   15604:	ebfffe24 	bl	14e9c <_Unwind_VRS_Pop>
   15608:	e3500000 	cmp	r0, #0
   1560c:	1affffbb 	bne	15500 <__gnu_unwind_execute+0x8c>
   15610:	eaffff9c 	b	15488 <__gnu_unwind_execute+0x14>
   15614:	e1a00005 	mov	r0, r5
   15618:	ebffff70 	bl	153e0 <next_unwind_byte>
   1561c:	e1a04404 	lsl	r4, r4, #8
   15620:	e1804004 	orr	r4, r0, r4
   15624:	e3540902 	cmp	r4, #32768	; 0x8000
   15628:	0affffb4 	beq	15500 <__gnu_unwind_execute+0x8c>
   1562c:	e1a02a04 	lsl	r2, r4, #20
   15630:	e3a01000 	mov	r1, #0
   15634:	e1a00006 	mov	r0, r6
   15638:	e1a02822 	lsr	r2, r2, #16
   1563c:	e1a03001 	mov	r3, r1
   15640:	ebfffe15 	bl	14e9c <_Unwind_VRS_Pop>
   15644:	e3500000 	cmp	r0, #0
   15648:	e1a04204 	lsl	r4, r4, #4
   1564c:	1affffab 	bne	15500 <__gnu_unwind_execute+0x8c>
   15650:	e3140902 	tst	r4, #32768	; 0x8000
   15654:	13a08001 	movne	r8, #1
   15658:	eaffff8a 	b	15488 <__gnu_unwind_execute+0x14>
   1565c:	e35000c6 	cmp	r0, #198	; 0xc6
   15660:	0a000066 	beq	15800 <__gnu_unwind_execute+0x38c>
   15664:	e35000c7 	cmp	r0, #199	; 0xc7
   15668:	0a00006b 	beq	1581c <__gnu_unwind_execute+0x3a8>
   1566c:	e20030f8 	and	r3, r0, #248	; 0xf8
   15670:	e35300c0 	cmp	r3, #192	; 0xc0
   15674:	0a000074 	beq	1584c <__gnu_unwind_execute+0x3d8>
   15678:	e35000c8 	cmp	r0, #200	; 0xc8
   1567c:	0a00007c 	beq	15874 <__gnu_unwind_execute+0x400>
   15680:	e35000c9 	cmp	r0, #201	; 0xc9
   15684:	1affff9d 	bne	15500 <__gnu_unwind_execute+0x8c>
   15688:	e1a00005 	mov	r0, r5
   1568c:	ebffff53 	bl	153e0 <next_unwind_byte>
   15690:	e200300f 	and	r3, r0, #15
   15694:	e2833001 	add	r3, r3, #1
   15698:	e20020f0 	and	r2, r0, #240	; 0xf0
   1569c:	e1832602 	orr	r2, r3, r2, lsl #12
   156a0:	e1a00006 	mov	r0, r6
   156a4:	e3a01001 	mov	r1, #1
   156a8:	e3a03005 	mov	r3, #5
   156ac:	ebfffdfa 	bl	14e9c <_Unwind_VRS_Pop>
   156b0:	e3500000 	cmp	r0, #0
   156b4:	1affff91 	bne	15500 <__gnu_unwind_execute+0x8c>
   156b8:	eaffff72 	b	15488 <__gnu_unwind_execute+0x14>
   156bc:	e3580000 	cmp	r8, #0
   156c0:	13a00000 	movne	r0, #0
   156c4:	1affff8e 	bne	15504 <__gnu_unwind_execute+0x90>
   156c8:	e28d400c 	add	r4, sp, #12
   156cc:	e1a01008 	mov	r1, r8
   156d0:	e3a0200e 	mov	r2, #14
   156d4:	e1a03008 	mov	r3, r8
   156d8:	e58d4000 	str	r4, [sp]
   156dc:	e1a00006 	mov	r0, r6
   156e0:	ebfffc6e 	bl	148a0 <_Unwind_VRS_Get>
   156e4:	e58d4000 	str	r4, [sp]
   156e8:	e1a00006 	mov	r0, r6
   156ec:	e1a01008 	mov	r1, r8
   156f0:	e3a0200f 	mov	r2, #15
   156f4:	e1a03008 	mov	r3, r8
   156f8:	ebfffc85 	bl	14914 <_Unwind_VRS_Set>
   156fc:	e1a00008 	mov	r0, r8
   15700:	eaffff7f 	b	15504 <__gnu_unwind_execute+0x90>
   15704:	e2002003 	and	r2, r0, #3
   15708:	e3a01002 	mov	r1, #2
   1570c:	e2822001 	add	r2, r2, #1
   15710:	e1a00006 	mov	r0, r6
   15714:	e3822701 	orr	r2, r2, #262144	; 0x40000
   15718:	e1a03001 	mov	r3, r1
   1571c:	ebfffdde 	bl	14e9c <_Unwind_VRS_Pop>
   15720:	e3500000 	cmp	r0, #0
   15724:	1affff75 	bne	15500 <__gnu_unwind_execute+0x8c>
   15728:	eaffff56 	b	15488 <__gnu_unwind_execute+0x14>
   1572c:	e1a00005 	mov	r0, r5
   15730:	ebffff2a 	bl	153e0 <next_unwind_byte>
   15734:	e2502000 	subs	r2, r0, #0
   15738:	0affff70 	beq	15500 <__gnu_unwind_execute+0x8c>
   1573c:	e21210f0 	ands	r1, r2, #240	; 0xf0
   15740:	0affff9a 	beq	155b0 <__gnu_unwind_execute+0x13c>
   15744:	eaffff6d 	b	15500 <__gnu_unwind_execute+0x8c>
   15748:	e3a01000 	mov	r1, #0
   1574c:	e28d700c 	add	r7, sp, #12
   15750:	e3a0200d 	mov	r2, #13
   15754:	e1a03001 	mov	r3, r1
   15758:	e58d7000 	str	r7, [sp]
   1575c:	e1a00006 	mov	r0, r6
   15760:	ebfffc4e 	bl	148a0 <_Unwind_VRS_Get>
   15764:	e1a00005 	mov	r0, r5
   15768:	ebffff1c 	bl	153e0 <next_unwind_byte>
   1576c:	e3100080 	tst	r0, #128	; 0x80
   15770:	e3a04002 	mov	r4, #2
   15774:	0a000008 	beq	1579c <__gnu_unwind_execute+0x328>
   15778:	e59d300c 	ldr	r3, [sp, #12]
   1577c:	e200007f 	and	r0, r0, #127	; 0x7f
   15780:	e0833410 	add	r3, r3, r0, lsl r4
   15784:	e1a00005 	mov	r0, r5
   15788:	e58d300c 	str	r3, [sp, #12]
   1578c:	ebffff13 	bl	153e0 <next_unwind_byte>
   15790:	e3100080 	tst	r0, #128	; 0x80
   15794:	e2844007 	add	r4, r4, #7
   15798:	1afffff6 	bne	15778 <__gnu_unwind_execute+0x304>
   1579c:	e59d300c 	ldr	r3, [sp, #12]
   157a0:	e200007f 	and	r0, r0, #127	; 0x7f
   157a4:	e2833f81 	add	r3, r3, #516	; 0x204
   157a8:	e0834410 	add	r4, r3, r0, lsl r4
   157ac:	e3a01000 	mov	r1, #0
   157b0:	e58d7000 	str	r7, [sp]
   157b4:	e1a00006 	mov	r0, r6
   157b8:	e3a0200d 	mov	r2, #13
   157bc:	e1a03001 	mov	r3, r1
   157c0:	e58d400c 	str	r4, [sp, #12]
   157c4:	ebfffc52 	bl	14914 <_Unwind_VRS_Set>
   157c8:	eaffff2e 	b	15488 <__gnu_unwind_execute+0x14>
   157cc:	e1a00005 	mov	r0, r5
   157d0:	ebffff02 	bl	153e0 <next_unwind_byte>
   157d4:	e200300f 	and	r3, r0, #15
   157d8:	e2833001 	add	r3, r3, #1
   157dc:	e20020f0 	and	r2, r0, #240	; 0xf0
   157e0:	e3a01001 	mov	r1, #1
   157e4:	e1832602 	orr	r2, r3, r2, lsl #12
   157e8:	e1a00006 	mov	r0, r6
   157ec:	e1a03001 	mov	r3, r1
   157f0:	ebfffda9 	bl	14e9c <_Unwind_VRS_Pop>
   157f4:	e3500000 	cmp	r0, #0
   157f8:	1affff40 	bne	15500 <__gnu_unwind_execute+0x8c>
   157fc:	eaffff21 	b	15488 <__gnu_unwind_execute+0x14>
   15800:	e1a00005 	mov	r0, r5
   15804:	ebfffef5 	bl	153e0 <next_unwind_byte>
   15808:	e200300f 	and	r3, r0, #15
   1580c:	e2833001 	add	r3, r3, #1
   15810:	e20020f0 	and	r2, r0, #240	; 0xf0
   15814:	e3a01003 	mov	r1, #3
   15818:	eafffff1 	b	157e4 <__gnu_unwind_execute+0x370>
   1581c:	e1a00005 	mov	r0, r5
   15820:	ebfffeee 	bl	153e0 <next_unwind_byte>
   15824:	e2502000 	subs	r2, r0, #0
   15828:	0affff34 	beq	15500 <__gnu_unwind_execute+0x8c>
   1582c:	e21230f0 	ands	r3, r2, #240	; 0xf0
   15830:	1affff32 	bne	15500 <__gnu_unwind_execute+0x8c>
   15834:	e1a00006 	mov	r0, r6
   15838:	e3a01004 	mov	r1, #4
   1583c:	ebfffd96 	bl	14e9c <_Unwind_VRS_Pop>
   15840:	e3500000 	cmp	r0, #0
   15844:	1affff2d 	bne	15500 <__gnu_unwind_execute+0x8c>
   15848:	eaffff0e 	b	15488 <__gnu_unwind_execute+0x14>
   1584c:	e200200f 	and	r2, r0, #15
   15850:	e3a01003 	mov	r1, #3
   15854:	e2822001 	add	r2, r2, #1
   15858:	e1a00006 	mov	r0, r6
   1585c:	e382280a 	orr	r2, r2, #655360	; 0xa0000
   15860:	e1a03001 	mov	r3, r1
   15864:	ebfffd8c 	bl	14e9c <_Unwind_VRS_Pop>
   15868:	e3500000 	cmp	r0, #0
   1586c:	1affff23 	bne	15500 <__gnu_unwind_execute+0x8c>
   15870:	eaffff04 	b	15488 <__gnu_unwind_execute+0x14>
   15874:	e1a00005 	mov	r0, r5
   15878:	ebfffed8 	bl	153e0 <next_unwind_byte>
   1587c:	e20020f0 	and	r2, r0, #240	; 0xf0
   15880:	e200300f 	and	r3, r0, #15
   15884:	e2822010 	add	r2, r2, #16
   15888:	e2833001 	add	r3, r3, #1
   1588c:	eaffff82 	b	1569c <__gnu_unwind_execute+0x228>

00015890 <__gnu_unwind_frame>:
   15890:	e52de004 	push	{lr}		; (str lr, [sp, #-4]!)
   15894:	e590304c 	ldr	r3, [r0, #76]	; 0x4c
   15898:	e24dd014 	sub	sp, sp, #20
   1589c:	e3a02003 	mov	r2, #3
   158a0:	e593c004 	ldr	ip, [r3, #4]
   158a4:	e5cd200c 	strb	r2, [sp, #12]
   158a8:	e5d32007 	ldrb	r2, [r3, #7]
   158ac:	e1a0c40c 	lsl	ip, ip, #8
   158b0:	e2833008 	add	r3, r3, #8
   158b4:	e1a00001 	mov	r0, r1
   158b8:	e28d1004 	add	r1, sp, #4
   158bc:	e58dc004 	str	ip, [sp, #4]
   158c0:	e58d3008 	str	r3, [sp, #8]
   158c4:	e5cd200d 	strb	r2, [sp, #13]
   158c8:	ebfffee9 	bl	15474 <__gnu_unwind_execute>
   158cc:	e28dd014 	add	sp, sp, #20
   158d0:	e49de004 	pop	{lr}		; (ldr lr, [sp], #4)
   158d4:	e12fff1e 	bx	lr

000158d8 <_Unwind_GetRegionStart>:
   158d8:	e92d4008 	push	{r3, lr}
   158dc:	ebfffee3 	bl	15470 <unwind_UCB_from_context>
   158e0:	e5900048 	ldr	r0, [r0, #72]	; 0x48
   158e4:	e8bd4008 	pop	{r3, lr}
   158e8:	e12fff1e 	bx	lr

000158ec <_Unwind_GetLanguageSpecificData>:
   158ec:	e92d4008 	push	{r3, lr}
   158f0:	ebfffede 	bl	15470 <unwind_UCB_from_context>
   158f4:	e590304c 	ldr	r3, [r0, #76]	; 0x4c
   158f8:	e5d32007 	ldrb	r2, [r3, #7]
   158fc:	e0830102 	add	r0, r3, r2, lsl #2
   15900:	e2800008 	add	r0, r0, #8
   15904:	e8bd4008 	pop	{r3, lr}
   15908:	e12fff1e 	bx	lr

0001590c <_Unwind_GetDataRelBase>:
   1590c:	e92d4008 	push	{r3, lr}
   15910:	ebffcedd 	bl	948c <abort>

00015914 <_Unwind_GetTextRelBase>:
   15914:	e92d4008 	push	{r3, lr}
   15918:	ebffcedb 	bl	948c <abort>

0001591c <__clzsi2>:
   1591c:	e3a0101c 	mov	r1, #28
   15920:	e3500801 	cmp	r0, #65536	; 0x10000
   15924:	21a00820 	lsrcs	r0, r0, #16
   15928:	22411010 	subcs	r1, r1, #16
   1592c:	e3500c01 	cmp	r0, #256	; 0x100
   15930:	21a00420 	lsrcs	r0, r0, #8
   15934:	22411008 	subcs	r1, r1, #8
   15938:	e3500010 	cmp	r0, #16
   1593c:	21a00220 	lsrcs	r0, r0, #4
   15940:	22411004 	subcs	r1, r1, #4
   15944:	e28f2008 	add	r2, pc, #8
   15948:	e7d20000 	ldrb	r0, [r2, r0]
   1594c:	e0800001 	add	r0, r0, r1
   15950:	e12fff1e 	bx	lr
   15954:	02020304 	.word	0x02020304
   15958:	01010101 	.word	0x01010101
	...
   15964:	2f62696c 	.word	0x2f62696c
   15968:	6e72656b 	.word	0x6e72656b
   1596c:	622f6c65 	.word	0x622f6c65
   15970:	616d7469 	.word	0x616d7469
   15974:	00632e70 	.word	0x00632e70
   15978:	65737341 	.word	0x65737341
   1597c:	6f697472 	.word	0x6f697472
   15980:	6166206e 	.word	0x6166206e
   15984:	64656c69 	.word	0x64656c69
   15988:	00000000 	.word	0x00000000

0001598c <__func__.4229>:
   1598c:	6d746962 635f7061 74616572 6e695f65     bitmap_create_in
   1599c:	6675625f 00000000                       _buf....

000159a4 <__func__.4244>:
   159a4:	6d746962 735f7061 00007465              bitmap_set..

000159b0 <__func__.4249>:
   159b0:	6d746962 745f7061 00747365              bitmap_test.

000159bc <__func__.4254>:
   159bc:	6d746962 735f7061 615f7465 00006c6c     bitmap_set_all..

000159cc <__func__.4262>:
   159cc:	6d746962 735f7061 6d5f7465 69746c75     bitmap_set_multi
   159dc:	00656c70                                ple.

000159e0 <__func__.4285>:
   159e0:	6d746962 635f7061 61746e6f 00736e69     bitmap_contains.

000159f0 <__func__.4310>:
   159f0:	6d746962 735f7061 006e6163 736e6f43     bitmap_scan.Cons
   15a00:	3a656c6f 6c6c2520 68632064 63617261     ole: %lld charac
   15a10:	73726574 74756f20 0a747570 00000000     ters output.....
   15a20:	2f62696c 6e72656b 632f6c65 6f736e6f     lib/kernel/conso
   15a30:	632e656c 00000000 65737341 6f697472     le.c....Assertio
   15a40:	6166206e 64656c69 00000000              n failed....

00015a4c <__func__.4375>:
   15a4c:	63747570 5f726168 65766168 636f6c5f     putchar_have_loc
   15a5c:	0000006b 72654b0a 206c656e 494e4150     k....Kernel PANI
   15a6c:	74612043 0000003a 6c69460a 25203a65     C at:....File: %
   15a7c:	00000073 6e694c0a 25203a65 00000064     s....Line: %d...
   15a8c:	6e75460a 6f697463 25203a6e 00000073     .Function: %s...
   15a9c:	73654d0a 65676173 7325203a 00000000     .Message: %s....
   15aac:	2f62696c 75626564 00632e67 726f6241     lib/debug.c.Abor
   15abc:	676e6974 2e2e2e2e 00000000              ting........

00015ac8 <__func__.4201>:
   15ac8:	726f6261 00000074 2f62696c 6e72656b     abort...lib/kern
   15ad8:	682f6c65 2e687361 00000063 65737341     el/hash.c...Asse
   15ae8:	6f697472 6166206e 64656c69 00000000     rtion failed....

00015af8 <__func__.4303>:
   15af8:	68736168 7070615f 0000796c              hash_apply..

00015b04 <__func__.4317>:
   15b04:	68736168 7269665f 00007473              hash_first..

00015b10 <__func__.4321>:
   15b10:	68736168 78656e5f 00000074              hash_next...

00015b1c <__func__.4340>:
   15b1c:	68736168 7479625f 00007365              hash_bytes..

00015b28 <__func__.4349>:
   15b28:	68736168 7274735f 00676e69              hash_string.

00015b34 <__func__.4385>:
   15b34:	61686572 00006873 4f734f0a 654b2073     rehash...OsOs Ke
   15b44:	6c656e72 696e4920 6c616974 6e697a69     rnel Initializin
   15b54:	00000067 6e69460a 20687369 746f6f62     g....Finish boot
   15b64:	2e676e69 00000000 6c656853 0000006c     ing.....Shell...
   15b74:	65726874 2f736461 74696e69 0000632e     threads/init.c..
   15b84:	65737341 6f697472 6166206e 64656c69     Assertion failed
   15b94:	00000000 2073250a 6146202d 726f7463     .....%s - Factor
   15ba4:	286c6169 20296425 6425203d 00000000     ial(%d) = %d....
   15bb4:	736f734f 0024203a 6e55200a 776f6e6b     Osos: $.. Unknow
   15bc4:	7250206e 69726f69 4d207974 2165646f     n Priority Mode!
   15bd4:	0a202121 00000020 7a7a6950 00000061     !! . ...Pizza...
   15be4:	74636166 6e75665f 00000063 7973626e     fact_func...nbsy
   15bf4:	00000000 65726854 535f6461 73746174     ....Thread_Stats
   15c04:	00000000 79737562 00000000 6e55200a     ....busy..... Un
   15c14:	776f6e6b 7546206e 6974636e 4e206e6f     known Function N
   15c24:	21656d61 0a202121 00000020 7374200a     ame!!! . .... ts
   15c34:	74202d20 61657268 74732064 73757461      - thread status
   15c44:	73202d20 20776f68 6e6e7572 20676e69      - show running 
   15c54:	65726874 20736461 646e6128 65687420     threads (and the
   15c64:	72207269 74206e75 29656d69 00000000     ir run time)....
   15c74:	7572200a 663c206e 3e636e75 6c202d20     . run <func> - l
   15c84:	636e7561 20612068 65726874 66206461     aunch a thread f
   15c94:	74636e75 206e6f69 20646e61 74696177     unction and wait
   15ca4:	726f6620 6d6f6320 74656c70 2e6e6f69      for completion.
   15cb4:	00000000 6762200a 75663c20 203e636e     ..... bg <func> 
   15cc4:	616c202d 68636e75 63206120 616d6d6f     - launch a comma
   15cd4:	6920646e 6874206e 61622065 72676b63     nd in the backgr
   15ce4:	646e756f 00000020 6568200a 2d20706c     ound .... help -
   15cf4:	75616c20 2068636e 6f632061 6e616d6d      launch a comman
   15d04:	6c207364 20747369 00000000 2323230a     ds list .....###
   15d14:	23232323 23232323 23232323 23232323     ################
   15d24:	23232323 65685328 23296c6c 23232323     ####(Shell)#####
   15d34:	23232323 23232323 23232323 00002323     ##############..
   15d44:	6f734f0a 203a2473 00000000 5f6e7552     .Osos$: ....Run_
   15d54:	636e7546 6e6f6974 00000000 465f6742     Function....Bg_F
   15d64:	74636e75 006e6f69 200a200a 21212121     unction.. . !!!!
   15d74:	21212121 6e492028 696c6176 6e492064     !!!!( Invalid In
   15d84:	20747570 21212129 21212121 000a2021     put )!!!!!!!! ..
   15d94:	6b61420a 20676e69 61657242 2e2e2064     .Baking Bread ..
   15da4:	29732528 2e2e2e2e 2e2e2e2e 2e2e2e2e     (%s)............
   15db4:	000a2e2e 6b61420a 42206465 64616572     .....Baked Bread
   15dc4:	73252820 2e2e2e29 2e2e2e2e 2e2e2e2e      (%s)...........
   15dd4:	2e2e2e2e 00000a2e 7453200a 20747261     ......... Start 
   15de4:	696b614d 5020676e 617a7a69 2e2e2e20     Making Pizza ...
   15df4:	2e2e2e2e 2e2e2e2e 2e2e2e2e 002e2e2e     ................
   15e04:	41455242 00000044 41455242 4f4c5f44     BREAD...BREAD_LO
   15e14:	00000057 41455242 49485f44 00004847     W...BREAD_HIGH..
   15e24:	7250200a 72617065 54206465 6e69706f     . Prepared Topin
   15e34:	2e2e2067 2e2e2e2e 2e2e2e2e 2e2e2e2e     g ..............
   15e44:	002e2e2e 6157200a 6e697469 6f662067     ..... Waiting fo
   15e54:	72422072 20646165 2e2e2e2e 2e2e2e2e     r Bread ........
   15e64:	2e2e2e2e 2e2e2e2e 002e2e2e 6f6f430a     .............Coo
   15e74:	676e696b 7a695020 5720617a 20687469     king Pizza With 
   15e84:	69706f54 2e2e676e 2e2e2e2e 2e2e2e2e     Toping..........
   15e94:	2e2e2e2e 2e2e2e2e 0000002e 7a69500a     .............Piz
   15ea4:	6f442061 2e20656e 002e2e2e 6c6c6548     a Done .....Hell
   15eb4:	7266206f 4f206d6f 00534f73 656b614d     o from OsOS.Make
   15ec4:	7a69705f 0000617a 6572500a 69726170     _pizza...Prepari
   15ed4:	5020676e 617a7a69 2e2e2e2e 2e2e2e2e     ng Pizza........
   15ee4:	2e2e2e2e 2e2e2e2e 2e2e2e2e 2e2e2e2e     ................
   15ef4:	202e2e2e 00000000                       ... ....

00015efc <__func__.4585>:
   15efc:	74636166 6e75665f 00000063 2f62696c     fact_func...lib/
   15f0c:	6e72656b 6c2f6c65 2e747369 00000063     kernel/list.c...
   15f1c:	65737341 6f697472 6166206e 64656c69     Assertion failed
   15f2c:	00000000                                ....

00015f30 <__func__.4175>:
   15f30:	7473696c 696e695f 00000074              list_init...

00015f3c <__func__.4179>:
   15f3c:	7473696c 6765625f 00006e69              list_begin..

00015f48 <__func__.4183>:
   15f48:	7473696c 78656e5f 00000074              list_next...

00015f54 <__func__.4187>:
   15f54:	7473696c 646e655f 00000000              list_end....

00015f60 <__func__.4191>:
   15f60:	7473696c 6562725f 006e6967              list_rbegin.

00015f6c <__func__.4195>:
   15f6c:	7473696c 6572705f 00000076              list_prev...

00015f78 <__func__.4199>:
   15f78:	7473696c 6e65725f 00000064              list_rend...

00015f84 <__func__.4203>:
   15f84:	7473696c 6165685f 00000064              list_head...

00015f90 <__func__.4207>:
   15f90:	7473696c 6961745f 0000006c              list_tail...

00015f9c <__func__.4212>:
   15f9c:	7473696c 736e695f 00747265              list_insert.

00015fa8 <__func__.4218>:
   15fa8:	7473696c 6c70735f 00656369              list_splice.

00015fb4 <__func__.4230>:
   15fb4:	7473696c 6d65725f 0065766f              list_remove.

00015fc0 <__func__.4242>:
   15fc0:	7473696c 6f72665f 0000746e              list_front..

00015fcc <__func__.4246>:
   15fcc:	7473696c 6361625f 0000006b              list_back...

00015fd8 <__func__.4285>:
   15fd8:	646e6966 646e655f 5f666f5f 006e7572     find_end_of_run.

00015fe8 <__func__.4295>:
   15fe8:	6c706e69 5f656361 6772656d 00000065     inplace_merge...

00015ff8 <__func__.4305>:
   15ff8:	7473696c 726f735f 00000074              list_sort...

00016004 <__func__.4321>:
   16004:	7473696c 736e695f 5f747265 6564726f     list_insert_orde
   16014:	00646572                                red.

00016018 <__func__.4333>:
   16018:	7473696c 696e755f 00657571 696e490a     list_unique..Ini
   16028:	6c616974 6e697a69 6e692067 72726574     tializing interr
   16038:	73747075 2e2e2e2e 0000002e 6e6b6e55     upts........Unkn
   16048:	006e776f 5152490a 004e4f20 5152490a     own..IRQ ON..IRQ
   16058:	46464f20 00000000 5149460a 004e4f20      OFF.....FIQ ON.
   16068:	5149460a 46464f20 00000000 65726874     .FIQ OFF....thre
   16078:	2f736461 65746e69 70757272 00632e74     ads/interrupt.c.
   16088:	65737341 6f697472 6166206e 64656c69     Assertion failed
   16098:	00000000 5350430a 00203a52 3331720a     .....CPSR: ..r13
   160a8:	3a70735f 00642520 3431720a 3a726c5f     _sp: %d..r14_lr:
   160b8:	00642520 3531720a 3a63705f 00642520      %d..r15_pc: %d.
   160c8:	3a30720a 00642520 3a31720a 00642520     .r0: %d..r1: %d.
   160d8:	3a32720a 00642520 3a33720a 00642520     .r2: %d..r3: %d.
   160e8:	3a34720a 00642520 3a35720a 00642520     .r4: %d..r5: %d.
   160f8:	3a36720a 00642520 3a37720a 00642520     .r6: %d..r7: %d.
   16108:	3a38720a 00642520 3a39720a 00642520     .r8: %d..r9: %d.
   16118:	3031720a 6425203a 00000000 3131720a     .r10: %d.....r11
   16128:	6425203a 00000000 3231720a 6425203a     : %d.....r12: %d
   16138:	00000000 6d75440a 4920796d 7265746e     .....Dummy Inter
   16148:	74707572 6e616820 72656c64 2e2e2e2e     rupt handler....
   16158:	00002e2e                                ....

0001615c <__func__.4424>:
   1615c:	65746e69 70757272 645f7374 61707369     interrupts_dispa
   1616c:	5f686374 00717269                       tch_irq.

00016174 <__func__.4441>:
   16174:	65746e69 70757272 645f7374 61707369     interrupts_dispa
   16184:	5f686374 00697773 696e490a 6c616974     tch_swi..Initial
   16194:	6e697a69 616d2067 636f6c6c 2e2e2e2e     izing malloc....
   161a4:	0000002e 65726874 2f736461 6c6c616d     ....threads/mall
   161b4:	632e636f 00000000 65737341 6f697472     oc.c....Assertio
   161c4:	6166206e 64656c69 00000000              n failed....

000161d0 <__func__.4366>:
   161d0:	6c6c616d 695f636f 0074696e              malloc_init.

000161dc <__func__.4411>:
   161dc:	65657266 00000000                       free....

000161e4 <__func__.4420>:
   161e4:	636f6c62 6f745f6b 6572615f 0000616e     block_to_arena..

000161f4 <__func__.4425>:
   161f4:	6e657261 6f745f61 6f6c625f 00006b63     arena_to_block..
   16204:	696e490a 6c616974 6e697a69 61702067     .Initializing pa
   16214:	636f6c6c 2e2e2e2e 0000002e 6e72656b     lloc........kern
   16224:	70206c65 006c6f6f 72657375 6f6f7020     el pool.user poo
   16234:	0000006c 65726874 2f736461 6c6c6170     l...threads/pall
   16244:	632e636f 00000000 6c6c6170 675f636f     oc.c....palloc_g
   16254:	203a7465 2074756f 7020666f 73656761     et: out of pages
   16264:	00000000 65737341 6f697472 6166206e     ....Assertion fa
   16274:	64656c69 00000000 63657865 64657475     iled....executed
   16284:	206e6120 65726e75 61686361 20656c62      an unreachable 
   16294:	74617473 6e656d65 00000074 20746f4e     statement...Not 
   162a4:	756f6e65 6d206867 726f6d65 6e692079     enough memory in
   162b4:	726f6620 74696220 2e70616d 00000000      for bitmap.....

000162c4 <__func__.4431>:
   162c4:	6c6c6170 675f636f 6d5f7465 69746c75     palloc_get_multi
   162d4:	00656c70                                ple.

000162d8 <__func__.4441>:
   162d8:	6c6c6170 665f636f 5f656572 746c756d     palloc_free_mult
   162e8:	656c7069 00000000                       iple....

000162f0 <__func__.4452>:
   162f0:	74696e69 6f6f705f 0000006c 6c656853     init_pool...Shel
   16300:	0000006c 696e490a 6c616974 6e697a69     l....Initializin
   16310:	656b2067 616f6279 2e2e6472 002e2e2e     g keyboard......
   16320:	6279654b 6472616f 00000000 33323130     Keyboard....0123
   16330:	37363534 00003938                       456789..

00016338 <base_d>:
   16338:	0000000a 0001632c 00000000 00000003     ....,c..........
   16348:	33323130 37363534 00000000              01234567....

00016354 <base_o>:
   16354:	00000008 00016348 00000000 00000003     ....Hc..........
   16364:	33323130 37363534 62613938 66656463     0123456789abcdef
   16374:	00000000                                ....

00016378 <base_x>:
   16378:	00000010 00016364 00000078 00000004     ....dc..x.......
   16388:	33323130 37363534 42413938 46454443     0123456789ABCDEF
   16398:	00000000                                ....

0001639c <base_X>:
   1639c:	00000010 00016388 00000058 00000004     .....c..X.......
   163ac:	2f62696c 69647473 00632e6f 63657865     lib/stdio.c.exec
   163bc:	64657475 206e6120 65726e75 61686361     uted an unreacha
   163cc:	20656c62 74617473 6e656d65 00000074     ble statement...
   163dc:	6c756e28 0000296c 6f6e3c3c 25252520     (null)..<<no %%%
   163ec:	6e692063 72656b20 3e6c656e 0000003e     c in kernel>>...
   163fc:	6f6e3c3c 25252520 6f632063 7265766e     <<no %%%c conver
   1640c:	6e6f6973 00003e3e 6a383025 00202078     sion>>..%08jx  .
   1641c:	00202020 68323025 63257868 00000000        .%02hhx%c....
   1642c:	79622031 00006574 756c6c25 00732520     1 byte..%llu %s.

0001643c <__func__.4341>:
   1643c:	70765f5f 746e6972 00000066 65747962     __vprintf...byte
   1644c:	00000073 0000426b 0000424d 00004247     s...kB..MB..GB..
   1645c:	00004254 2f62696c 6c647473 632e6269     TB..lib/stdlib.c
   1646c:	00000000 65737341 6f697472 6166206e     ....Assertion fa
   1647c:	64656c69 00000000                       iled....

00016484 <__func__.4160>:
   16484:	696f7461 00000000                       atoi....

0001648c <__func__.4234>:
   1648c:	74726f73 00000000 2f62696c 69727473     sort....lib/stri
   1649c:	632e676e 00000000 65737341 6f697472     ng.c....Assertio
   164ac:	6166206e 64656c69 00000000              n failed....

000164b8 <__func__.4136>:
   164b8:	636d656d 00007970                       memcpy..

000164c0 <__func__.4147>:
   164c0:	6d6d656d 0065766f                       memmove.

000164c8 <__func__.4161>:
   164c8:	636d656d 0000706d                       memcmp..

000164d0 <__func__.4171>:
   164d0:	63727473 0000706d                       strcmp..

000164d8 <__func__.4182>:
   164d8:	636d656d 00007268                       memchr..

000164e0 <__func__.4191>:
   164e0:	63727473 00007268                       strchr..

000164e8 <__func__.4241>:
   164e8:	74727473 725f6b6f 00000000              strtok_r....

000164f4 <__func__.4254>:
   164f4:	736d656d 00007465                       memset..

000164fc <__func__.4262>:
   164fc:	6c727473 00006e65                       strlen..

00016504 <__func__.4282>:
   16504:	6c727473 00797063                       strlcpy.

0001650c <__func__.4291>:
   1650c:	6c727473 00746163 65726874 2f736461     strlcat.threads/
   1651c:	636e7973 00632e68 65737341 6f697472     synch.c.Assertio
   1652c:	6166206e 64656c69 00000000 616d6573     n failed....sema
   1653c:	7365742d 00000074                       -test...

00016544 <__func__.4405>:
   16544:	616d6573 696e695f 00000074              sema_init...

00016550 <__func__.4410>:
   16550:	616d6573 776f645f 0000006e              sema_down...

0001655c <__func__.4419>:
   1655c:	616d6573 7972745f 776f645f 0000006e     sema_try_down...

0001656c <__func__.4424>:
   1656c:	616d6573 0070755f                       sema_up.

00016574 <__func__.4446>:
   16574:	6b636f6c 696e695f 00000074              lock_init...

00016580 <__func__.4450>:
   16580:	6b636f6c 7163615f 65726975 00000000     lock_acquire....

00016590 <__func__.4455>:
   16590:	6b636f6c 7972745f 7163615f 65726975     lock_try_acquire
   165a0:	00000000                                ....

000165a4 <__func__.4459>:
   165a4:	6b636f6c 6c65725f 65736165 00000000     lock_release....

000165b4 <__func__.4463>:
   165b4:	6b636f6c 6c65685f 79625f64 7275635f     lock_held_by_cur
   165c4:	746e6572 7268745f 00646165              rent_thread.

000165d0 <__func__.4470>:
   165d0:	646e6f63 696e695f 00000074              cond_init...

000165dc <__func__.4476>:
   165dc:	646e6f63 6961775f 00000074              cond_wait...

000165e8 <__func__.4481>:
   165e8:	646e6f63 6769735f 006c616e              cond_signal.

000165f4 <__func__.4486>:
   165f4:	646e6f63 6f72625f 61636461 00007473     cond_broadcast..

00016604 <timer_registers>:
   16604:	20003000 696e490a 6c616974 6e697a69     .0. .Initializin
   16614:	69742067 2e72656d 2e2e2e2e 00000000     g timer.........
   16624:	656d6954 6e492072 72726574 00747075     Timer Interrupt.
   16634:	65726874 2f736461 65726874 632e6461     threads/thread.c
   16644:	00000000 65737341 6f697472 6166206e     ....Assertion fa
   16654:	64656c69 00000000 6e69616d 00000000     iled....main....
   16664:	656c6449 72685420 00646165 65726854     Idle Thread.Thre
   16674:	203a6461 646c6c25 6c646920 69742065     ad: %lld idle ti
   16684:	2c736b63 6c6c2520 656b2064 6c656e72     cks, %lld kernel
   16694:	63697420 202c736b 646c6c25 65737520      ticks, %lld use
   166a4:	69742072 0a736b63 00000000 63657865     r ticks.....exec
   166b4:	64657475 206e6120 65726e75 61686361     uted an unreacha
   166c4:	20656c62 74617473 6e656d65 00000074     ble statement...
   166d4:	2d2d200a 2d2d2d2d 2d2d2d2d 2d2d2d2d     . --------------
   166e4:	2d2d2d2d 2d2d2d2d 54282d2d 6c61746f     ----------(Total
   166f4:	72685420 73646165 206e6920 20656874      Threads in the 
   16704:	74737953 2d206d65 20642520 2d2d2d29     System - %d )---
   16714:	2d2d2d2d 2d2d2d2d 2d2d2d2d 2d2d2d2d     ----------------
   16724:	0000000a 20200a0a 20202020 20202020     ......          
   16734:	454d414e 20202020 09090920 4d495420     NAME     ... TIM
   16744:	09202045 53200909 55544154 00000053     E  ... STATUS...
   16754:	2d2d2d2d 2d2d2d2d 2d2d2d2d 2d2d2d2d     ----------------
   16764:	2d2d2d2d 2d2d2d2d 2d2d2d2d 2d2d2d2d     ----------------
   16774:	2d2d2d2d 2d2d2d2d 2d2d2d2d 2d2d2d2d     ----------------
   16784:	2d2d2d2d 2d2d2d2d 2d2d2d2d 2d2d2d2d     ----------------
   16794:	2d2d2d2d 2d2d2d2d 2d2d2d2d 2d2d2d2d     ----------------
   167a4:	00002d2d 4c414644 00005455 4e4e5552     --..DFALUT..RUNN
   167b4:	00474e49 434f4c42 0044454b 4e495944     ING.BLOCKED.DYIN
   167c4:	00000047 44414552 00000059 73303225     G...READY...%20s
   167d4:	09090920 64332520 09090920 00000020      ... %3d ... ...
   167e4:	09097325 000a2020                       %s..  ..

000167ec <__func__.4582>:
   167ec:	65726874 695f6461 0074696e              thread_init.

000167f8 <__func__.4588>:
   167f8:	74696e69 7268745f 00646165              init_thread.

00016804 <__func__.4613>:
   16804:	65726874 635f6461 74616572 00000065     thread_create...

00016814 <__func__.4629>:
   16814:	65726874 625f6461 6b636f6c 00000000     thread_block....

00016824 <__func__.4634>:
   16824:	65726874 755f6461 6f6c626e 00006b63     thread_unblock..

00016834 <__func__.4642>:
   16834:	65726874 635f6461 65727275 0000746e     thread_current..

00016844 <__func__.4649>:
   16844:	65726874 655f6461 00746978              thread_exit.

00016850 <__func__.4657>:
   16850:	65726874 795f6461 646c6569 00000000     thread_yield....

00016860 <__func__.4662>:
   16860:	65686373 656c7564 00000000              schedule....

0001686c <__func__.4667>:
   1686c:	65686373 656c7564 5f6e695f 65746e69     schedule_in_inte
   1687c:	70757272 00000074                       rrupt...

00016884 <__func__.4672>:
   16884:	65686373 656c7564 746f6e5f 5f6e695f     schedule_not_in_
   16894:	65746e69 70757272 00000074              interrupt...

000168a0 <__func__.4677>:
   168a0:	65726874 735f6461 64656863 5f656c75     thread_schedule_
   168b0:	6c696174 00000000                       tail....

000168b8 <__func__.4683>:
   168b8:	65726874 665f6461 6165726f 00006863     thread_foreach..

000168c8 <__func__.4709>:
   168c8:	656c6469 00000000                       idle....

000168d0 <__func__.4720>:
   168d0:	6e72656b 745f6c65 61657268 00000064     kernel_thread...

000168e0 <__func__.4753>:
   168e0:	5f746573 72727563 5f746e65 65746e69     set_current_inte
   168f0:	70757272 735f7374 6b636174 6172665f     rrupts_stack_fra
   16900:	0000656d                                me..

00016904 <__func__.4756>:
   16904:	5f746567 72727563 5f746e65 65746e69     get_current_inte
   16914:	70757272 735f7374 6b636174 6172665f     rrupts_stack_fra
   16924:	0000656d                                me..
